
target.axf:     file format elf32-littlearm


Disassembly of section .rom.text:

00000000 <__vectors_table>:
       0:	1ffffffc 	.word	0x1ffffffc
       4:	00000101 	.word	0x00000101
       8:	00000109 	.word	0x00000109
       c:	0000010d 	.word	0x0000010d
      10:	00000121 	.word	0x00000121
      14:	00000125 	.word	0x00000125
      18:	00000129 	.word	0x00000129
	...

00000100 <Reset_Handler>:
     100:	f8df d028 	ldr.w	sp, [pc, #40]	; 12c <UsageFault_Handler+0x4>
     104:	f004 bfae 	b.w	5064 <HalResetVsr>

00000108 <NMI_Handler>:
     108:	f005 b8ca 	b.w	52a0 <HalNMIHandler>

0000010c <HardFault_Handler>:
     10c:	f01e 0f04 	tst.w	lr, #4
     110:	bf0c      	ite	eq
     112:	f3ef 8008 	mrseq	r0, MSP
     116:	f3ef 8009 	mrsne	r0, PSP
     11a:	f005 b8d5 	b.w	52c8 <HalHardFaultHandler>
	...

00000120 <MemManage_Handler>:
     120:	f005 b9dc 	b.w	54dc <HalMemManageHandler>

00000124 <BusFault_Handler>:
     124:	f005 b9ee 	b.w	5504 <HalBusFaultHandler>

00000128 <UsageFault_Handler>:
     128:	f005 ba00 	b.w	552c <HalUsageFaultHandler>
     12c:	1ffffffc 	.word	0x1ffffffc

00000130 <DumpForOneBytes>:
     130:	e92d 4ff0 	stmdb	sp!, {r4, r5, r6, r7, r8, r9, sl, fp, lr}
     134:	f8df 8168 	ldr.w	r8, [pc, #360]	; 2a0 <DumpForOneBytes+0x170>
     138:	b085      	sub	sp, #20
     13a:	f8d8 3000 	ldr.w	r3, [r8]
     13e:	9002      	str	r0, [sp, #8]
     140:	005b      	lsls	r3, r3, #1
     142:	fa5f fa81 	uxtb.w	sl, r1
     146:	f100 8092 	bmi.w	26e <DumpForOneBytes+0x13e>
     14a:	fa4f f38a 	sxtb.w	r3, sl
     14e:	2b00      	cmp	r3, #0
     150:	9301      	str	r3, [sp, #4]
     152:	dd56      	ble.n	202 <DumpForOneBytes+0xd2>
     154:	2600      	movs	r6, #0
     156:	460f      	mov	r7, r1
     158:	4635      	mov	r5, r6
     15a:	f8df 9150 	ldr.w	r9, [pc, #336]	; 2ac <DumpForOneBytes+0x17c>
     15e:	f8d8 0000 	ldr.w	r0, [r8]
     162:	f010 4080 	ands.w	r0, r0, #1073741824	; 0x40000000
     166:	d16f      	bne.n	248 <DumpForOneBytes+0x118>
     168:	9a01      	ldr	r2, [sp, #4]
     16a:	f105 0310 	add.w	r3, r5, #16
     16e:	4293      	cmp	r3, r2
     170:	db65      	blt.n	23e <DumpForOneBytes+0x10e>
     172:	fa4f fa87 	sxtb.w	sl, r7
     176:	f1ba 0f00 	cmp.w	sl, #0
     17a:	f1ca 0b10 	rsb	fp, sl, #16
     17e:	dd0c      	ble.n	19a <DumpForOneBytes+0x6a>
     180:	9b02      	ldr	r3, [sp, #8]
     182:	2400      	movs	r4, #0
     184:	442b      	add	r3, r5
     186:	9303      	str	r3, [sp, #12]
     188:	2800      	cmp	r0, #0
     18a:	d13d      	bne.n	208 <DumpForOneBytes+0xd8>
     18c:	3401      	adds	r4, #1
     18e:	b263      	sxtb	r3, r4
     190:	459a      	cmp	sl, r3
     192:	dcf9      	bgt.n	188 <DumpForOneBytes+0x58>
     194:	f1bb 0f00 	cmp.w	fp, #0
     198:	dd07      	ble.n	1aa <DumpForOneBytes+0x7a>
     19a:	2400      	movs	r4, #0
     19c:	2800      	cmp	r0, #0
     19e:	d13c      	bne.n	21a <DumpForOneBytes+0xea>
     1a0:	3401      	adds	r4, #1
     1a2:	b2e4      	uxtb	r4, r4
     1a4:	b263      	sxtb	r3, r4
     1a6:	455b      	cmp	r3, fp
     1a8:	dbf8      	blt.n	19c <DumpForOneBytes+0x6c>
     1aa:	2800      	cmp	r0, #0
     1ac:	d155      	bne.n	25a <DumpForOneBytes+0x12a>
     1ae:	f1ba 0f00 	cmp.w	sl, #0
     1b2:	dd1e      	ble.n	1f2 <DumpForOneBytes+0xc2>
     1b4:	9b02      	ldr	r3, [sp, #8]
     1b6:	2400      	movs	r4, #0
     1b8:	441d      	add	r5, r3
     1ba:	e005      	b.n	1c8 <DumpForOneBytes+0x98>
     1bc:	2800      	cmp	r0, #0
     1be:	d136      	bne.n	22e <DumpForOneBytes+0xfe>
     1c0:	3401      	adds	r4, #1
     1c2:	b262      	sxtb	r2, r4
     1c4:	4592      	cmp	sl, r2
     1c6:	dd13      	ble.n	1f0 <DumpForOneBytes+0xc0>
     1c8:	f815 1b01 	ldrb.w	r1, [r5], #1
     1cc:	f1a1 0320 	sub.w	r3, r1, #32
     1d0:	2b5e      	cmp	r3, #94	; 0x5e
     1d2:	4603      	mov	r3, r0
     1d4:	d9f2      	bls.n	1bc <DumpForOneBytes+0x8c>
     1d6:	2800      	cmp	r0, #0
     1d8:	d0f2      	beq.n	1c0 <DumpForOneBytes+0x90>
     1da:	482b      	ldr	r0, [pc, #172]	; (288 <DumpForOneBytes+0x158>)
     1dc:	47c8      	blx	r9
     1de:	3401      	adds	r4, #1
     1e0:	f8d8 0000 	ldr.w	r0, [r8]
     1e4:	b262      	sxtb	r2, r4
     1e6:	f000 4080 	and.w	r0, r0, #1073741824	; 0x40000000
     1ea:	4592      	cmp	sl, r2
     1ec:	4603      	mov	r3, r0
     1ee:	dceb      	bgt.n	1c8 <DumpForOneBytes+0x98>
     1f0:	b9d3      	cbnz	r3, 228 <DumpForOneBytes+0xf8>
     1f2:	3610      	adds	r6, #16
     1f4:	b2f6      	uxtb	r6, r6
     1f6:	9b01      	ldr	r3, [sp, #4]
     1f8:	b275      	sxtb	r5, r6
     1fa:	3f10      	subs	r7, #16
     1fc:	42ab      	cmp	r3, r5
     1fe:	b2ff      	uxtb	r7, r7
     200:	dcad      	bgt.n	15e <DumpForOneBytes+0x2e>
     202:	b005      	add	sp, #20
     204:	e8bd 8ff0 	ldmia.w	sp!, {r4, r5, r6, r7, r8, r9, sl, fp, pc}
     208:	9b03      	ldr	r3, [sp, #12]
     20a:	4820      	ldr	r0, [pc, #128]	; (28c <DumpForOneBytes+0x15c>)
     20c:	5d19      	ldrb	r1, [r3, r4]
     20e:	47c8      	blx	r9
     210:	f8d8 0000 	ldr.w	r0, [r8]
     214:	f000 4080 	and.w	r0, r0, #1073741824	; 0x40000000
     218:	e7b8      	b.n	18c <DumpForOneBytes+0x5c>
     21a:	481d      	ldr	r0, [pc, #116]	; (290 <DumpForOneBytes+0x160>)
     21c:	47c8      	blx	r9
     21e:	f8d8 0000 	ldr.w	r0, [r8]
     222:	f000 4080 	and.w	r0, r0, #1073741824	; 0x40000000
     226:	e7bb      	b.n	1a0 <DumpForOneBytes+0x70>
     228:	481a      	ldr	r0, [pc, #104]	; (294 <DumpForOneBytes+0x164>)
     22a:	47c8      	blx	r9
     22c:	e7e1      	b.n	1f2 <DumpForOneBytes+0xc2>
     22e:	481a      	ldr	r0, [pc, #104]	; (298 <DumpForOneBytes+0x168>)
     230:	47c8      	blx	r9
     232:	f8d8 0000 	ldr.w	r0, [r8]
     236:	f000 4080 	and.w	r0, r0, #1073741824	; 0x40000000
     23a:	4603      	mov	r3, r0
     23c:	e7c0      	b.n	1c0 <DumpForOneBytes+0x90>
     23e:	f04f 0b00 	mov.w	fp, #0
     242:	f04f 0a10 	mov.w	sl, #16
     246:	e79b      	b.n	180 <DumpForOneBytes+0x50>
     248:	9b02      	ldr	r3, [sp, #8]
     24a:	4814      	ldr	r0, [pc, #80]	; (29c <DumpForOneBytes+0x16c>)
     24c:	1959      	adds	r1, r3, r5
     24e:	47c8      	blx	r9
     250:	4b13      	ldr	r3, [pc, #76]	; (2a0 <DumpForOneBytes+0x170>)
     252:	6818      	ldr	r0, [r3, #0]
     254:	f000 4080 	and.w	r0, r0, #1073741824	; 0x40000000
     258:	e786      	b.n	168 <DumpForOneBytes+0x38>
     25a:	4812      	ldr	r0, [pc, #72]	; (2a4 <DumpForOneBytes+0x174>)
     25c:	47c8      	blx	r9
     25e:	f1ba 0f00 	cmp.w	sl, #0
     262:	dd0a      	ble.n	27a <DumpForOneBytes+0x14a>
     264:	f8d8 0000 	ldr.w	r0, [r8]
     268:	f000 4080 	and.w	r0, r0, #1073741824	; 0x40000000
     26c:	e7a2      	b.n	1b4 <DumpForOneBytes+0x84>
     26e:	480e      	ldr	r0, [pc, #56]	; (2a8 <DumpForOneBytes+0x178>)
     270:	4b0e      	ldr	r3, [pc, #56]	; (2ac <DumpForOneBytes+0x17c>)
     272:	9101      	str	r1, [sp, #4]
     274:	4798      	blx	r3
     276:	9901      	ldr	r1, [sp, #4]
     278:	e767      	b.n	14a <DumpForOneBytes+0x1a>
     27a:	f8d8 3000 	ldr.w	r3, [r8]
     27e:	f003 4380 	and.w	r3, r3, #1073741824	; 0x40000000
     282:	2b00      	cmp	r3, #0
     284:	d0b5      	beq.n	1f2 <DumpForOneBytes+0xc2>
     286:	e7cf      	b.n	228 <DumpForOneBytes+0xf8>
     288:	10014e7c 	.word	0x10014e7c
     28c:	10014e64 	.word	0x10014e64
     290:	10014e6c 	.word	0x10014e6c
     294:	10014e80 	.word	0x10014e80
     298:	10014e78 	.word	0x10014e78
     29c:	10014e5c 	.word	0x10014e5c
     2a0:	10000314 	.word	0x10000314
     2a4:	10014e70 	.word	0x10014e70
     2a8:	10014e1c 	.word	0x10014e1c
     2ac:	000064f1 	.word	0x000064f1

000002b0 <HalPeripheralIntrHandle>:
     2b0:	e92d 43f8 	stmdb	sp!, {r3, r4, r5, r6, r7, r8, r9, lr}
     2b4:	4a15      	ldr	r2, [pc, #84]	; (30c <HalPeripheralIntrHandle+0x5c>)
     2b6:	4b16      	ldr	r3, [pc, #88]	; (310 <HalPeripheralIntrHandle+0x60>)
     2b8:	f8d2 8000 	ldr.w	r8, [r2]
     2bc:	681f      	ldr	r7, [r3, #0]
     2be:	4e15      	ldr	r6, [pc, #84]	; (314 <HalPeripheralIntrHandle+0x64>)
     2c0:	4d15      	ldr	r5, [pc, #84]	; (318 <HalPeripheralIntrHandle+0x68>)
     2c2:	ea08 0707 	and.w	r7, r8, r7
     2c6:	2400      	movs	r4, #0
     2c8:	f04f 0901 	mov.w	r9, #1
     2cc:	e005      	b.n	2da <HalPeripheralIntrHandle+0x2a>
     2ce:	2c20      	cmp	r4, #32
     2d0:	f106 0604 	add.w	r6, r6, #4
     2d4:	f105 0504 	add.w	r5, r5, #4
     2d8:	d00e      	beq.n	2f8 <HalPeripheralIntrHandle+0x48>
     2da:	fa09 f304 	lsl.w	r3, r9, r4
     2de:	423b      	tst	r3, r7
     2e0:	f104 0401 	add.w	r4, r4, #1
     2e4:	d0f3      	beq.n	2ce <HalPeripheralIntrHandle+0x1e>
     2e6:	6833      	ldr	r3, [r6, #0]
     2e8:	6828      	ldr	r0, [r5, #0]
     2ea:	4798      	blx	r3
     2ec:	2c20      	cmp	r4, #32
     2ee:	f106 0604 	add.w	r6, r6, #4
     2f2:	f105 0504 	add.w	r5, r5, #4
     2f6:	d1f0      	bne.n	2da <HalPeripheralIntrHandle+0x2a>
     2f8:	4904      	ldr	r1, [pc, #16]	; (30c <HalPeripheralIntrHandle+0x5c>)
     2fa:	4b08      	ldr	r3, [pc, #32]	; (31c <HalPeripheralIntrHandle+0x6c>)
     2fc:	f44f 2200 	mov.w	r2, #524288	; 0x80000
     300:	f8c1 8000 	str.w	r8, [r1]
     304:	f8c3 2180 	str.w	r2, [r3, #384]	; 0x180
     308:	e8bd 83f8 	ldmia.w	sp!, {r3, r4, r5, r6, r7, r8, r9, pc}
     30c:	40002804 	.word	0x40002804
     310:	4000280c 	.word	0x4000280c
     314:	10000180 	.word	0x10000180
     318:	10000280 	.word	0x10000280
     31c:	e000e100 	.word	0xe000e100

00000320 <HalSysOnIntrHandle>:
     320:	b508      	push	{r3, lr}
     322:	4b09      	ldr	r3, [pc, #36]	; (348 <HalSysOnIntrHandle+0x28>)
     324:	6819      	ldr	r1, [r3, #0]
     326:	b139      	cbz	r1, 338 <HalSysOnIntrHandle+0x18>
     328:	4b08      	ldr	r3, [pc, #32]	; (34c <HalSysOnIntrHandle+0x2c>)
     32a:	6818      	ldr	r0, [r3, #0]
     32c:	4788      	blx	r1
     32e:	4b08      	ldr	r3, [pc, #32]	; (350 <HalSysOnIntrHandle+0x30>)
     330:	2201      	movs	r2, #1
     332:	f8c3 2180 	str.w	r2, [r3, #384]	; 0x180
     336:	bd08      	pop	{r3, pc}
     338:	4b06      	ldr	r3, [pc, #24]	; (354 <HalSysOnIntrHandle+0x34>)
     33a:	681b      	ldr	r3, [r3, #0]
     33c:	005b      	lsls	r3, r3, #1
     33e:	d5f6      	bpl.n	32e <HalSysOnIntrHandle+0xe>
     340:	4b05      	ldr	r3, [pc, #20]	; (358 <HalSysOnIntrHandle+0x38>)
     342:	4806      	ldr	r0, [pc, #24]	; (35c <HalSysOnIntrHandle+0x3c>)
     344:	4798      	blx	r3
     346:	e7f2      	b.n	32e <HalSysOnIntrHandle+0xe>
     348:	10000100 	.word	0x10000100
     34c:	10000200 	.word	0x10000200
     350:	e000e100 	.word	0xe000e100
     354:	10000314 	.word	0x10000314
     358:	000064f1 	.word	0x000064f1
     35c:	10015298 	.word	0x10015298

00000360 <HalWdgIntrHandle>:
     360:	b508      	push	{r3, lr}
     362:	4b0a      	ldr	r3, [pc, #40]	; (38c <HalWdgIntrHandle+0x2c>)
     364:	685b      	ldr	r3, [r3, #4]
     366:	b13b      	cbz	r3, 378 <HalWdgIntrHandle+0x18>
     368:	4a09      	ldr	r2, [pc, #36]	; (390 <HalWdgIntrHandle+0x30>)
     36a:	6850      	ldr	r0, [r2, #4]
     36c:	4798      	blx	r3
     36e:	4b09      	ldr	r3, [pc, #36]	; (394 <HalWdgIntrHandle+0x34>)
     370:	2202      	movs	r2, #2
     372:	f8c3 2180 	str.w	r2, [r3, #384]	; 0x180
     376:	bd08      	pop	{r3, pc}
     378:	4b07      	ldr	r3, [pc, #28]	; (398 <HalWdgIntrHandle+0x38>)
     37a:	681b      	ldr	r3, [r3, #0]
     37c:	005b      	lsls	r3, r3, #1
     37e:	d5f6      	bpl.n	36e <HalWdgIntrHandle+0xe>
     380:	2101      	movs	r1, #1
     382:	4b06      	ldr	r3, [pc, #24]	; (39c <HalWdgIntrHandle+0x3c>)
     384:	4806      	ldr	r0, [pc, #24]	; (3a0 <HalWdgIntrHandle+0x40>)
     386:	4798      	blx	r3
     388:	e7f1      	b.n	36e <HalWdgIntrHandle+0xe>
     38a:	bf00      	nop
     38c:	10000100 	.word	0x10000100
     390:	10000200 	.word	0x10000200
     394:	e000e100 	.word	0xe000e100
     398:	10000314 	.word	0x10000314
     39c:	000064f1 	.word	0x000064f1
     3a0:	10015298 	.word	0x10015298

000003a4 <HalTimer0IntrHandle>:
     3a4:	b508      	push	{r3, lr}
     3a6:	4b0a      	ldr	r3, [pc, #40]	; (3d0 <HalTimer0IntrHandle+0x2c>)
     3a8:	689b      	ldr	r3, [r3, #8]
     3aa:	b13b      	cbz	r3, 3bc <HalTimer0IntrHandle+0x18>
     3ac:	4a09      	ldr	r2, [pc, #36]	; (3d4 <HalTimer0IntrHandle+0x30>)
     3ae:	6890      	ldr	r0, [r2, #8]
     3b0:	4798      	blx	r3
     3b2:	4b09      	ldr	r3, [pc, #36]	; (3d8 <HalTimer0IntrHandle+0x34>)
     3b4:	2204      	movs	r2, #4
     3b6:	f8c3 2180 	str.w	r2, [r3, #384]	; 0x180
     3ba:	bd08      	pop	{r3, pc}
     3bc:	4b07      	ldr	r3, [pc, #28]	; (3dc <HalTimer0IntrHandle+0x38>)
     3be:	681b      	ldr	r3, [r3, #0]
     3c0:	005b      	lsls	r3, r3, #1
     3c2:	d5f6      	bpl.n	3b2 <HalTimer0IntrHandle+0xe>
     3c4:	2102      	movs	r1, #2
     3c6:	4b06      	ldr	r3, [pc, #24]	; (3e0 <HalTimer0IntrHandle+0x3c>)
     3c8:	4806      	ldr	r0, [pc, #24]	; (3e4 <HalTimer0IntrHandle+0x40>)
     3ca:	4798      	blx	r3
     3cc:	e7f1      	b.n	3b2 <HalTimer0IntrHandle+0xe>
     3ce:	bf00      	nop
     3d0:	10000100 	.word	0x10000100
     3d4:	10000200 	.word	0x10000200
     3d8:	e000e100 	.word	0xe000e100
     3dc:	10000314 	.word	0x10000314
     3e0:	000064f1 	.word	0x000064f1
     3e4:	10015298 	.word	0x10015298

000003e8 <HalTimer1IntrHandle>:
     3e8:	b508      	push	{r3, lr}
     3ea:	4b0a      	ldr	r3, [pc, #40]	; (414 <HalTimer1IntrHandle+0x2c>)
     3ec:	68db      	ldr	r3, [r3, #12]
     3ee:	b13b      	cbz	r3, 400 <HalTimer1IntrHandle+0x18>
     3f0:	4a09      	ldr	r2, [pc, #36]	; (418 <HalTimer1IntrHandle+0x30>)
     3f2:	68d0      	ldr	r0, [r2, #12]
     3f4:	4798      	blx	r3
     3f6:	4b09      	ldr	r3, [pc, #36]	; (41c <HalTimer1IntrHandle+0x34>)
     3f8:	2208      	movs	r2, #8
     3fa:	f8c3 2180 	str.w	r2, [r3, #384]	; 0x180
     3fe:	bd08      	pop	{r3, pc}
     400:	4b07      	ldr	r3, [pc, #28]	; (420 <HalTimer1IntrHandle+0x38>)
     402:	681b      	ldr	r3, [r3, #0]
     404:	005b      	lsls	r3, r3, #1
     406:	d5f6      	bpl.n	3f6 <HalTimer1IntrHandle+0xe>
     408:	2103      	movs	r1, #3
     40a:	4b06      	ldr	r3, [pc, #24]	; (424 <HalTimer1IntrHandle+0x3c>)
     40c:	4806      	ldr	r0, [pc, #24]	; (428 <HalTimer1IntrHandle+0x40>)
     40e:	4798      	blx	r3
     410:	e7f1      	b.n	3f6 <HalTimer1IntrHandle+0xe>
     412:	bf00      	nop
     414:	10000100 	.word	0x10000100
     418:	10000200 	.word	0x10000200
     41c:	e000e100 	.word	0xe000e100
     420:	10000314 	.word	0x10000314
     424:	000064f1 	.word	0x000064f1
     428:	10015298 	.word	0x10015298

0000042c <HalI2C3IntrHandle>:
     42c:	b508      	push	{r3, lr}
     42e:	4b0a      	ldr	r3, [pc, #40]	; (458 <HalI2C3IntrHandle+0x2c>)
     430:	691b      	ldr	r3, [r3, #16]
     432:	b13b      	cbz	r3, 444 <HalI2C3IntrHandle+0x18>
     434:	4a09      	ldr	r2, [pc, #36]	; (45c <HalI2C3IntrHandle+0x30>)
     436:	6910      	ldr	r0, [r2, #16]
     438:	4798      	blx	r3
     43a:	4b09      	ldr	r3, [pc, #36]	; (460 <HalI2C3IntrHandle+0x34>)
     43c:	2210      	movs	r2, #16
     43e:	f8c3 2180 	str.w	r2, [r3, #384]	; 0x180
     442:	bd08      	pop	{r3, pc}
     444:	4b07      	ldr	r3, [pc, #28]	; (464 <HalI2C3IntrHandle+0x38>)
     446:	681b      	ldr	r3, [r3, #0]
     448:	005b      	lsls	r3, r3, #1
     44a:	d5f6      	bpl.n	43a <HalI2C3IntrHandle+0xe>
     44c:	2104      	movs	r1, #4
     44e:	4b06      	ldr	r3, [pc, #24]	; (468 <HalI2C3IntrHandle+0x3c>)
     450:	4806      	ldr	r0, [pc, #24]	; (46c <HalI2C3IntrHandle+0x40>)
     452:	4798      	blx	r3
     454:	e7f1      	b.n	43a <HalI2C3IntrHandle+0xe>
     456:	bf00      	nop
     458:	10000100 	.word	0x10000100
     45c:	10000200 	.word	0x10000200
     460:	e000e100 	.word	0xe000e100
     464:	10000314 	.word	0x10000314
     468:	000064f1 	.word	0x000064f1
     46c:	10015298 	.word	0x10015298

00000470 <HalTimer2To7IntrHandle>:
     470:	b508      	push	{r3, lr}
     472:	4b0a      	ldr	r3, [pc, #40]	; (49c <HalTimer2To7IntrHandle+0x2c>)
     474:	695b      	ldr	r3, [r3, #20]
     476:	b13b      	cbz	r3, 488 <HalTimer2To7IntrHandle+0x18>
     478:	4a09      	ldr	r2, [pc, #36]	; (4a0 <HalTimer2To7IntrHandle+0x30>)
     47a:	6950      	ldr	r0, [r2, #20]
     47c:	4798      	blx	r3
     47e:	4b09      	ldr	r3, [pc, #36]	; (4a4 <HalTimer2To7IntrHandle+0x34>)
     480:	2220      	movs	r2, #32
     482:	f8c3 2180 	str.w	r2, [r3, #384]	; 0x180
     486:	bd08      	pop	{r3, pc}
     488:	4b07      	ldr	r3, [pc, #28]	; (4a8 <HalTimer2To7IntrHandle+0x38>)
     48a:	681b      	ldr	r3, [r3, #0]
     48c:	005b      	lsls	r3, r3, #1
     48e:	d5f6      	bpl.n	47e <HalTimer2To7IntrHandle+0xe>
     490:	2105      	movs	r1, #5
     492:	4b06      	ldr	r3, [pc, #24]	; (4ac <HalTimer2To7IntrHandle+0x3c>)
     494:	4806      	ldr	r0, [pc, #24]	; (4b0 <HalTimer2To7IntrHandle+0x40>)
     496:	4798      	blx	r3
     498:	e7f1      	b.n	47e <HalTimer2To7IntrHandle+0xe>
     49a:	bf00      	nop
     49c:	10000100 	.word	0x10000100
     4a0:	10000200 	.word	0x10000200
     4a4:	e000e100 	.word	0xe000e100
     4a8:	10000314 	.word	0x10000314
     4ac:	000064f1 	.word	0x000064f1
     4b0:	10015298 	.word	0x10015298

000004b4 <HalSpi0IntrHandle>:
     4b4:	b508      	push	{r3, lr}
     4b6:	4b0a      	ldr	r3, [pc, #40]	; (4e0 <HalSpi0IntrHandle+0x2c>)
     4b8:	699b      	ldr	r3, [r3, #24]
     4ba:	b13b      	cbz	r3, 4cc <HalSpi0IntrHandle+0x18>
     4bc:	4a09      	ldr	r2, [pc, #36]	; (4e4 <HalSpi0IntrHandle+0x30>)
     4be:	6990      	ldr	r0, [r2, #24]
     4c0:	4798      	blx	r3
     4c2:	4b09      	ldr	r3, [pc, #36]	; (4e8 <HalSpi0IntrHandle+0x34>)
     4c4:	2240      	movs	r2, #64	; 0x40
     4c6:	f8c3 2180 	str.w	r2, [r3, #384]	; 0x180
     4ca:	bd08      	pop	{r3, pc}
     4cc:	4b07      	ldr	r3, [pc, #28]	; (4ec <HalSpi0IntrHandle+0x38>)
     4ce:	681b      	ldr	r3, [r3, #0]
     4d0:	005b      	lsls	r3, r3, #1
     4d2:	d5f6      	bpl.n	4c2 <HalSpi0IntrHandle+0xe>
     4d4:	2106      	movs	r1, #6
     4d6:	4b06      	ldr	r3, [pc, #24]	; (4f0 <HalSpi0IntrHandle+0x3c>)
     4d8:	4806      	ldr	r0, [pc, #24]	; (4f4 <HalSpi0IntrHandle+0x40>)
     4da:	4798      	blx	r3
     4dc:	e7f1      	b.n	4c2 <HalSpi0IntrHandle+0xe>
     4de:	bf00      	nop
     4e0:	10000100 	.word	0x10000100
     4e4:	10000200 	.word	0x10000200
     4e8:	e000e100 	.word	0xe000e100
     4ec:	10000314 	.word	0x10000314
     4f0:	000064f1 	.word	0x000064f1
     4f4:	10015298 	.word	0x10015298

000004f8 <HalGpioIntrHandle>:
     4f8:	b508      	push	{r3, lr}
     4fa:	4b0a      	ldr	r3, [pc, #40]	; (524 <HalGpioIntrHandle+0x2c>)
     4fc:	69db      	ldr	r3, [r3, #28]
     4fe:	b13b      	cbz	r3, 510 <HalGpioIntrHandle+0x18>
     500:	4a09      	ldr	r2, [pc, #36]	; (528 <HalGpioIntrHandle+0x30>)
     502:	69d0      	ldr	r0, [r2, #28]
     504:	4798      	blx	r3
     506:	4b09      	ldr	r3, [pc, #36]	; (52c <HalGpioIntrHandle+0x34>)
     508:	2280      	movs	r2, #128	; 0x80
     50a:	f8c3 2180 	str.w	r2, [r3, #384]	; 0x180
     50e:	bd08      	pop	{r3, pc}
     510:	4b07      	ldr	r3, [pc, #28]	; (530 <HalGpioIntrHandle+0x38>)
     512:	681b      	ldr	r3, [r3, #0]
     514:	005b      	lsls	r3, r3, #1
     516:	d5f6      	bpl.n	506 <HalGpioIntrHandle+0xe>
     518:	2107      	movs	r1, #7
     51a:	4b06      	ldr	r3, [pc, #24]	; (534 <HalGpioIntrHandle+0x3c>)
     51c:	4806      	ldr	r0, [pc, #24]	; (538 <HalGpioIntrHandle+0x40>)
     51e:	4798      	blx	r3
     520:	e7f1      	b.n	506 <HalGpioIntrHandle+0xe>
     522:	bf00      	nop
     524:	10000100 	.word	0x10000100
     528:	10000200 	.word	0x10000200
     52c:	e000e100 	.word	0xe000e100
     530:	10000314 	.word	0x10000314
     534:	000064f1 	.word	0x000064f1
     538:	10015298 	.word	0x10015298

0000053c <HalUart0IntrHandle>:
     53c:	b508      	push	{r3, lr}
     53e:	4b0a      	ldr	r3, [pc, #40]	; (568 <HalUart0IntrHandle+0x2c>)
     540:	6a1b      	ldr	r3, [r3, #32]
     542:	b143      	cbz	r3, 556 <HalUart0IntrHandle+0x1a>
     544:	4a09      	ldr	r2, [pc, #36]	; (56c <HalUart0IntrHandle+0x30>)
     546:	6a10      	ldr	r0, [r2, #32]
     548:	4798      	blx	r3
     54a:	4b09      	ldr	r3, [pc, #36]	; (570 <HalUart0IntrHandle+0x34>)
     54c:	f44f 7280 	mov.w	r2, #256	; 0x100
     550:	f8c3 2180 	str.w	r2, [r3, #384]	; 0x180
     554:	bd08      	pop	{r3, pc}
     556:	4b07      	ldr	r3, [pc, #28]	; (574 <HalUart0IntrHandle+0x38>)
     558:	681b      	ldr	r3, [r3, #0]
     55a:	005b      	lsls	r3, r3, #1
     55c:	d5f5      	bpl.n	54a <HalUart0IntrHandle+0xe>
     55e:	2108      	movs	r1, #8
     560:	4b05      	ldr	r3, [pc, #20]	; (578 <HalUart0IntrHandle+0x3c>)
     562:	4806      	ldr	r0, [pc, #24]	; (57c <HalUart0IntrHandle+0x40>)
     564:	4798      	blx	r3
     566:	e7f0      	b.n	54a <HalUart0IntrHandle+0xe>
     568:	10000100 	.word	0x10000100
     56c:	10000200 	.word	0x10000200
     570:	e000e100 	.word	0xe000e100
     574:	10000314 	.word	0x10000314
     578:	000064f1 	.word	0x000064f1
     57c:	10015298 	.word	0x10015298

00000580 <HalSpiFlashIntrHandle>:
     580:	b508      	push	{r3, lr}
     582:	4b0a      	ldr	r3, [pc, #40]	; (5ac <HalSpiFlashIntrHandle+0x2c>)
     584:	6a5b      	ldr	r3, [r3, #36]	; 0x24
     586:	b143      	cbz	r3, 59a <HalSpiFlashIntrHandle+0x1a>
     588:	4a09      	ldr	r2, [pc, #36]	; (5b0 <HalSpiFlashIntrHandle+0x30>)
     58a:	6a50      	ldr	r0, [r2, #36]	; 0x24
     58c:	4798      	blx	r3
     58e:	4b09      	ldr	r3, [pc, #36]	; (5b4 <HalSpiFlashIntrHandle+0x34>)
     590:	f44f 7200 	mov.w	r2, #512	; 0x200
     594:	f8c3 2180 	str.w	r2, [r3, #384]	; 0x180
     598:	bd08      	pop	{r3, pc}
     59a:	4b07      	ldr	r3, [pc, #28]	; (5b8 <HalSpiFlashIntrHandle+0x38>)
     59c:	681b      	ldr	r3, [r3, #0]
     59e:	005b      	lsls	r3, r3, #1
     5a0:	d5f5      	bpl.n	58e <HalSpiFlashIntrHandle+0xe>
     5a2:	2109      	movs	r1, #9
     5a4:	4b05      	ldr	r3, [pc, #20]	; (5bc <HalSpiFlashIntrHandle+0x3c>)
     5a6:	4806      	ldr	r0, [pc, #24]	; (5c0 <HalSpiFlashIntrHandle+0x40>)
     5a8:	4798      	blx	r3
     5aa:	e7f0      	b.n	58e <HalSpiFlashIntrHandle+0xe>
     5ac:	10000100 	.word	0x10000100
     5b0:	10000200 	.word	0x10000200
     5b4:	e000e100 	.word	0xe000e100
     5b8:	10000314 	.word	0x10000314
     5bc:	000064f1 	.word	0x000064f1
     5c0:	10015298 	.word	0x10015298

000005c4 <HalUsbOtgIntrHandle>:
     5c4:	b508      	push	{r3, lr}
     5c6:	4b0a      	ldr	r3, [pc, #40]	; (5f0 <HalUsbOtgIntrHandle+0x2c>)
     5c8:	6a9b      	ldr	r3, [r3, #40]	; 0x28
     5ca:	b143      	cbz	r3, 5de <HalUsbOtgIntrHandle+0x1a>
     5cc:	4a09      	ldr	r2, [pc, #36]	; (5f4 <HalUsbOtgIntrHandle+0x30>)
     5ce:	6a90      	ldr	r0, [r2, #40]	; 0x28
     5d0:	4798      	blx	r3
     5d2:	4b09      	ldr	r3, [pc, #36]	; (5f8 <HalUsbOtgIntrHandle+0x34>)
     5d4:	f44f 6280 	mov.w	r2, #1024	; 0x400
     5d8:	f8c3 2180 	str.w	r2, [r3, #384]	; 0x180
     5dc:	bd08      	pop	{r3, pc}
     5de:	4b07      	ldr	r3, [pc, #28]	; (5fc <HalUsbOtgIntrHandle+0x38>)
     5e0:	681b      	ldr	r3, [r3, #0]
     5e2:	005b      	lsls	r3, r3, #1
     5e4:	d5f5      	bpl.n	5d2 <HalUsbOtgIntrHandle+0xe>
     5e6:	210a      	movs	r1, #10
     5e8:	4b05      	ldr	r3, [pc, #20]	; (600 <HalUsbOtgIntrHandle+0x3c>)
     5ea:	4806      	ldr	r0, [pc, #24]	; (604 <HalUsbOtgIntrHandle+0x40>)
     5ec:	4798      	blx	r3
     5ee:	e7f0      	b.n	5d2 <HalUsbOtgIntrHandle+0xe>
     5f0:	10000100 	.word	0x10000100
     5f4:	10000200 	.word	0x10000200
     5f8:	e000e100 	.word	0xe000e100
     5fc:	10000314 	.word	0x10000314
     600:	000064f1 	.word	0x000064f1
     604:	10015298 	.word	0x10015298

00000608 <HalSdioHostIntrHandle>:
     608:	b508      	push	{r3, lr}
     60a:	4b0a      	ldr	r3, [pc, #40]	; (634 <HalSdioHostIntrHandle+0x2c>)
     60c:	6adb      	ldr	r3, [r3, #44]	; 0x2c
     60e:	b143      	cbz	r3, 622 <HalSdioHostIntrHandle+0x1a>
     610:	4a09      	ldr	r2, [pc, #36]	; (638 <HalSdioHostIntrHandle+0x30>)
     612:	6ad0      	ldr	r0, [r2, #44]	; 0x2c
     614:	4798      	blx	r3
     616:	4b09      	ldr	r3, [pc, #36]	; (63c <HalSdioHostIntrHandle+0x34>)
     618:	f44f 6200 	mov.w	r2, #2048	; 0x800
     61c:	f8c3 2180 	str.w	r2, [r3, #384]	; 0x180
     620:	bd08      	pop	{r3, pc}
     622:	4b07      	ldr	r3, [pc, #28]	; (640 <HalSdioHostIntrHandle+0x38>)
     624:	681b      	ldr	r3, [r3, #0]
     626:	005b      	lsls	r3, r3, #1
     628:	d5f5      	bpl.n	616 <HalSdioHostIntrHandle+0xe>
     62a:	210b      	movs	r1, #11
     62c:	4b05      	ldr	r3, [pc, #20]	; (644 <HalSdioHostIntrHandle+0x3c>)
     62e:	4806      	ldr	r0, [pc, #24]	; (648 <HalSdioHostIntrHandle+0x40>)
     630:	4798      	blx	r3
     632:	e7f0      	b.n	616 <HalSdioHostIntrHandle+0xe>
     634:	10000100 	.word	0x10000100
     638:	10000200 	.word	0x10000200
     63c:	e000e100 	.word	0xe000e100
     640:	10000314 	.word	0x10000314
     644:	000064f1 	.word	0x000064f1
     648:	10015298 	.word	0x10015298

0000064c <HalI2s0OrPcm0IntrHandle>:
     64c:	b508      	push	{r3, lr}
     64e:	4b0a      	ldr	r3, [pc, #40]	; (678 <HalI2s0OrPcm0IntrHandle+0x2c>)
     650:	6b5b      	ldr	r3, [r3, #52]	; 0x34
     652:	b143      	cbz	r3, 666 <HalI2s0OrPcm0IntrHandle+0x1a>
     654:	4a09      	ldr	r2, [pc, #36]	; (67c <HalI2s0OrPcm0IntrHandle+0x30>)
     656:	6b50      	ldr	r0, [r2, #52]	; 0x34
     658:	4798      	blx	r3
     65a:	4b09      	ldr	r3, [pc, #36]	; (680 <HalI2s0OrPcm0IntrHandle+0x34>)
     65c:	f44f 5200 	mov.w	r2, #8192	; 0x2000
     660:	f8c3 2180 	str.w	r2, [r3, #384]	; 0x180
     664:	bd08      	pop	{r3, pc}
     666:	4b07      	ldr	r3, [pc, #28]	; (684 <HalI2s0OrPcm0IntrHandle+0x38>)
     668:	681b      	ldr	r3, [r3, #0]
     66a:	005b      	lsls	r3, r3, #1
     66c:	d5f5      	bpl.n	65a <HalI2s0OrPcm0IntrHandle+0xe>
     66e:	210d      	movs	r1, #13
     670:	4b05      	ldr	r3, [pc, #20]	; (688 <HalI2s0OrPcm0IntrHandle+0x3c>)
     672:	4806      	ldr	r0, [pc, #24]	; (68c <HalI2s0OrPcm0IntrHandle+0x40>)
     674:	4798      	blx	r3
     676:	e7f0      	b.n	65a <HalI2s0OrPcm0IntrHandle+0xe>
     678:	10000100 	.word	0x10000100
     67c:	10000200 	.word	0x10000200
     680:	e000e100 	.word	0xe000e100
     684:	10000314 	.word	0x10000314
     688:	000064f1 	.word	0x000064f1
     68c:	10015298 	.word	0x10015298

00000690 <HalI2s1OrPcm1IntrHandle>:
     690:	b508      	push	{r3, lr}
     692:	4b0a      	ldr	r3, [pc, #40]	; (6bc <HalI2s1OrPcm1IntrHandle+0x2c>)
     694:	6b9b      	ldr	r3, [r3, #56]	; 0x38
     696:	b143      	cbz	r3, 6aa <HalI2s1OrPcm1IntrHandle+0x1a>
     698:	4a09      	ldr	r2, [pc, #36]	; (6c0 <HalI2s1OrPcm1IntrHandle+0x30>)
     69a:	6b90      	ldr	r0, [r2, #56]	; 0x38
     69c:	4798      	blx	r3
     69e:	4b09      	ldr	r3, [pc, #36]	; (6c4 <HalI2s1OrPcm1IntrHandle+0x34>)
     6a0:	f44f 4280 	mov.w	r2, #16384	; 0x4000
     6a4:	f8c3 2180 	str.w	r2, [r3, #384]	; 0x180
     6a8:	bd08      	pop	{r3, pc}
     6aa:	4b07      	ldr	r3, [pc, #28]	; (6c8 <HalI2s1OrPcm1IntrHandle+0x38>)
     6ac:	681b      	ldr	r3, [r3, #0]
     6ae:	005b      	lsls	r3, r3, #1
     6b0:	d5f5      	bpl.n	69e <HalI2s1OrPcm1IntrHandle+0xe>
     6b2:	210e      	movs	r1, #14
     6b4:	4b05      	ldr	r3, [pc, #20]	; (6cc <HalI2s1OrPcm1IntrHandle+0x3c>)
     6b6:	4806      	ldr	r0, [pc, #24]	; (6d0 <HalI2s1OrPcm1IntrHandle+0x40>)
     6b8:	4798      	blx	r3
     6ba:	e7f0      	b.n	69e <HalI2s1OrPcm1IntrHandle+0xe>
     6bc:	10000100 	.word	0x10000100
     6c0:	10000200 	.word	0x10000200
     6c4:	e000e100 	.word	0xe000e100
     6c8:	10000314 	.word	0x10000314
     6cc:	000064f1 	.word	0x000064f1
     6d0:	10015298 	.word	0x10015298

000006d4 <HalWlDmaIntrHandle>:
     6d4:	b508      	push	{r3, lr}
     6d6:	4b0a      	ldr	r3, [pc, #40]	; (700 <HalWlDmaIntrHandle+0x2c>)
     6d8:	6bdb      	ldr	r3, [r3, #60]	; 0x3c
     6da:	b143      	cbz	r3, 6ee <HalWlDmaIntrHandle+0x1a>
     6dc:	4a09      	ldr	r2, [pc, #36]	; (704 <HalWlDmaIntrHandle+0x30>)
     6de:	6bd0      	ldr	r0, [r2, #60]	; 0x3c
     6e0:	4798      	blx	r3
     6e2:	4b09      	ldr	r3, [pc, #36]	; (708 <HalWlDmaIntrHandle+0x34>)
     6e4:	f44f 4200 	mov.w	r2, #32768	; 0x8000
     6e8:	f8c3 2180 	str.w	r2, [r3, #384]	; 0x180
     6ec:	bd08      	pop	{r3, pc}
     6ee:	4b07      	ldr	r3, [pc, #28]	; (70c <HalWlDmaIntrHandle+0x38>)
     6f0:	681b      	ldr	r3, [r3, #0]
     6f2:	005b      	lsls	r3, r3, #1
     6f4:	d5f5      	bpl.n	6e2 <HalWlDmaIntrHandle+0xe>
     6f6:	210f      	movs	r1, #15
     6f8:	4b05      	ldr	r3, [pc, #20]	; (710 <HalWlDmaIntrHandle+0x3c>)
     6fa:	4806      	ldr	r0, [pc, #24]	; (714 <HalWlDmaIntrHandle+0x40>)
     6fc:	4798      	blx	r3
     6fe:	e7f0      	b.n	6e2 <HalWlDmaIntrHandle+0xe>
     700:	10000100 	.word	0x10000100
     704:	10000200 	.word	0x10000200
     708:	e000e100 	.word	0xe000e100
     70c:	10000314 	.word	0x10000314
     710:	000064f1 	.word	0x000064f1
     714:	10015298 	.word	0x10015298

00000718 <HalWlProtocolIntrHandle>:
     718:	b508      	push	{r3, lr}
     71a:	4b0a      	ldr	r3, [pc, #40]	; (744 <HalWlProtocolIntrHandle+0x2c>)
     71c:	6c1b      	ldr	r3, [r3, #64]	; 0x40
     71e:	b143      	cbz	r3, 732 <HalWlProtocolIntrHandle+0x1a>
     720:	4a09      	ldr	r2, [pc, #36]	; (748 <HalWlProtocolIntrHandle+0x30>)
     722:	6c10      	ldr	r0, [r2, #64]	; 0x40
     724:	4798      	blx	r3
     726:	4b09      	ldr	r3, [pc, #36]	; (74c <HalWlProtocolIntrHandle+0x34>)
     728:	f44f 3280 	mov.w	r2, #65536	; 0x10000
     72c:	f8c3 2180 	str.w	r2, [r3, #384]	; 0x180
     730:	bd08      	pop	{r3, pc}
     732:	4b07      	ldr	r3, [pc, #28]	; (750 <HalWlProtocolIntrHandle+0x38>)
     734:	681b      	ldr	r3, [r3, #0]
     736:	005b      	lsls	r3, r3, #1
     738:	d5f5      	bpl.n	726 <HalWlProtocolIntrHandle+0xe>
     73a:	2110      	movs	r1, #16
     73c:	4b05      	ldr	r3, [pc, #20]	; (754 <HalWlProtocolIntrHandle+0x3c>)
     73e:	4806      	ldr	r0, [pc, #24]	; (758 <HalWlProtocolIntrHandle+0x40>)
     740:	4798      	blx	r3
     742:	e7f0      	b.n	726 <HalWlProtocolIntrHandle+0xe>
     744:	10000100 	.word	0x10000100
     748:	10000200 	.word	0x10000200
     74c:	e000e100 	.word	0xe000e100
     750:	10000314 	.word	0x10000314
     754:	000064f1 	.word	0x000064f1
     758:	10015298 	.word	0x10015298

0000075c <HalCryptoIntrHandle>:
     75c:	b508      	push	{r3, lr}
     75e:	4b0a      	ldr	r3, [pc, #40]	; (788 <HalCryptoIntrHandle+0x2c>)
     760:	6c5b      	ldr	r3, [r3, #68]	; 0x44
     762:	b143      	cbz	r3, 776 <HalCryptoIntrHandle+0x1a>
     764:	4a09      	ldr	r2, [pc, #36]	; (78c <HalCryptoIntrHandle+0x30>)
     766:	6c50      	ldr	r0, [r2, #68]	; 0x44
     768:	4798      	blx	r3
     76a:	4b09      	ldr	r3, [pc, #36]	; (790 <HalCryptoIntrHandle+0x34>)
     76c:	f44f 3200 	mov.w	r2, #131072	; 0x20000
     770:	f8c3 2180 	str.w	r2, [r3, #384]	; 0x180
     774:	bd08      	pop	{r3, pc}
     776:	4b07      	ldr	r3, [pc, #28]	; (794 <HalCryptoIntrHandle+0x38>)
     778:	681b      	ldr	r3, [r3, #0]
     77a:	005b      	lsls	r3, r3, #1
     77c:	d5f5      	bpl.n	76a <HalCryptoIntrHandle+0xe>
     77e:	2111      	movs	r1, #17
     780:	4b05      	ldr	r3, [pc, #20]	; (798 <HalCryptoIntrHandle+0x3c>)
     782:	4806      	ldr	r0, [pc, #24]	; (79c <HalCryptoIntrHandle+0x40>)
     784:	4798      	blx	r3
     786:	e7f0      	b.n	76a <HalCryptoIntrHandle+0xe>
     788:	10000100 	.word	0x10000100
     78c:	10000200 	.word	0x10000200
     790:	e000e100 	.word	0xe000e100
     794:	10000314 	.word	0x10000314
     798:	000064f1 	.word	0x000064f1
     79c:	10015298 	.word	0x10015298

000007a0 <HalGmacIntrHandle>:
     7a0:	b508      	push	{r3, lr}
     7a2:	4b0a      	ldr	r3, [pc, #40]	; (7cc <HalGmacIntrHandle+0x2c>)
     7a4:	6c9b      	ldr	r3, [r3, #72]	; 0x48
     7a6:	b143      	cbz	r3, 7ba <HalGmacIntrHandle+0x1a>
     7a8:	4a09      	ldr	r2, [pc, #36]	; (7d0 <HalGmacIntrHandle+0x30>)
     7aa:	6c90      	ldr	r0, [r2, #72]	; 0x48
     7ac:	4798      	blx	r3
     7ae:	4b09      	ldr	r3, [pc, #36]	; (7d4 <HalGmacIntrHandle+0x34>)
     7b0:	f44f 2280 	mov.w	r2, #262144	; 0x40000
     7b4:	f8c3 2180 	str.w	r2, [r3, #384]	; 0x180
     7b8:	bd08      	pop	{r3, pc}
     7ba:	4b07      	ldr	r3, [pc, #28]	; (7d8 <HalGmacIntrHandle+0x38>)
     7bc:	681b      	ldr	r3, [r3, #0]
     7be:	005b      	lsls	r3, r3, #1
     7c0:	d5f5      	bpl.n	7ae <HalGmacIntrHandle+0xe>
     7c2:	2112      	movs	r1, #18
     7c4:	4b05      	ldr	r3, [pc, #20]	; (7dc <HalGmacIntrHandle+0x3c>)
     7c6:	4806      	ldr	r0, [pc, #24]	; (7e0 <HalGmacIntrHandle+0x40>)
     7c8:	4798      	blx	r3
     7ca:	e7f0      	b.n	7ae <HalGmacIntrHandle+0xe>
     7cc:	10000100 	.word	0x10000100
     7d0:	10000200 	.word	0x10000200
     7d4:	e000e100 	.word	0xe000e100
     7d8:	10000314 	.word	0x10000314
     7dc:	000064f1 	.word	0x000064f1
     7e0:	10015298 	.word	0x10015298

000007e4 <HalGdma0Ch0IntrHandle>:
     7e4:	b508      	push	{r3, lr}
     7e6:	4b0a      	ldr	r3, [pc, #40]	; (810 <HalGdma0Ch0IntrHandle+0x2c>)
     7e8:	6d1b      	ldr	r3, [r3, #80]	; 0x50
     7ea:	b143      	cbz	r3, 7fe <HalGdma0Ch0IntrHandle+0x1a>
     7ec:	4a09      	ldr	r2, [pc, #36]	; (814 <HalGdma0Ch0IntrHandle+0x30>)
     7ee:	6d10      	ldr	r0, [r2, #80]	; 0x50
     7f0:	4798      	blx	r3
     7f2:	4b09      	ldr	r3, [pc, #36]	; (818 <HalGdma0Ch0IntrHandle+0x34>)
     7f4:	f44f 1280 	mov.w	r2, #1048576	; 0x100000
     7f8:	f8c3 2180 	str.w	r2, [r3, #384]	; 0x180
     7fc:	bd08      	pop	{r3, pc}
     7fe:	4b07      	ldr	r3, [pc, #28]	; (81c <HalGdma0Ch0IntrHandle+0x38>)
     800:	681b      	ldr	r3, [r3, #0]
     802:	005b      	lsls	r3, r3, #1
     804:	d5f5      	bpl.n	7f2 <HalGdma0Ch0IntrHandle+0xe>
     806:	2114      	movs	r1, #20
     808:	4b05      	ldr	r3, [pc, #20]	; (820 <HalGdma0Ch0IntrHandle+0x3c>)
     80a:	4806      	ldr	r0, [pc, #24]	; (824 <HalGdma0Ch0IntrHandle+0x40>)
     80c:	4798      	blx	r3
     80e:	e7f0      	b.n	7f2 <HalGdma0Ch0IntrHandle+0xe>
     810:	10000100 	.word	0x10000100
     814:	10000200 	.word	0x10000200
     818:	e000e100 	.word	0xe000e100
     81c:	10000314 	.word	0x10000314
     820:	000064f1 	.word	0x000064f1
     824:	10015298 	.word	0x10015298

00000828 <HalGdma0Ch1IntrHandle>:
     828:	b508      	push	{r3, lr}
     82a:	4b0a      	ldr	r3, [pc, #40]	; (854 <HalGdma0Ch1IntrHandle+0x2c>)
     82c:	6d5b      	ldr	r3, [r3, #84]	; 0x54
     82e:	b143      	cbz	r3, 842 <HalGdma0Ch1IntrHandle+0x1a>
     830:	4a09      	ldr	r2, [pc, #36]	; (858 <HalGdma0Ch1IntrHandle+0x30>)
     832:	6d50      	ldr	r0, [r2, #84]	; 0x54
     834:	4798      	blx	r3
     836:	4b09      	ldr	r3, [pc, #36]	; (85c <HalGdma0Ch1IntrHandle+0x34>)
     838:	f44f 1200 	mov.w	r2, #2097152	; 0x200000
     83c:	f8c3 2180 	str.w	r2, [r3, #384]	; 0x180
     840:	bd08      	pop	{r3, pc}
     842:	4b07      	ldr	r3, [pc, #28]	; (860 <HalGdma0Ch1IntrHandle+0x38>)
     844:	681b      	ldr	r3, [r3, #0]
     846:	005b      	lsls	r3, r3, #1
     848:	d5f5      	bpl.n	836 <HalGdma0Ch1IntrHandle+0xe>
     84a:	2115      	movs	r1, #21
     84c:	4b05      	ldr	r3, [pc, #20]	; (864 <HalGdma0Ch1IntrHandle+0x3c>)
     84e:	4806      	ldr	r0, [pc, #24]	; (868 <HalGdma0Ch1IntrHandle+0x40>)
     850:	4798      	blx	r3
     852:	e7f0      	b.n	836 <HalGdma0Ch1IntrHandle+0xe>
     854:	10000100 	.word	0x10000100
     858:	10000200 	.word	0x10000200
     85c:	e000e100 	.word	0xe000e100
     860:	10000314 	.word	0x10000314
     864:	000064f1 	.word	0x000064f1
     868:	10015298 	.word	0x10015298

0000086c <HalGdma0Ch2IntrHandle>:
     86c:	b508      	push	{r3, lr}
     86e:	4b0a      	ldr	r3, [pc, #40]	; (898 <HalGdma0Ch2IntrHandle+0x2c>)
     870:	6d9b      	ldr	r3, [r3, #88]	; 0x58
     872:	b143      	cbz	r3, 886 <HalGdma0Ch2IntrHandle+0x1a>
     874:	4a09      	ldr	r2, [pc, #36]	; (89c <HalGdma0Ch2IntrHandle+0x30>)
     876:	6d90      	ldr	r0, [r2, #88]	; 0x58
     878:	4798      	blx	r3
     87a:	4b09      	ldr	r3, [pc, #36]	; (8a0 <HalGdma0Ch2IntrHandle+0x34>)
     87c:	f44f 0280 	mov.w	r2, #4194304	; 0x400000
     880:	f8c3 2180 	str.w	r2, [r3, #384]	; 0x180
     884:	bd08      	pop	{r3, pc}
     886:	4b07      	ldr	r3, [pc, #28]	; (8a4 <HalGdma0Ch2IntrHandle+0x38>)
     888:	681b      	ldr	r3, [r3, #0]
     88a:	005b      	lsls	r3, r3, #1
     88c:	d5f5      	bpl.n	87a <HalGdma0Ch2IntrHandle+0xe>
     88e:	2116      	movs	r1, #22
     890:	4b05      	ldr	r3, [pc, #20]	; (8a8 <HalGdma0Ch2IntrHandle+0x3c>)
     892:	4806      	ldr	r0, [pc, #24]	; (8ac <HalGdma0Ch2IntrHandle+0x40>)
     894:	4798      	blx	r3
     896:	e7f0      	b.n	87a <HalGdma0Ch2IntrHandle+0xe>
     898:	10000100 	.word	0x10000100
     89c:	10000200 	.word	0x10000200
     8a0:	e000e100 	.word	0xe000e100
     8a4:	10000314 	.word	0x10000314
     8a8:	000064f1 	.word	0x000064f1
     8ac:	10015298 	.word	0x10015298

000008b0 <HalGdma0Ch3IntrHandle>:
     8b0:	b508      	push	{r3, lr}
     8b2:	4b0a      	ldr	r3, [pc, #40]	; (8dc <HalGdma0Ch3IntrHandle+0x2c>)
     8b4:	6ddb      	ldr	r3, [r3, #92]	; 0x5c
     8b6:	b143      	cbz	r3, 8ca <HalGdma0Ch3IntrHandle+0x1a>
     8b8:	4a09      	ldr	r2, [pc, #36]	; (8e0 <HalGdma0Ch3IntrHandle+0x30>)
     8ba:	6dd0      	ldr	r0, [r2, #92]	; 0x5c
     8bc:	4798      	blx	r3
     8be:	4b09      	ldr	r3, [pc, #36]	; (8e4 <HalGdma0Ch3IntrHandle+0x34>)
     8c0:	f44f 0200 	mov.w	r2, #8388608	; 0x800000
     8c4:	f8c3 2180 	str.w	r2, [r3, #384]	; 0x180
     8c8:	bd08      	pop	{r3, pc}
     8ca:	4b07      	ldr	r3, [pc, #28]	; (8e8 <HalGdma0Ch3IntrHandle+0x38>)
     8cc:	681b      	ldr	r3, [r3, #0]
     8ce:	005b      	lsls	r3, r3, #1
     8d0:	d5f5      	bpl.n	8be <HalGdma0Ch3IntrHandle+0xe>
     8d2:	2117      	movs	r1, #23
     8d4:	4b05      	ldr	r3, [pc, #20]	; (8ec <HalGdma0Ch3IntrHandle+0x3c>)
     8d6:	4806      	ldr	r0, [pc, #24]	; (8f0 <HalGdma0Ch3IntrHandle+0x40>)
     8d8:	4798      	blx	r3
     8da:	e7f0      	b.n	8be <HalGdma0Ch3IntrHandle+0xe>
     8dc:	10000100 	.word	0x10000100
     8e0:	10000200 	.word	0x10000200
     8e4:	e000e100 	.word	0xe000e100
     8e8:	10000314 	.word	0x10000314
     8ec:	000064f1 	.word	0x000064f1
     8f0:	10015298 	.word	0x10015298

000008f4 <HalGdma0Ch4IntrHandle>:
     8f4:	b508      	push	{r3, lr}
     8f6:	4b0a      	ldr	r3, [pc, #40]	; (920 <HalGdma0Ch4IntrHandle+0x2c>)
     8f8:	6e1b      	ldr	r3, [r3, #96]	; 0x60
     8fa:	b143      	cbz	r3, 90e <HalGdma0Ch4IntrHandle+0x1a>
     8fc:	4a09      	ldr	r2, [pc, #36]	; (924 <HalGdma0Ch4IntrHandle+0x30>)
     8fe:	6e10      	ldr	r0, [r2, #96]	; 0x60
     900:	4798      	blx	r3
     902:	4b09      	ldr	r3, [pc, #36]	; (928 <HalGdma0Ch4IntrHandle+0x34>)
     904:	f04f 7280 	mov.w	r2, #16777216	; 0x1000000
     908:	f8c3 2180 	str.w	r2, [r3, #384]	; 0x180
     90c:	bd08      	pop	{r3, pc}
     90e:	4b07      	ldr	r3, [pc, #28]	; (92c <HalGdma0Ch4IntrHandle+0x38>)
     910:	681b      	ldr	r3, [r3, #0]
     912:	005b      	lsls	r3, r3, #1
     914:	d5f5      	bpl.n	902 <HalGdma0Ch4IntrHandle+0xe>
     916:	2118      	movs	r1, #24
     918:	4b05      	ldr	r3, [pc, #20]	; (930 <HalGdma0Ch4IntrHandle+0x3c>)
     91a:	4806      	ldr	r0, [pc, #24]	; (934 <HalGdma0Ch4IntrHandle+0x40>)
     91c:	4798      	blx	r3
     91e:	e7f0      	b.n	902 <HalGdma0Ch4IntrHandle+0xe>
     920:	10000100 	.word	0x10000100
     924:	10000200 	.word	0x10000200
     928:	e000e100 	.word	0xe000e100
     92c:	10000314 	.word	0x10000314
     930:	000064f1 	.word	0x000064f1
     934:	10015298 	.word	0x10015298

00000938 <HalGdma0Ch5IntrHandle>:
     938:	b508      	push	{r3, lr}
     93a:	4b0a      	ldr	r3, [pc, #40]	; (964 <HalGdma0Ch5IntrHandle+0x2c>)
     93c:	6e5b      	ldr	r3, [r3, #100]	; 0x64
     93e:	b143      	cbz	r3, 952 <HalGdma0Ch5IntrHandle+0x1a>
     940:	4a09      	ldr	r2, [pc, #36]	; (968 <HalGdma0Ch5IntrHandle+0x30>)
     942:	6e50      	ldr	r0, [r2, #100]	; 0x64
     944:	4798      	blx	r3
     946:	4b09      	ldr	r3, [pc, #36]	; (96c <HalGdma0Ch5IntrHandle+0x34>)
     948:	f04f 7200 	mov.w	r2, #33554432	; 0x2000000
     94c:	f8c3 2180 	str.w	r2, [r3, #384]	; 0x180
     950:	bd08      	pop	{r3, pc}
     952:	4b07      	ldr	r3, [pc, #28]	; (970 <HalGdma0Ch5IntrHandle+0x38>)
     954:	681b      	ldr	r3, [r3, #0]
     956:	005b      	lsls	r3, r3, #1
     958:	d5f5      	bpl.n	946 <HalGdma0Ch5IntrHandle+0xe>
     95a:	2119      	movs	r1, #25
     95c:	4b05      	ldr	r3, [pc, #20]	; (974 <HalGdma0Ch5IntrHandle+0x3c>)
     95e:	4806      	ldr	r0, [pc, #24]	; (978 <HalGdma0Ch5IntrHandle+0x40>)
     960:	4798      	blx	r3
     962:	e7f0      	b.n	946 <HalGdma0Ch5IntrHandle+0xe>
     964:	10000100 	.word	0x10000100
     968:	10000200 	.word	0x10000200
     96c:	e000e100 	.word	0xe000e100
     970:	10000314 	.word	0x10000314
     974:	000064f1 	.word	0x000064f1
     978:	10015298 	.word	0x10015298

0000097c <HalGdma1Ch0IntrHandle>:
     97c:	b508      	push	{r3, lr}
     97e:	4b0a      	ldr	r3, [pc, #40]	; (9a8 <HalGdma1Ch0IntrHandle+0x2c>)
     980:	6e9b      	ldr	r3, [r3, #104]	; 0x68
     982:	b143      	cbz	r3, 996 <HalGdma1Ch0IntrHandle+0x1a>
     984:	4a09      	ldr	r2, [pc, #36]	; (9ac <HalGdma1Ch0IntrHandle+0x30>)
     986:	6e90      	ldr	r0, [r2, #104]	; 0x68
     988:	4798      	blx	r3
     98a:	4b09      	ldr	r3, [pc, #36]	; (9b0 <HalGdma1Ch0IntrHandle+0x34>)
     98c:	f04f 6280 	mov.w	r2, #67108864	; 0x4000000
     990:	f8c3 2180 	str.w	r2, [r3, #384]	; 0x180
     994:	bd08      	pop	{r3, pc}
     996:	4b07      	ldr	r3, [pc, #28]	; (9b4 <HalGdma1Ch0IntrHandle+0x38>)
     998:	681b      	ldr	r3, [r3, #0]
     99a:	005b      	lsls	r3, r3, #1
     99c:	d5f5      	bpl.n	98a <HalGdma1Ch0IntrHandle+0xe>
     99e:	211a      	movs	r1, #26
     9a0:	4b05      	ldr	r3, [pc, #20]	; (9b8 <HalGdma1Ch0IntrHandle+0x3c>)
     9a2:	4806      	ldr	r0, [pc, #24]	; (9bc <HalGdma1Ch0IntrHandle+0x40>)
     9a4:	4798      	blx	r3
     9a6:	e7f0      	b.n	98a <HalGdma1Ch0IntrHandle+0xe>
     9a8:	10000100 	.word	0x10000100
     9ac:	10000200 	.word	0x10000200
     9b0:	e000e100 	.word	0xe000e100
     9b4:	10000314 	.word	0x10000314
     9b8:	000064f1 	.word	0x000064f1
     9bc:	10015298 	.word	0x10015298

000009c0 <HalGdma1Ch1IntrHandle>:
     9c0:	b508      	push	{r3, lr}
     9c2:	4b0a      	ldr	r3, [pc, #40]	; (9ec <HalGdma1Ch1IntrHandle+0x2c>)
     9c4:	6edb      	ldr	r3, [r3, #108]	; 0x6c
     9c6:	b143      	cbz	r3, 9da <HalGdma1Ch1IntrHandle+0x1a>
     9c8:	4a09      	ldr	r2, [pc, #36]	; (9f0 <HalGdma1Ch1IntrHandle+0x30>)
     9ca:	6ed0      	ldr	r0, [r2, #108]	; 0x6c
     9cc:	4798      	blx	r3
     9ce:	4b09      	ldr	r3, [pc, #36]	; (9f4 <HalGdma1Ch1IntrHandle+0x34>)
     9d0:	f04f 6200 	mov.w	r2, #134217728	; 0x8000000
     9d4:	f8c3 2180 	str.w	r2, [r3, #384]	; 0x180
     9d8:	bd08      	pop	{r3, pc}
     9da:	4b07      	ldr	r3, [pc, #28]	; (9f8 <HalGdma1Ch1IntrHandle+0x38>)
     9dc:	681b      	ldr	r3, [r3, #0]
     9de:	005b      	lsls	r3, r3, #1
     9e0:	d5f5      	bpl.n	9ce <HalGdma1Ch1IntrHandle+0xe>
     9e2:	211b      	movs	r1, #27
     9e4:	4b05      	ldr	r3, [pc, #20]	; (9fc <HalGdma1Ch1IntrHandle+0x3c>)
     9e6:	4806      	ldr	r0, [pc, #24]	; (a00 <HalGdma1Ch1IntrHandle+0x40>)
     9e8:	4798      	blx	r3
     9ea:	e7f0      	b.n	9ce <HalGdma1Ch1IntrHandle+0xe>
     9ec:	10000100 	.word	0x10000100
     9f0:	10000200 	.word	0x10000200
     9f4:	e000e100 	.word	0xe000e100
     9f8:	10000314 	.word	0x10000314
     9fc:	000064f1 	.word	0x000064f1
     a00:	10015298 	.word	0x10015298

00000a04 <HalGdma1Ch2IntrHandle>:
     a04:	b508      	push	{r3, lr}
     a06:	4b0a      	ldr	r3, [pc, #40]	; (a30 <HalGdma1Ch2IntrHandle+0x2c>)
     a08:	6f1b      	ldr	r3, [r3, #112]	; 0x70
     a0a:	b143      	cbz	r3, a1e <HalGdma1Ch2IntrHandle+0x1a>
     a0c:	4a09      	ldr	r2, [pc, #36]	; (a34 <HalGdma1Ch2IntrHandle+0x30>)
     a0e:	6f10      	ldr	r0, [r2, #112]	; 0x70
     a10:	4798      	blx	r3
     a12:	4b09      	ldr	r3, [pc, #36]	; (a38 <HalGdma1Ch2IntrHandle+0x34>)
     a14:	f04f 5280 	mov.w	r2, #268435456	; 0x10000000
     a18:	f8c3 2180 	str.w	r2, [r3, #384]	; 0x180
     a1c:	bd08      	pop	{r3, pc}
     a1e:	4b07      	ldr	r3, [pc, #28]	; (a3c <HalGdma1Ch2IntrHandle+0x38>)
     a20:	681b      	ldr	r3, [r3, #0]
     a22:	005b      	lsls	r3, r3, #1
     a24:	d5f5      	bpl.n	a12 <HalGdma1Ch2IntrHandle+0xe>
     a26:	211c      	movs	r1, #28
     a28:	4b05      	ldr	r3, [pc, #20]	; (a40 <HalGdma1Ch2IntrHandle+0x3c>)
     a2a:	4806      	ldr	r0, [pc, #24]	; (a44 <HalGdma1Ch2IntrHandle+0x40>)
     a2c:	4798      	blx	r3
     a2e:	e7f0      	b.n	a12 <HalGdma1Ch2IntrHandle+0xe>
     a30:	10000100 	.word	0x10000100
     a34:	10000200 	.word	0x10000200
     a38:	e000e100 	.word	0xe000e100
     a3c:	10000314 	.word	0x10000314
     a40:	000064f1 	.word	0x000064f1
     a44:	10015298 	.word	0x10015298

00000a48 <HalGdma1Ch3IntrHandle>:
     a48:	b508      	push	{r3, lr}
     a4a:	4b0a      	ldr	r3, [pc, #40]	; (a74 <HalGdma1Ch3IntrHandle+0x2c>)
     a4c:	6f5b      	ldr	r3, [r3, #116]	; 0x74
     a4e:	b143      	cbz	r3, a62 <HalGdma1Ch3IntrHandle+0x1a>
     a50:	4a09      	ldr	r2, [pc, #36]	; (a78 <HalGdma1Ch3IntrHandle+0x30>)
     a52:	6f50      	ldr	r0, [r2, #116]	; 0x74
     a54:	4798      	blx	r3
     a56:	4b09      	ldr	r3, [pc, #36]	; (a7c <HalGdma1Ch3IntrHandle+0x34>)
     a58:	f04f 5200 	mov.w	r2, #536870912	; 0x20000000
     a5c:	f8c3 2180 	str.w	r2, [r3, #384]	; 0x180
     a60:	bd08      	pop	{r3, pc}
     a62:	4b07      	ldr	r3, [pc, #28]	; (a80 <HalGdma1Ch3IntrHandle+0x38>)
     a64:	681b      	ldr	r3, [r3, #0]
     a66:	005b      	lsls	r3, r3, #1
     a68:	d5f5      	bpl.n	a56 <HalGdma1Ch3IntrHandle+0xe>
     a6a:	211d      	movs	r1, #29
     a6c:	4b05      	ldr	r3, [pc, #20]	; (a84 <HalGdma1Ch3IntrHandle+0x3c>)
     a6e:	4806      	ldr	r0, [pc, #24]	; (a88 <HalGdma1Ch3IntrHandle+0x40>)
     a70:	4798      	blx	r3
     a72:	e7f0      	b.n	a56 <HalGdma1Ch3IntrHandle+0xe>
     a74:	10000100 	.word	0x10000100
     a78:	10000200 	.word	0x10000200
     a7c:	e000e100 	.word	0xe000e100
     a80:	10000314 	.word	0x10000314
     a84:	000064f1 	.word	0x000064f1
     a88:	10015298 	.word	0x10015298

00000a8c <HalGdma1Ch4IntrHandle>:
     a8c:	b508      	push	{r3, lr}
     a8e:	4b0a      	ldr	r3, [pc, #40]	; (ab8 <HalGdma1Ch4IntrHandle+0x2c>)
     a90:	6f9b      	ldr	r3, [r3, #120]	; 0x78
     a92:	b143      	cbz	r3, aa6 <HalGdma1Ch4IntrHandle+0x1a>
     a94:	4a09      	ldr	r2, [pc, #36]	; (abc <HalGdma1Ch4IntrHandle+0x30>)
     a96:	6f90      	ldr	r0, [r2, #120]	; 0x78
     a98:	4798      	blx	r3
     a9a:	4b09      	ldr	r3, [pc, #36]	; (ac0 <HalGdma1Ch4IntrHandle+0x34>)
     a9c:	f04f 4280 	mov.w	r2, #1073741824	; 0x40000000
     aa0:	f8c3 2180 	str.w	r2, [r3, #384]	; 0x180
     aa4:	bd08      	pop	{r3, pc}
     aa6:	4b07      	ldr	r3, [pc, #28]	; (ac4 <HalGdma1Ch4IntrHandle+0x38>)
     aa8:	681b      	ldr	r3, [r3, #0]
     aaa:	005b      	lsls	r3, r3, #1
     aac:	d5f5      	bpl.n	a9a <HalGdma1Ch4IntrHandle+0xe>
     aae:	211e      	movs	r1, #30
     ab0:	4b05      	ldr	r3, [pc, #20]	; (ac8 <HalGdma1Ch4IntrHandle+0x3c>)
     ab2:	4806      	ldr	r0, [pc, #24]	; (acc <HalGdma1Ch4IntrHandle+0x40>)
     ab4:	4798      	blx	r3
     ab6:	e7f0      	b.n	a9a <HalGdma1Ch4IntrHandle+0xe>
     ab8:	10000100 	.word	0x10000100
     abc:	10000200 	.word	0x10000200
     ac0:	e000e100 	.word	0xe000e100
     ac4:	10000314 	.word	0x10000314
     ac8:	000064f1 	.word	0x000064f1
     acc:	10015298 	.word	0x10015298

00000ad0 <HalGdma1Ch5IntrHandle>:
     ad0:	b508      	push	{r3, lr}
     ad2:	4b0a      	ldr	r3, [pc, #40]	; (afc <HalGdma1Ch5IntrHandle+0x2c>)
     ad4:	6fdb      	ldr	r3, [r3, #124]	; 0x7c
     ad6:	b143      	cbz	r3, aea <HalGdma1Ch5IntrHandle+0x1a>
     ad8:	4a09      	ldr	r2, [pc, #36]	; (b00 <HalGdma1Ch5IntrHandle+0x30>)
     ada:	6fd0      	ldr	r0, [r2, #124]	; 0x7c
     adc:	4798      	blx	r3
     ade:	4b09      	ldr	r3, [pc, #36]	; (b04 <HalGdma1Ch5IntrHandle+0x34>)
     ae0:	f04f 4200 	mov.w	r2, #2147483648	; 0x80000000
     ae4:	f8c3 2180 	str.w	r2, [r3, #384]	; 0x180
     ae8:	bd08      	pop	{r3, pc}
     aea:	4b07      	ldr	r3, [pc, #28]	; (b08 <HalGdma1Ch5IntrHandle+0x38>)
     aec:	681b      	ldr	r3, [r3, #0]
     aee:	005b      	lsls	r3, r3, #1
     af0:	d5f5      	bpl.n	ade <HalGdma1Ch5IntrHandle+0xe>
     af2:	211f      	movs	r1, #31
     af4:	4b05      	ldr	r3, [pc, #20]	; (b0c <HalGdma1Ch5IntrHandle+0x3c>)
     af6:	4806      	ldr	r0, [pc, #24]	; (b10 <HalGdma1Ch5IntrHandle+0x40>)
     af8:	4798      	blx	r3
     afa:	e7f0      	b.n	ade <HalGdma1Ch5IntrHandle+0xe>
     afc:	10000100 	.word	0x10000100
     b00:	10000200 	.word	0x10000200
     b04:	e000e100 	.word	0xe000e100
     b08:	10000314 	.word	0x10000314
     b0c:	000064f1 	.word	0x000064f1
     b10:	10015298 	.word	0x10015298

00000b14 <HalSdioDeviceIntrHandle>:
     b14:	4b09      	ldr	r3, [pc, #36]	; (b3c <HalSdioDeviceIntrHandle+0x28>)
     b16:	4a0a      	ldr	r2, [pc, #40]	; (b40 <HalSdioDeviceIntrHandle+0x2c>)
     b18:	6b1b      	ldr	r3, [r3, #48]	; 0x30
     b1a:	f44f 5180 	mov.w	r1, #4096	; 0x1000
     b1e:	f8c2 1180 	str.w	r1, [r2, #384]	; 0x180
     b22:	b113      	cbz	r3, b2a <HalSdioDeviceIntrHandle+0x16>
     b24:	4a07      	ldr	r2, [pc, #28]	; (b44 <HalSdioDeviceIntrHandle+0x30>)
     b26:	6b10      	ldr	r0, [r2, #48]	; 0x30
     b28:	4718      	bx	r3
     b2a:	4b07      	ldr	r3, [pc, #28]	; (b48 <HalSdioDeviceIntrHandle+0x34>)
     b2c:	681b      	ldr	r3, [r3, #0]
     b2e:	005b      	lsls	r3, r3, #1
     b30:	d400      	bmi.n	b34 <HalSdioDeviceIntrHandle+0x20>
     b32:	4770      	bx	lr
     b34:	210c      	movs	r1, #12
     b36:	4805      	ldr	r0, [pc, #20]	; (b4c <HalSdioDeviceIntrHandle+0x38>)
     b38:	4b05      	ldr	r3, [pc, #20]	; (b50 <HalSdioDeviceIntrHandle+0x3c>)
     b3a:	4718      	bx	r3
     b3c:	10000100 	.word	0x10000100
     b40:	e000e100 	.word	0xe000e100
     b44:	10000200 	.word	0x10000200
     b48:	10000314 	.word	0x10000314
     b4c:	10015298 	.word	0x10015298
     b50:	000064f1 	.word	0x000064f1

00000b54 <VectorTableInitRtl8195A>:
     b54:	4a38      	ldr	r2, [pc, #224]	; (c38 <VectorTableInitRtl8195A+0xe4>)
     b56:	2304      	movs	r3, #4
     b58:	681b      	ldr	r3, [r3, #0]
     b5a:	2108      	movs	r1, #8
     b5c:	b4f0      	push	{r4, r5, r6, r7}
     b5e:	6809      	ldr	r1, [r1, #0]
     b60:	6010      	str	r0, [r2, #0]
     b62:	200c      	movs	r0, #12
     b64:	6807      	ldr	r7, [r0, #0]
     b66:	4e35      	ldr	r6, [pc, #212]	; (c3c <VectorTableInitRtl8195A+0xe8>)
     b68:	6053      	str	r3, [r2, #4]
     b6a:	4d35      	ldr	r5, [pc, #212]	; (c40 <VectorTableInitRtl8195A+0xec>)
     b6c:	4c35      	ldr	r4, [pc, #212]	; (c44 <VectorTableInitRtl8195A+0xf0>)
     b6e:	4836      	ldr	r0, [pc, #216]	; (c48 <VectorTableInitRtl8195A+0xf4>)
     b70:	4b36      	ldr	r3, [pc, #216]	; (c4c <VectorTableInitRtl8195A+0xf8>)
     b72:	6091      	str	r1, [r2, #8]
     b74:	4936      	ldr	r1, [pc, #216]	; (c50 <VectorTableInitRtl8195A+0xfc>)
     b76:	60d7      	str	r7, [r2, #12]
     b78:	6416      	str	r6, [r2, #64]	; 0x40
     b7a:	6455      	str	r5, [r2, #68]	; 0x44
     b7c:	6494      	str	r4, [r2, #72]	; 0x48
     b7e:	64d0      	str	r0, [r2, #76]	; 0x4c
     b80:	6513      	str	r3, [r2, #80]	; 0x50
     b82:	4f34      	ldr	r7, [pc, #208]	; (c54 <VectorTableInitRtl8195A+0x100>)
     b84:	4e34      	ldr	r6, [pc, #208]	; (c58 <VectorTableInitRtl8195A+0x104>)
     b86:	4d35      	ldr	r5, [pc, #212]	; (c5c <VectorTableInitRtl8195A+0x108>)
     b88:	4c35      	ldr	r4, [pc, #212]	; (c60 <VectorTableInitRtl8195A+0x10c>)
     b8a:	4836      	ldr	r0, [pc, #216]	; (c64 <VectorTableInitRtl8195A+0x110>)
     b8c:	4b36      	ldr	r3, [pc, #216]	; (c68 <VectorTableInitRtl8195A+0x114>)
     b8e:	6551      	str	r1, [r2, #84]	; 0x54
     b90:	4936      	ldr	r1, [pc, #216]	; (c6c <VectorTableInitRtl8195A+0x118>)
     b92:	6597      	str	r7, [r2, #88]	; 0x58
     b94:	65d6      	str	r6, [r2, #92]	; 0x5c
     b96:	6615      	str	r5, [r2, #96]	; 0x60
     b98:	6654      	str	r4, [r2, #100]	; 0x64
     b9a:	6690      	str	r0, [r2, #104]	; 0x68
     b9c:	66d3      	str	r3, [r2, #108]	; 0x6c
     b9e:	4f34      	ldr	r7, [pc, #208]	; (c70 <VectorTableInitRtl8195A+0x11c>)
     ba0:	4e34      	ldr	r6, [pc, #208]	; (c74 <VectorTableInitRtl8195A+0x120>)
     ba2:	4d35      	ldr	r5, [pc, #212]	; (c78 <VectorTableInitRtl8195A+0x124>)
     ba4:	4c35      	ldr	r4, [pc, #212]	; (c7c <VectorTableInitRtl8195A+0x128>)
     ba6:	4836      	ldr	r0, [pc, #216]	; (c80 <VectorTableInitRtl8195A+0x12c>)
     ba8:	4b36      	ldr	r3, [pc, #216]	; (c84 <VectorTableInitRtl8195A+0x130>)
     baa:	6711      	str	r1, [r2, #112]	; 0x70
     bac:	4936      	ldr	r1, [pc, #216]	; (c88 <VectorTableInitRtl8195A+0x134>)
     bae:	6757      	str	r7, [r2, #116]	; 0x74
     bb0:	6796      	str	r6, [r2, #120]	; 0x78
     bb2:	67d5      	str	r5, [r2, #124]	; 0x7c
     bb4:	f8c2 4080 	str.w	r4, [r2, #128]	; 0x80
     bb8:	f8c2 0084 	str.w	r0, [r2, #132]	; 0x84
     bbc:	f8c2 3088 	str.w	r3, [r2, #136]	; 0x88
     bc0:	4f32      	ldr	r7, [pc, #200]	; (c8c <VectorTableInitRtl8195A+0x138>)
     bc2:	4e33      	ldr	r6, [pc, #204]	; (c90 <VectorTableInitRtl8195A+0x13c>)
     bc4:	4d33      	ldr	r5, [pc, #204]	; (c94 <VectorTableInitRtl8195A+0x140>)
     bc6:	4c34      	ldr	r4, [pc, #208]	; (c98 <VectorTableInitRtl8195A+0x144>)
     bc8:	4834      	ldr	r0, [pc, #208]	; (c9c <VectorTableInitRtl8195A+0x148>)
     bca:	4b35      	ldr	r3, [pc, #212]	; (ca0 <VectorTableInitRtl8195A+0x14c>)
     bcc:	f8c2 108c 	str.w	r1, [r2, #140]	; 0x8c
     bd0:	4934      	ldr	r1, [pc, #208]	; (ca4 <VectorTableInitRtl8195A+0x150>)
     bd2:	f8c2 7090 	str.w	r7, [r2, #144]	; 0x90
     bd6:	f8c2 6094 	str.w	r6, [r2, #148]	; 0x94
     bda:	f8c2 5098 	str.w	r5, [r2, #152]	; 0x98
     bde:	f8c2 409c 	str.w	r4, [r2, #156]	; 0x9c
     be2:	4f31      	ldr	r7, [pc, #196]	; (ca8 <VectorTableInitRtl8195A+0x154>)
     be4:	f8c2 00a0 	str.w	r0, [r2, #160]	; 0xa0
     be8:	4c30      	ldr	r4, [pc, #192]	; (cac <VectorTableInitRtl8195A+0x158>)
     bea:	f8c2 30a4 	str.w	r3, [r2, #164]	; 0xa4
     bee:	4e30      	ldr	r6, [pc, #192]	; (cb0 <VectorTableInitRtl8195A+0x15c>)
     bf0:	4d30      	ldr	r5, [pc, #192]	; (cb4 <VectorTableInitRtl8195A+0x160>)
     bf2:	4831      	ldr	r0, [pc, #196]	; (cb8 <VectorTableInitRtl8195A+0x164>)
     bf4:	4b31      	ldr	r3, [pc, #196]	; (cbc <VectorTableInitRtl8195A+0x168>)
     bf6:	f8c2 10a8 	str.w	r1, [r2, #168]	; 0xa8
     bfa:	4931      	ldr	r1, [pc, #196]	; (cc0 <VectorTableInitRtl8195A+0x16c>)
     bfc:	f8c2 40b8 	str.w	r4, [r2, #184]	; 0xb8
     c00:	f8c2 70ac 	str.w	r7, [r2, #172]	; 0xac
     c04:	f8c2 60b0 	str.w	r6, [r2, #176]	; 0xb0
     c08:	f8c2 50b4 	str.w	r5, [r2, #180]	; 0xb4
     c0c:	f8c2 00bc 	str.w	r0, [r2, #188]	; 0xbc
     c10:	f503 7480 	add.w	r4, r3, #256	; 0x100
     c14:	2200      	movs	r2, #0
     c16:	f843 2f04 	str.w	r2, [r3, #4]!
     c1a:	42a3      	cmp	r3, r4
     c1c:	f841 2f04 	str.w	r2, [r1, #4]!
     c20:	f04f 0000 	mov.w	r0, #0
     c24:	d1f7      	bne.n	c16 <VectorTableInitRtl8195A+0xc2>
     c26:	4a27      	ldr	r2, [pc, #156]	; (cc4 <VectorTableInitRtl8195A+0x170>)
     c28:	4b27      	ldr	r3, [pc, #156]	; (cc8 <VectorTableInitRtl8195A+0x174>)
     c2a:	f04f 5180 	mov.w	r1, #268435456	; 0x10000000
     c2e:	6091      	str	r1, [r2, #8]
     c30:	bcf0      	pop	{r4, r5, r6, r7}
     c32:	6018      	str	r0, [r3, #0]
     c34:	4770      	bx	lr
     c36:	bf00      	nop
     c38:	10000000 	.word	0x10000000
     c3c:	00000321 	.word	0x00000321
     c40:	00000361 	.word	0x00000361
     c44:	000003a5 	.word	0x000003a5
     c48:	000003e9 	.word	0x000003e9
     c4c:	0000042d 	.word	0x0000042d
     c50:	00000471 	.word	0x00000471
     c54:	000004b5 	.word	0x000004b5
     c58:	000004f9 	.word	0x000004f9
     c5c:	0000053d 	.word	0x0000053d
     c60:	00000581 	.word	0x00000581
     c64:	000005c5 	.word	0x000005c5
     c68:	00000609 	.word	0x00000609
     c6c:	00000b15 	.word	0x00000b15
     c70:	0000064d 	.word	0x0000064d
     c74:	00000691 	.word	0x00000691
     c78:	000006d5 	.word	0x000006d5
     c7c:	00000719 	.word	0x00000719
     c80:	0000075d 	.word	0x0000075d
     c84:	000007a1 	.word	0x000007a1
     c88:	000002b1 	.word	0x000002b1
     c8c:	000007e5 	.word	0x000007e5
     c90:	00000829 	.word	0x00000829
     c94:	0000086d 	.word	0x0000086d
     c98:	000008b1 	.word	0x000008b1
     c9c:	000008f5 	.word	0x000008f5
     ca0:	00000939 	.word	0x00000939
     ca4:	0000097d 	.word	0x0000097d
     ca8:	000009c1 	.word	0x000009c1
     cac:	00000a8d 	.word	0x00000a8d
     cb0:	00000a05 	.word	0x00000a05
     cb4:	00000a49 	.word	0x00000a49
     cb8:	00000ad1 	.word	0x00000ad1
     cbc:	100000fc 	.word	0x100000fc
     cc0:	100001fc 	.word	0x100001fc
     cc4:	e000ed00 	.word	0xe000ed00
     cc8:	40002808 	.word	0x40002808

00000ccc <VectorTableInitForOSRtl8195A>:
     ccc:	4b02      	ldr	r3, [pc, #8]	; (cd8 <VectorTableInitForOSRtl8195A+0xc>)
     cce:	62d8      	str	r0, [r3, #44]	; 0x2c
     cd0:	6399      	str	r1, [r3, #56]	; 0x38
     cd2:	63da      	str	r2, [r3, #60]	; 0x3c
     cd4:	4770      	bx	lr
     cd6:	bf00      	nop
     cd8:	10000000 	.word	0x10000000

00000cdc <VectorIrqRegisterRtl8195A>:
     cdc:	6841      	ldr	r1, [r0, #4]
     cde:	4a10      	ldr	r2, [pc, #64]	; (d20 <VectorIrqRegisterRtl8195A+0x44>)
     ce0:	293f      	cmp	r1, #63	; 0x3f
     ce2:	bfd4      	ite	le
     ce4:	460b      	movle	r3, r1
     ce6:	f1a1 0320 	subgt.w	r3, r1, #32
     cea:	b510      	push	{r4, lr}
     cec:	f852 4023 	ldr.w	r4, [r2, r3, lsl #2]
     cf0:	b12c      	cbz	r4, cfe <VectorIrqRegisterRtl8195A+0x22>
     cf2:	4b0c      	ldr	r3, [pc, #48]	; (d24 <VectorIrqRegisterRtl8195A+0x48>)
     cf4:	480c      	ldr	r0, [pc, #48]	; (d28 <VectorIrqRegisterRtl8195A+0x4c>)
     cf6:	681b      	ldr	r3, [r3, #0]
     cf8:	4018      	ands	r0, r3
     cfa:	b958      	cbnz	r0, d14 <VectorIrqRegisterRtl8195A+0x38>
     cfc:	bd10      	pop	{r4, pc}
     cfe:	6801      	ldr	r1, [r0, #0]
     d00:	6884      	ldr	r4, [r0, #8]
     d02:	480a      	ldr	r0, [pc, #40]	; (d2c <VectorIrqRegisterRtl8195A+0x50>)
     d04:	f041 0101 	orr.w	r1, r1, #1
     d08:	f840 4023 	str.w	r4, [r0, r3, lsl #2]
     d0c:	f842 1023 	str.w	r1, [r2, r3, lsl #2]
     d10:	2001      	movs	r0, #1
     d12:	bd10      	pop	{r4, pc}
     d14:	4b06      	ldr	r3, [pc, #24]	; (d30 <VectorIrqRegisterRtl8195A+0x54>)
     d16:	4807      	ldr	r0, [pc, #28]	; (d34 <VectorIrqRegisterRtl8195A+0x58>)
     d18:	4798      	blx	r3
     d1a:	2000      	movs	r0, #0
     d1c:	bd10      	pop	{r4, pc}
     d1e:	bf00      	nop
     d20:	10000100 	.word	0x10000100
     d24:	10000314 	.word	0x10000314
     d28:	40002000 	.word	0x40002000
     d2c:	10000200 	.word	0x10000200
     d30:	000064f1 	.word	0x000064f1
     d34:	100152bc 	.word	0x100152bc

00000d38 <VectorIrqUnRegisterRtl8195A>:
     d38:	6841      	ldr	r1, [r0, #4]
     d3a:	4a0e      	ldr	r2, [pc, #56]	; (d74 <VectorIrqUnRegisterRtl8195A+0x3c>)
     d3c:	293f      	cmp	r1, #63	; 0x3f
     d3e:	bfd4      	ite	le
     d40:	460b      	movle	r3, r1
     d42:	f1a1 0320 	subgt.w	r3, r1, #32
     d46:	b510      	push	{r4, lr}
     d48:	f852 4023 	ldr.w	r4, [r2, r3, lsl #2]
     d4c:	b13c      	cbz	r4, d5e <VectorIrqUnRegisterRtl8195A+0x26>
     d4e:	480a      	ldr	r0, [pc, #40]	; (d78 <VectorIrqUnRegisterRtl8195A+0x40>)
     d50:	2100      	movs	r1, #0
     d52:	f840 1023 	str.w	r1, [r0, r3, lsl #2]
     d56:	f842 1023 	str.w	r1, [r2, r3, lsl #2]
     d5a:	2001      	movs	r0, #1
     d5c:	bd10      	pop	{r4, pc}
     d5e:	4b07      	ldr	r3, [pc, #28]	; (d7c <VectorIrqUnRegisterRtl8195A+0x44>)
     d60:	4807      	ldr	r0, [pc, #28]	; (d80 <VectorIrqUnRegisterRtl8195A+0x48>)
     d62:	681b      	ldr	r3, [r3, #0]
     d64:	4018      	ands	r0, r3
     d66:	b900      	cbnz	r0, d6a <VectorIrqUnRegisterRtl8195A+0x32>
     d68:	bd10      	pop	{r4, pc}
     d6a:	4806      	ldr	r0, [pc, #24]	; (d84 <VectorIrqUnRegisterRtl8195A+0x4c>)
     d6c:	4b06      	ldr	r3, [pc, #24]	; (d88 <VectorIrqUnRegisterRtl8195A+0x50>)
     d6e:	4798      	blx	r3
     d70:	4620      	mov	r0, r4
     d72:	e7f9      	b.n	d68 <VectorIrqUnRegisterRtl8195A+0x30>
     d74:	10000100 	.word	0x10000100
     d78:	10000200 	.word	0x10000200
     d7c:	10000314 	.word	0x10000314
     d80:	40002000 	.word	0x40002000
     d84:	100152ec 	.word	0x100152ec
     d88:	000064f1 	.word	0x000064f1

00000d8c <VectorIrqEnRtl8195A>:
     d8c:	6843      	ldr	r3, [r0, #4]
     d8e:	b470      	push	{r4, r5, r6}
     d90:	2b3f      	cmp	r3, #63	; 0x3f
     d92:	dd1f      	ble.n	dd4 <VectorIrqEnRtl8195A+0x48>
     d94:	4a1d      	ldr	r2, [pc, #116]	; (e0c <VectorIrqEnRtl8195A+0x80>)
     d96:	4d1e      	ldr	r5, [pc, #120]	; (e10 <VectorIrqEnRtl8195A+0x84>)
     d98:	6811      	ldr	r1, [r2, #0]
     d9a:	3b40      	subs	r3, #64	; 0x40
     d9c:	6011      	str	r1, [r2, #0]
     d9e:	682a      	ldr	r2, [r5, #0]
     da0:	2101      	movs	r1, #1
     da2:	fa01 f303 	lsl.w	r3, r1, r3
     da6:	491b      	ldr	r1, [pc, #108]	; (e14 <VectorIrqEnRtl8195A+0x88>)
     da8:	4313      	orrs	r3, r2
     daa:	f44f 2400 	mov.w	r4, #524288	; 0x80000
     dae:	602b      	str	r3, [r5, #0]
     db0:	f8c1 4180 	str.w	r4, [r1, #384]	; 0x180
     db4:	68c2      	ldr	r2, [r0, #12]
     db6:	2500      	movs	r5, #0
     db8:	2113      	movs	r1, #19
     dba:	0112      	lsls	r2, r2, #4
     dbc:	f101 4360 	add.w	r3, r1, #3758096384	; 0xe0000000
     dc0:	f503 4361 	add.w	r3, r3, #57600	; 0xe100
     dc4:	b2d2      	uxtb	r2, r2
     dc6:	f883 2300 	strb.w	r2, [r3, #768]	; 0x300
     dca:	4b12      	ldr	r3, [pc, #72]	; (e14 <VectorIrqEnRtl8195A+0x88>)
     dcc:	f843 4025 	str.w	r4, [r3, r5, lsl #2]
     dd0:	bc70      	pop	{r4, r5, r6}
     dd2:	4770      	bx	lr
     dd4:	4a0f      	ldr	r2, [pc, #60]	; (e14 <VectorIrqEnRtl8195A+0x88>)
     dd6:	095d      	lsrs	r5, r3, #5
     dd8:	f003 041f 	and.w	r4, r3, #31
     ddc:	2601      	movs	r6, #1
     dde:	f105 0160 	add.w	r1, r5, #96	; 0x60
     de2:	fa06 f404 	lsl.w	r4, r6, r4
     de6:	f842 4021 	str.w	r4, [r2, r1, lsl #2]
     dea:	2b00      	cmp	r3, #0
     dec:	68c2      	ldr	r2, [r0, #12]
     dee:	4619      	mov	r1, r3
     df0:	dae3      	bge.n	dba <VectorIrqEnRtl8195A+0x2e>
     df2:	4909      	ldr	r1, [pc, #36]	; (e18 <VectorIrqEnRtl8195A+0x8c>)
     df4:	f003 030f 	and.w	r3, r3, #15
     df8:	0112      	lsls	r2, r2, #4
     dfa:	4419      	add	r1, r3
     dfc:	b2d2      	uxtb	r2, r2
     dfe:	4b05      	ldr	r3, [pc, #20]	; (e14 <VectorIrqEnRtl8195A+0x88>)
     e00:	760a      	strb	r2, [r1, #24]
     e02:	f843 4025 	str.w	r4, [r3, r5, lsl #2]
     e06:	bc70      	pop	{r4, r5, r6}
     e08:	4770      	bx	lr
     e0a:	bf00      	nop
     e0c:	40002804 	.word	0x40002804
     e10:	4000280c 	.word	0x4000280c
     e14:	e000e100 	.word	0xe000e100
     e18:	e000ecfc 	.word	0xe000ecfc

00000e1c <VectorIrqDisRtl8195A>:
     e1c:	6842      	ldr	r2, [r0, #4]
     e1e:	2a3f      	cmp	r2, #63	; 0x3f
     e20:	dd13      	ble.n	e4a <VectorIrqDisRtl8195A+0x2e>
     e22:	481f      	ldr	r0, [pc, #124]	; (ea0 <VectorIrqDisRtl8195A+0x84>)
     e24:	2301      	movs	r3, #1
     e26:	6801      	ldr	r1, [r0, #0]
     e28:	3a40      	subs	r2, #64	; 0x40
     e2a:	fa03 f202 	lsl.w	r2, r3, r2
     e2e:	4b1d      	ldr	r3, [pc, #116]	; (ea4 <VectorIrqDisRtl8195A+0x88>)
     e30:	ea21 0202 	bic.w	r2, r1, r2
     e34:	6002      	str	r2, [r0, #0]
     e36:	f503 7180 	add.w	r1, r3, #256	; 0x100
     e3a:	e001      	b.n	e40 <VectorIrqDisRtl8195A+0x24>
     e3c:	428b      	cmp	r3, r1
     e3e:	d02b      	beq.n	e98 <VectorIrqDisRtl8195A+0x7c>
     e40:	f853 2f04 	ldr.w	r2, [r3, #4]!
     e44:	2a00      	cmp	r2, #0
     e46:	d0f9      	beq.n	e3c <VectorIrqDisRtl8195A+0x20>
     e48:	4770      	bx	lr
     e4a:	1e13      	subs	r3, r2, #0
     e4c:	db11      	blt.n	e72 <VectorIrqDisRtl8195A+0x56>
     e4e:	2201      	movs	r2, #1
     e50:	f003 011f 	and.w	r1, r3, #31
     e54:	fa02 f101 	lsl.w	r1, r2, r1
     e58:	095a      	lsrs	r2, r3, #5
     e5a:	f103 4360 	add.w	r3, r3, #3758096384	; 0xe0000000
     e5e:	f503 4361 	add.w	r3, r3, #57600	; 0xe100
     e62:	2000      	movs	r0, #0
     e64:	f883 0300 	strb.w	r0, [r3, #768]	; 0x300
     e68:	4b0f      	ldr	r3, [pc, #60]	; (ea8 <VectorIrqDisRtl8195A+0x8c>)
     e6a:	3220      	adds	r2, #32
     e6c:	f843 1022 	str.w	r1, [r3, r2, lsl #2]
     e70:	4770      	bx	lr
     e72:	480e      	ldr	r0, [pc, #56]	; (eac <VectorIrqDisRtl8195A+0x90>)
     e74:	f002 030f 	and.w	r3, r2, #15
     e78:	4418      	add	r0, r3
     e7a:	f002 011f 	and.w	r1, r2, #31
     e7e:	2301      	movs	r3, #1
     e80:	b410      	push	{r4}
     e82:	fa03 f101 	lsl.w	r1, r3, r1
     e86:	2400      	movs	r4, #0
     e88:	0952      	lsrs	r2, r2, #5
     e8a:	4b07      	ldr	r3, [pc, #28]	; (ea8 <VectorIrqDisRtl8195A+0x8c>)
     e8c:	7604      	strb	r4, [r0, #24]
     e8e:	3220      	adds	r2, #32
     e90:	f843 1022 	str.w	r1, [r3, r2, lsl #2]
     e94:	bc10      	pop	{r4}
     e96:	4770      	bx	lr
     e98:	f44f 2100 	mov.w	r1, #524288	; 0x80000
     e9c:	2313      	movs	r3, #19
     e9e:	e7dc      	b.n	e5a <VectorIrqDisRtl8195A+0x3e>
     ea0:	4000280c 	.word	0x4000280c
     ea4:	100000fc 	.word	0x100000fc
     ea8:	e000e100 	.word	0xe000e100
     eac:	e000ecfc 	.word	0xe000ecfc

00000eb0 <GPIOCtrl.part.0>:
     eb0:	b470      	push	{r4, r5, r6}
     eb2:	4e07      	ldr	r6, [pc, #28]	; (ed0 <GPIOCtrl.part.0+0x20>)
     eb4:	4d07      	ldr	r5, [pc, #28]	; (ed4 <GPIOCtrl.part.0+0x24>)
     eb6:	f836 2010 	ldrh.w	r2, [r6, r0, lsl #1]
     eba:	682b      	ldr	r3, [r5, #0]
     ebc:	2401      	movs	r4, #1
     ebe:	4084      	lsls	r4, r0
     ec0:	4323      	orrs	r3, r4
     ec2:	4311      	orrs	r1, r2
     ec4:	f826 1010 	strh.w	r1, [r6, r0, lsl #1]
     ec8:	602b      	str	r3, [r5, #0]
     eca:	bc70      	pop	{r4, r5, r6}
     ecc:	4770      	bx	lr
     ece:	bf00      	nop
     ed0:	1000031c 	.word	0x1000031c
     ed4:	40000320 	.word	0x40000320

00000ed8 <GPIOCtrl>:
     ed8:	b9a2      	cbnz	r2, f04 <GPIOCtrl+0x2c>
     eda:	b410      	push	{r4}
     edc:	460c      	mov	r4, r1
     ede:	4a0a      	ldr	r2, [pc, #40]	; (f08 <GPIOCtrl+0x30>)
     ee0:	4603      	mov	r3, r0
     ee2:	f832 1010 	ldrh.w	r1, [r2, r0, lsl #1]
     ee6:	ea21 0104 	bic.w	r1, r1, r4
     eea:	f822 1010 	strh.w	r1, [r2, r0, lsl #1]
     eee:	b939      	cbnz	r1, f00 <GPIOCtrl+0x28>
     ef0:	4806      	ldr	r0, [pc, #24]	; (f0c <GPIOCtrl+0x34>)
     ef2:	2101      	movs	r1, #1
     ef4:	6802      	ldr	r2, [r0, #0]
     ef6:	fa01 f303 	lsl.w	r3, r1, r3
     efa:	ea22 0303 	bic.w	r3, r2, r3
     efe:	6003      	str	r3, [r0, #0]
     f00:	bc10      	pop	{r4}
     f02:	4770      	bx	lr
     f04:	e7d4      	b.n	eb0 <GPIOCtrl.part.0>
     f06:	bf00      	nop
     f08:	1000031c 	.word	0x1000031c
     f0c:	40000320 	.word	0x40000320

00000f10 <HalUart0PinCtrlRtl8195A>:
     f10:	2801      	cmp	r0, #1
     f12:	b510      	push	{r4, lr}
     f14:	4604      	mov	r4, r0
     f16:	d02e      	beq.n	f76 <HalUart0PinCtrlRtl8195A+0x66>
     f18:	d315      	bcc.n	f46 <HalUart0PinCtrlRtl8195A+0x36>
     f1a:	2802      	cmp	r0, #2
     f1c:	d00b      	beq.n	f36 <HalUart0PinCtrlRtl8195A+0x26>
     f1e:	b981      	cbnz	r1, f42 <HalUart0PinCtrlRtl8195A+0x32>
     f20:	4b26      	ldr	r3, [pc, #152]	; (fbc <HalUart0PinCtrlRtl8195A+0xac>)
     f22:	2001      	movs	r0, #1
     f24:	681a      	ldr	r2, [r3, #0]
     f26:	f022 020e 	bic.w	r2, r2, #14
     f2a:	601a      	str	r2, [r3, #0]
     f2c:	681a      	ldr	r2, [r3, #0]
     f2e:	f022 0201 	bic.w	r2, r2, #1
     f32:	601a      	str	r2, [r3, #0]
     f34:	bd10      	pop	{r4, pc}
     f36:	b379      	cbz	r1, f98 <HalUart0PinCtrlRtl8195A+0x88>
     f38:	4b21      	ldr	r3, [pc, #132]	; (fc0 <HalUart0PinCtrlRtl8195A+0xb0>)
     f3a:	8818      	ldrh	r0, [r3, #0]
     f3c:	f010 00e8 	ands.w	r0, r0, #232	; 0xe8
     f40:	d036      	beq.n	fb0 <HalUart0PinCtrlRtl8195A+0xa0>
     f42:	2000      	movs	r0, #0
     f44:	bd10      	pop	{r4, pc}
     f46:	b309      	cbz	r1, f8c <HalUart0PinCtrlRtl8195A+0x7c>
     f48:	4b1d      	ldr	r3, [pc, #116]	; (fc0 <HalUart0PinCtrlRtl8195A+0xb0>)
     f4a:	889b      	ldrh	r3, [r3, #4]
     f4c:	071a      	lsls	r2, r3, #28
     f4e:	d1f8      	bne.n	f42 <HalUart0PinCtrlRtl8195A+0x32>
     f50:	460a      	mov	r2, r1
     f52:	2002      	movs	r0, #2
     f54:	210f      	movs	r1, #15
     f56:	f7ff ffbf 	bl	ed8 <GPIOCtrl>
     f5a:	4a18      	ldr	r2, [pc, #96]	; (fbc <HalUart0PinCtrlRtl8195A+0xac>)
     f5c:	0064      	lsls	r4, r4, #1
     f5e:	6813      	ldr	r3, [r2, #0]
     f60:	f004 040e 	and.w	r4, r4, #14
     f64:	f023 030e 	bic.w	r3, r3, #14
     f68:	431c      	orrs	r4, r3
     f6a:	6014      	str	r4, [r2, #0]
     f6c:	6813      	ldr	r3, [r2, #0]
     f6e:	2001      	movs	r0, #1
     f70:	4303      	orrs	r3, r0
     f72:	6013      	str	r3, [r2, #0]
     f74:	bd10      	pop	{r4, pc}
     f76:	b1a9      	cbz	r1, fa4 <HalUart0PinCtrlRtl8195A+0x94>
     f78:	4b11      	ldr	r3, [pc, #68]	; (fc0 <HalUart0PinCtrlRtl8195A+0xb0>)
     f7a:	891b      	ldrh	r3, [r3, #8]
     f7c:	071b      	lsls	r3, r3, #28
     f7e:	d1e0      	bne.n	f42 <HalUart0PinCtrlRtl8195A+0x32>
     f80:	460a      	mov	r2, r1
     f82:	2004      	movs	r0, #4
     f84:	210f      	movs	r1, #15
     f86:	f7ff ffa7 	bl	ed8 <GPIOCtrl>
     f8a:	e7e6      	b.n	f5a <HalUart0PinCtrlRtl8195A+0x4a>
     f8c:	460a      	mov	r2, r1
     f8e:	2002      	movs	r0, #2
     f90:	210f      	movs	r1, #15
     f92:	f7ff ffa1 	bl	ed8 <GPIOCtrl>
     f96:	e7c3      	b.n	f20 <HalUart0PinCtrlRtl8195A+0x10>
     f98:	460a      	mov	r2, r1
     f9a:	4608      	mov	r0, r1
     f9c:	21e8      	movs	r1, #232	; 0xe8
     f9e:	f7ff ff9b 	bl	ed8 <GPIOCtrl>
     fa2:	e7bd      	b.n	f20 <HalUart0PinCtrlRtl8195A+0x10>
     fa4:	460a      	mov	r2, r1
     fa6:	2004      	movs	r0, #4
     fa8:	210f      	movs	r1, #15
     faa:	f7ff ff95 	bl	ed8 <GPIOCtrl>
     fae:	e7b7      	b.n	f20 <HalUart0PinCtrlRtl8195A+0x10>
     fb0:	460a      	mov	r2, r1
     fb2:	21e8      	movs	r1, #232	; 0xe8
     fb4:	f7ff ff90 	bl	ed8 <GPIOCtrl>
     fb8:	e7cf      	b.n	f5a <HalUart0PinCtrlRtl8195A+0x4a>
     fba:	bf00      	nop
     fbc:	40000280 	.word	0x40000280
     fc0:	1000031c 	.word	0x1000031c

00000fc4 <HalUart1PinCtrlRtl8195A>:
     fc4:	2801      	cmp	r0, #1
     fc6:	b510      	push	{r4, lr}
     fc8:	4604      	mov	r4, r0
     fca:	d030      	beq.n	102e <HalUart1PinCtrlRtl8195A+0x6a>
     fcc:	d317      	bcc.n	ffe <HalUart1PinCtrlRtl8195A+0x3a>
     fce:	2802      	cmp	r0, #2
     fd0:	d00b      	beq.n	fea <HalUart1PinCtrlRtl8195A+0x26>
     fd2:	b991      	cbnz	r1, ffa <HalUart1PinCtrlRtl8195A+0x36>
     fd4:	4b28      	ldr	r3, [pc, #160]	; (1078 <HalUart1PinCtrlRtl8195A+0xb4>)
     fd6:	2001      	movs	r0, #1
     fd8:	681a      	ldr	r2, [r3, #0]
     fda:	f022 02e0 	bic.w	r2, r2, #224	; 0xe0
     fde:	601a      	str	r2, [r3, #0]
     fe0:	681a      	ldr	r2, [r3, #0]
     fe2:	f022 0210 	bic.w	r2, r2, #16
     fe6:	601a      	str	r2, [r3, #0]
     fe8:	bd10      	pop	{r4, pc}
     fea:	2900      	cmp	r1, #0
     fec:	d032      	beq.n	1054 <HalUart1PinCtrlRtl8195A+0x90>
     fee:	4b23      	ldr	r3, [pc, #140]	; (107c <HalUart1PinCtrlRtl8195A+0xb8>)
     ff0:	885b      	ldrh	r3, [r3, #2]
     ff2:	f003 03f0 	and.w	r3, r3, #240	; 0xf0
     ff6:	2b00      	cmp	r3, #0
     ff8:	d038      	beq.n	106c <HalUart1PinCtrlRtl8195A+0xa8>
     ffa:	2000      	movs	r0, #0
     ffc:	bd10      	pop	{r4, pc}
     ffe:	b319      	cbz	r1, 1048 <HalUart1PinCtrlRtl8195A+0x84>
    1000:	4b1e      	ldr	r3, [pc, #120]	; (107c <HalUart1PinCtrlRtl8195A+0xb8>)
    1002:	88db      	ldrh	r3, [r3, #6]
    1004:	071b      	lsls	r3, r3, #28
    1006:	d1f8      	bne.n	ffa <HalUart1PinCtrlRtl8195A+0x36>
    1008:	460a      	mov	r2, r1
    100a:	2003      	movs	r0, #3
    100c:	210f      	movs	r1, #15
    100e:	f7ff ff63 	bl	ed8 <GPIOCtrl>
    1012:	4a19      	ldr	r2, [pc, #100]	; (1078 <HalUart1PinCtrlRtl8195A+0xb4>)
    1014:	0164      	lsls	r4, r4, #5
    1016:	6813      	ldr	r3, [r2, #0]
    1018:	b2e4      	uxtb	r4, r4
    101a:	f023 03e0 	bic.w	r3, r3, #224	; 0xe0
    101e:	431c      	orrs	r4, r3
    1020:	6014      	str	r4, [r2, #0]
    1022:	6813      	ldr	r3, [r2, #0]
    1024:	2001      	movs	r0, #1
    1026:	f043 0310 	orr.w	r3, r3, #16
    102a:	6013      	str	r3, [r2, #0]
    102c:	bd10      	pop	{r4, pc}
    102e:	b1b9      	cbz	r1, 1060 <HalUart1PinCtrlRtl8195A+0x9c>
    1030:	4b12      	ldr	r3, [pc, #72]	; (107c <HalUart1PinCtrlRtl8195A+0xb8>)
    1032:	891b      	ldrh	r3, [r3, #8]
    1034:	f003 03f0 	and.w	r3, r3, #240	; 0xf0
    1038:	2b00      	cmp	r3, #0
    103a:	d1de      	bne.n	ffa <HalUart1PinCtrlRtl8195A+0x36>
    103c:	460a      	mov	r2, r1
    103e:	2004      	movs	r0, #4
    1040:	21f0      	movs	r1, #240	; 0xf0
    1042:	f7ff ff49 	bl	ed8 <GPIOCtrl>
    1046:	e7e4      	b.n	1012 <HalUart1PinCtrlRtl8195A+0x4e>
    1048:	460a      	mov	r2, r1
    104a:	2003      	movs	r0, #3
    104c:	210f      	movs	r1, #15
    104e:	f7ff ff43 	bl	ed8 <GPIOCtrl>
    1052:	e7bf      	b.n	fd4 <HalUart1PinCtrlRtl8195A+0x10>
    1054:	460a      	mov	r2, r1
    1056:	2001      	movs	r0, #1
    1058:	21f0      	movs	r1, #240	; 0xf0
    105a:	f7ff ff3d 	bl	ed8 <GPIOCtrl>
    105e:	e7b9      	b.n	fd4 <HalUart1PinCtrlRtl8195A+0x10>
    1060:	460a      	mov	r2, r1
    1062:	2004      	movs	r0, #4
    1064:	21f0      	movs	r1, #240	; 0xf0
    1066:	f7ff ff37 	bl	ed8 <GPIOCtrl>
    106a:	e7b3      	b.n	fd4 <HalUart1PinCtrlRtl8195A+0x10>
    106c:	460a      	mov	r2, r1
    106e:	2001      	movs	r0, #1
    1070:	21f0      	movs	r1, #240	; 0xf0
    1072:	f7ff ff31 	bl	ed8 <GPIOCtrl>
    1076:	e7cc      	b.n	1012 <HalUart1PinCtrlRtl8195A+0x4e>
    1078:	40000280 	.word	0x40000280
    107c:	1000031c 	.word	0x1000031c

00001080 <HalUart2PinCtrlRtl8195A>:
    1080:	2801      	cmp	r0, #1
    1082:	b510      	push	{r4, lr}
    1084:	4604      	mov	r4, r0
    1086:	d031      	beq.n	10ec <HalUart2PinCtrlRtl8195A+0x6c>
    1088:	d317      	bcc.n	10ba <HalUart2PinCtrlRtl8195A+0x3a>
    108a:	2802      	cmp	r0, #2
    108c:	d00b      	beq.n	10a6 <HalUart2PinCtrlRtl8195A+0x26>
    108e:	b991      	cbnz	r1, 10b6 <HalUart2PinCtrlRtl8195A+0x36>
    1090:	4b2a      	ldr	r3, [pc, #168]	; (113c <HalUart2PinCtrlRtl8195A+0xbc>)
    1092:	2001      	movs	r0, #1
    1094:	681a      	ldr	r2, [r3, #0]
    1096:	f422 6260 	bic.w	r2, r2, #3584	; 0xe00
    109a:	601a      	str	r2, [r3, #0]
    109c:	681a      	ldr	r2, [r3, #0]
    109e:	f422 7280 	bic.w	r2, r2, #256	; 0x100
    10a2:	601a      	str	r2, [r3, #0]
    10a4:	bd10      	pop	{r4, pc}
    10a6:	2900      	cmp	r1, #0
    10a8:	d034      	beq.n	1114 <HalUart2PinCtrlRtl8195A+0x94>
    10aa:	4b25      	ldr	r3, [pc, #148]	; (1140 <HalUart2PinCtrlRtl8195A+0xc0>)
    10ac:	88db      	ldrh	r3, [r3, #6]
    10ae:	f003 03f0 	and.w	r3, r3, #240	; 0xf0
    10b2:	2b00      	cmp	r3, #0
    10b4:	d03b      	beq.n	112e <HalUart2PinCtrlRtl8195A+0xae>
    10b6:	2000      	movs	r0, #0
    10b8:	bd10      	pop	{r4, pc}
    10ba:	b329      	cbz	r1, 1108 <HalUart2PinCtrlRtl8195A+0x88>
    10bc:	4b20      	ldr	r3, [pc, #128]	; (1140 <HalUart2PinCtrlRtl8195A+0xc0>)
    10be:	8818      	ldrh	r0, [r3, #0]
    10c0:	f010 0017 	ands.w	r0, r0, #23
    10c4:	d1f7      	bne.n	10b6 <HalUart2PinCtrlRtl8195A+0x36>
    10c6:	460a      	mov	r2, r1
    10c8:	2117      	movs	r1, #23
    10ca:	f7ff ff05 	bl	ed8 <GPIOCtrl>
    10ce:	4a1b      	ldr	r2, [pc, #108]	; (113c <HalUart2PinCtrlRtl8195A+0xbc>)
    10d0:	0264      	lsls	r4, r4, #9
    10d2:	6813      	ldr	r3, [r2, #0]
    10d4:	f404 6460 	and.w	r4, r4, #3584	; 0xe00
    10d8:	f423 6360 	bic.w	r3, r3, #3584	; 0xe00
    10dc:	431c      	orrs	r4, r3
    10de:	6014      	str	r4, [r2, #0]
    10e0:	6813      	ldr	r3, [r2, #0]
    10e2:	2001      	movs	r0, #1
    10e4:	f443 7380 	orr.w	r3, r3, #256	; 0x100
    10e8:	6013      	str	r3, [r2, #0]
    10ea:	bd10      	pop	{r4, pc}
    10ec:	b1c1      	cbz	r1, 1120 <HalUart2PinCtrlRtl8195A+0xa0>
    10ee:	4b14      	ldr	r3, [pc, #80]	; (1140 <HalUart2PinCtrlRtl8195A+0xc0>)
    10f0:	889b      	ldrh	r3, [r3, #4]
    10f2:	f403 7370 	and.w	r3, r3, #960	; 0x3c0
    10f6:	2b00      	cmp	r3, #0
    10f8:	d1dd      	bne.n	10b6 <HalUart2PinCtrlRtl8195A+0x36>
    10fa:	460a      	mov	r2, r1
    10fc:	2002      	movs	r0, #2
    10fe:	f44f 7170 	mov.w	r1, #960	; 0x3c0
    1102:	f7ff fee9 	bl	ed8 <GPIOCtrl>
    1106:	e7e2      	b.n	10ce <HalUart2PinCtrlRtl8195A+0x4e>
    1108:	460a      	mov	r2, r1
    110a:	4608      	mov	r0, r1
    110c:	2117      	movs	r1, #23
    110e:	f7ff fee3 	bl	ed8 <GPIOCtrl>
    1112:	e7bd      	b.n	1090 <HalUart2PinCtrlRtl8195A+0x10>
    1114:	460a      	mov	r2, r1
    1116:	2003      	movs	r0, #3
    1118:	21f0      	movs	r1, #240	; 0xf0
    111a:	f7ff fedd 	bl	ed8 <GPIOCtrl>
    111e:	e7b7      	b.n	1090 <HalUart2PinCtrlRtl8195A+0x10>
    1120:	460a      	mov	r2, r1
    1122:	2002      	movs	r0, #2
    1124:	f44f 7170 	mov.w	r1, #960	; 0x3c0
    1128:	f7ff fed6 	bl	ed8 <GPIOCtrl>
    112c:	e7b0      	b.n	1090 <HalUart2PinCtrlRtl8195A+0x10>
    112e:	460a      	mov	r2, r1
    1130:	2003      	movs	r0, #3
    1132:	21f0      	movs	r1, #240	; 0xf0
    1134:	f7ff fed0 	bl	ed8 <GPIOCtrl>
    1138:	e7c9      	b.n	10ce <HalUart2PinCtrlRtl8195A+0x4e>
    113a:	bf00      	nop
    113c:	40000280 	.word	0x40000280
    1140:	1000031c 	.word	0x1000031c

00001144 <HalSPI0PinCtrlRtl8195A>:
    1144:	b510      	push	{r4, lr}
    1146:	4604      	mov	r4, r0
    1148:	b1b0      	cbz	r0, 1178 <HalSPI0PinCtrlRtl8195A+0x34>
    114a:	2801      	cmp	r0, #1
    114c:	d107      	bne.n	115e <HalSPI0PinCtrlRtl8195A+0x1a>
    114e:	2900      	cmp	r1, #0
    1150:	d036      	beq.n	11c0 <HalSPI0PinCtrlRtl8195A+0x7c>
    1152:	4b1e      	ldr	r3, [pc, #120]	; (11cc <HalSPI0PinCtrlRtl8195A+0x88>)
    1154:	889b      	ldrh	r3, [r3, #4]
    1156:	071b      	lsls	r3, r3, #28
    1158:	d026      	beq.n	11a8 <HalSPI0PinCtrlRtl8195A+0x64>
    115a:	2000      	movs	r0, #0
    115c:	bd10      	pop	{r4, pc}
    115e:	2900      	cmp	r1, #0
    1160:	d1fb      	bne.n	115a <HalSPI0PinCtrlRtl8195A+0x16>
    1162:	4b1b      	ldr	r3, [pc, #108]	; (11d0 <HalSPI0PinCtrlRtl8195A+0x8c>)
    1164:	2001      	movs	r0, #1
    1166:	681a      	ldr	r2, [r3, #0]
    1168:	f022 020e 	bic.w	r2, r2, #14
    116c:	601a      	str	r2, [r3, #0]
    116e:	681a      	ldr	r2, [r3, #0]
    1170:	f022 0201 	bic.w	r2, r2, #1
    1174:	601a      	str	r2, [r3, #0]
    1176:	bd10      	pop	{r4, pc}
    1178:	b1e1      	cbz	r1, 11b4 <HalSPI0PinCtrlRtl8195A+0x70>
    117a:	4b14      	ldr	r3, [pc, #80]	; (11cc <HalSPI0PinCtrlRtl8195A+0x88>)
    117c:	891b      	ldrh	r3, [r3, #8]
    117e:	071a      	lsls	r2, r3, #28
    1180:	d1eb      	bne.n	115a <HalSPI0PinCtrlRtl8195A+0x16>
    1182:	460a      	mov	r2, r1
    1184:	2004      	movs	r0, #4
    1186:	210f      	movs	r1, #15
    1188:	f7ff fea6 	bl	ed8 <GPIOCtrl>
    118c:	4a10      	ldr	r2, [pc, #64]	; (11d0 <HalSPI0PinCtrlRtl8195A+0x8c>)
    118e:	0064      	lsls	r4, r4, #1
    1190:	6813      	ldr	r3, [r2, #0]
    1192:	f004 040e 	and.w	r4, r4, #14
    1196:	f023 030e 	bic.w	r3, r3, #14
    119a:	431c      	orrs	r4, r3
    119c:	6014      	str	r4, [r2, #0]
    119e:	6813      	ldr	r3, [r2, #0]
    11a0:	2001      	movs	r0, #1
    11a2:	4303      	orrs	r3, r0
    11a4:	6013      	str	r3, [r2, #0]
    11a6:	bd10      	pop	{r4, pc}
    11a8:	460a      	mov	r2, r1
    11aa:	2002      	movs	r0, #2
    11ac:	210f      	movs	r1, #15
    11ae:	f7ff fe93 	bl	ed8 <GPIOCtrl>
    11b2:	e7eb      	b.n	118c <HalSPI0PinCtrlRtl8195A+0x48>
    11b4:	460a      	mov	r2, r1
    11b6:	2004      	movs	r0, #4
    11b8:	210f      	movs	r1, #15
    11ba:	f7ff fe8d 	bl	ed8 <GPIOCtrl>
    11be:	e7d0      	b.n	1162 <HalSPI0PinCtrlRtl8195A+0x1e>
    11c0:	460a      	mov	r2, r1
    11c2:	2002      	movs	r0, #2
    11c4:	210f      	movs	r1, #15
    11c6:	f7ff fe87 	bl	ed8 <GPIOCtrl>
    11ca:	e7ca      	b.n	1162 <HalSPI0PinCtrlRtl8195A+0x1e>
    11cc:	1000031c 	.word	0x1000031c
    11d0:	40000284 	.word	0x40000284

000011d4 <HalSPI1PinCtrlRtl8195A>:
    11d4:	2801      	cmp	r0, #1
    11d6:	b510      	push	{r4, lr}
    11d8:	4604      	mov	r4, r0
    11da:	d030      	beq.n	123e <HalSPI1PinCtrlRtl8195A+0x6a>
    11dc:	d317      	bcc.n	120e <HalSPI1PinCtrlRtl8195A+0x3a>
    11de:	2802      	cmp	r0, #2
    11e0:	d00b      	beq.n	11fa <HalSPI1PinCtrlRtl8195A+0x26>
    11e2:	b991      	cbnz	r1, 120a <HalSPI1PinCtrlRtl8195A+0x36>
    11e4:	4b27      	ldr	r3, [pc, #156]	; (1284 <HalSPI1PinCtrlRtl8195A+0xb0>)
    11e6:	2001      	movs	r0, #1
    11e8:	681a      	ldr	r2, [r3, #0]
    11ea:	f022 02e0 	bic.w	r2, r2, #224	; 0xe0
    11ee:	601a      	str	r2, [r3, #0]
    11f0:	681a      	ldr	r2, [r3, #0]
    11f2:	f022 0210 	bic.w	r2, r2, #16
    11f6:	601a      	str	r2, [r3, #0]
    11f8:	bd10      	pop	{r4, pc}
    11fa:	2900      	cmp	r1, #0
    11fc:	d031      	beq.n	1262 <HalSPI1PinCtrlRtl8195A+0x8e>
    11fe:	4b22      	ldr	r3, [pc, #136]	; (1288 <HalSPI1PinCtrlRtl8195A+0xb4>)
    1200:	88db      	ldrh	r3, [r3, #6]
    1202:	f003 03f0 	and.w	r3, r3, #240	; 0xf0
    1206:	2b00      	cmp	r3, #0
    1208:	d036      	beq.n	1278 <HalSPI1PinCtrlRtl8195A+0xa4>
    120a:	2000      	movs	r0, #0
    120c:	bd10      	pop	{r4, pc}
    120e:	b311      	cbz	r1, 1256 <HalSPI1PinCtrlRtl8195A+0x82>
    1210:	4b1d      	ldr	r3, [pc, #116]	; (1288 <HalSPI1PinCtrlRtl8195A+0xb4>)
    1212:	8818      	ldrh	r0, [r3, #0]
    1214:	f010 0017 	ands.w	r0, r0, #23
    1218:	d1f7      	bne.n	120a <HalSPI1PinCtrlRtl8195A+0x36>
    121a:	460a      	mov	r2, r1
    121c:	2117      	movs	r1, #23
    121e:	f7ff fe5b 	bl	ed8 <GPIOCtrl>
    1222:	4a18      	ldr	r2, [pc, #96]	; (1284 <HalSPI1PinCtrlRtl8195A+0xb0>)
    1224:	0164      	lsls	r4, r4, #5
    1226:	6813      	ldr	r3, [r2, #0]
    1228:	b2e4      	uxtb	r4, r4
    122a:	f023 03e0 	bic.w	r3, r3, #224	; 0xe0
    122e:	431c      	orrs	r4, r3
    1230:	6014      	str	r4, [r2, #0]
    1232:	6813      	ldr	r3, [r2, #0]
    1234:	2001      	movs	r0, #1
    1236:	f043 0310 	orr.w	r3, r3, #16
    123a:	6013      	str	r3, [r2, #0]
    123c:	bd10      	pop	{r4, pc}
    123e:	b1b1      	cbz	r1, 126e <HalSPI1PinCtrlRtl8195A+0x9a>
    1240:	4b11      	ldr	r3, [pc, #68]	; (1288 <HalSPI1PinCtrlRtl8195A+0xb4>)
    1242:	885b      	ldrh	r3, [r3, #2]
    1244:	f003 03f0 	and.w	r3, r3, #240	; 0xf0
    1248:	2b00      	cmp	r3, #0
    124a:	d1de      	bne.n	120a <HalSPI1PinCtrlRtl8195A+0x36>
    124c:	460a      	mov	r2, r1
    124e:	21f0      	movs	r1, #240	; 0xf0
    1250:	f7ff fe42 	bl	ed8 <GPIOCtrl>
    1254:	e7e5      	b.n	1222 <HalSPI1PinCtrlRtl8195A+0x4e>
    1256:	460a      	mov	r2, r1
    1258:	4608      	mov	r0, r1
    125a:	2117      	movs	r1, #23
    125c:	f7ff fe3c 	bl	ed8 <GPIOCtrl>
    1260:	e7c0      	b.n	11e4 <HalSPI1PinCtrlRtl8195A+0x10>
    1262:	460a      	mov	r2, r1
    1264:	2003      	movs	r0, #3
    1266:	21f0      	movs	r1, #240	; 0xf0
    1268:	f7ff fe36 	bl	ed8 <GPIOCtrl>
    126c:	e7ba      	b.n	11e4 <HalSPI1PinCtrlRtl8195A+0x10>
    126e:	460a      	mov	r2, r1
    1270:	21f0      	movs	r1, #240	; 0xf0
    1272:	f7ff fe31 	bl	ed8 <GPIOCtrl>
    1276:	e7b5      	b.n	11e4 <HalSPI1PinCtrlRtl8195A+0x10>
    1278:	460a      	mov	r2, r1
    127a:	2003      	movs	r0, #3
    127c:	21f0      	movs	r1, #240	; 0xf0
    127e:	f7ff fe2b 	bl	ed8 <GPIOCtrl>
    1282:	e7ce      	b.n	1222 <HalSPI1PinCtrlRtl8195A+0x4e>
    1284:	40000284 	.word	0x40000284
    1288:	1000031c 	.word	0x1000031c

0000128c <HalSPI2PinCtrlRtl8195A>:
    128c:	2801      	cmp	r0, #1
    128e:	b510      	push	{r4, lr}
    1290:	4604      	mov	r4, r0
    1292:	d02f      	beq.n	12f4 <HalSPI2PinCtrlRtl8195A+0x68>
    1294:	d315      	bcc.n	12c2 <HalSPI2PinCtrlRtl8195A+0x36>
    1296:	2802      	cmp	r0, #2
    1298:	d00b      	beq.n	12b2 <HalSPI2PinCtrlRtl8195A+0x26>
    129a:	b981      	cbnz	r1, 12be <HalSPI2PinCtrlRtl8195A+0x32>
    129c:	4b28      	ldr	r3, [pc, #160]	; (1340 <HalSPI2PinCtrlRtl8195A+0xb4>)
    129e:	2001      	movs	r0, #1
    12a0:	681a      	ldr	r2, [r3, #0]
    12a2:	f422 6260 	bic.w	r2, r2, #3584	; 0xe00
    12a6:	601a      	str	r2, [r3, #0]
    12a8:	681a      	ldr	r2, [r3, #0]
    12aa:	f422 7280 	bic.w	r2, r2, #256	; 0x100
    12ae:	601a      	str	r2, [r3, #0]
    12b0:	bd10      	pop	{r4, pc}
    12b2:	2900      	cmp	r1, #0
    12b4:	d031      	beq.n	131a <HalSPI2PinCtrlRtl8195A+0x8e>
    12b6:	4b23      	ldr	r3, [pc, #140]	; (1344 <HalSPI2PinCtrlRtl8195A+0xb8>)
    12b8:	88db      	ldrh	r3, [r3, #6]
    12ba:	071b      	lsls	r3, r3, #28
    12bc:	d039      	beq.n	1332 <HalSPI2PinCtrlRtl8195A+0xa6>
    12be:	2000      	movs	r0, #0
    12c0:	bd10      	pop	{r4, pc}
    12c2:	b321      	cbz	r1, 130e <HalSPI2PinCtrlRtl8195A+0x82>
    12c4:	4b1f      	ldr	r3, [pc, #124]	; (1344 <HalSPI2PinCtrlRtl8195A+0xb8>)
    12c6:	899b      	ldrh	r3, [r3, #12]
    12c8:	071a      	lsls	r2, r3, #28
    12ca:	d1f8      	bne.n	12be <HalSPI2PinCtrlRtl8195A+0x32>
    12cc:	460a      	mov	r2, r1
    12ce:	2006      	movs	r0, #6
    12d0:	210f      	movs	r1, #15
    12d2:	f7ff fe01 	bl	ed8 <GPIOCtrl>
    12d6:	4a1a      	ldr	r2, [pc, #104]	; (1340 <HalSPI2PinCtrlRtl8195A+0xb4>)
    12d8:	0264      	lsls	r4, r4, #9
    12da:	6813      	ldr	r3, [r2, #0]
    12dc:	f404 6460 	and.w	r4, r4, #3584	; 0xe00
    12e0:	f423 6360 	bic.w	r3, r3, #3584	; 0xe00
    12e4:	431c      	orrs	r4, r3
    12e6:	6014      	str	r4, [r2, #0]
    12e8:	6813      	ldr	r3, [r2, #0]
    12ea:	2001      	movs	r0, #1
    12ec:	f443 7380 	orr.w	r3, r3, #256	; 0x100
    12f0:	6013      	str	r3, [r2, #0]
    12f2:	bd10      	pop	{r4, pc}
    12f4:	b1b9      	cbz	r1, 1326 <HalSPI2PinCtrlRtl8195A+0x9a>
    12f6:	4b13      	ldr	r3, [pc, #76]	; (1344 <HalSPI2PinCtrlRtl8195A+0xb8>)
    12f8:	891b      	ldrh	r3, [r3, #8]
    12fa:	f003 03f0 	and.w	r3, r3, #240	; 0xf0
    12fe:	2b00      	cmp	r3, #0
    1300:	d1dd      	bne.n	12be <HalSPI2PinCtrlRtl8195A+0x32>
    1302:	460a      	mov	r2, r1
    1304:	2004      	movs	r0, #4
    1306:	21f0      	movs	r1, #240	; 0xf0
    1308:	f7ff fde6 	bl	ed8 <GPIOCtrl>
    130c:	e7e3      	b.n	12d6 <HalSPI2PinCtrlRtl8195A+0x4a>
    130e:	460a      	mov	r2, r1
    1310:	2006      	movs	r0, #6
    1312:	210f      	movs	r1, #15
    1314:	f7ff fde0 	bl	ed8 <GPIOCtrl>
    1318:	e7c0      	b.n	129c <HalSPI2PinCtrlRtl8195A+0x10>
    131a:	460a      	mov	r2, r1
    131c:	2003      	movs	r0, #3
    131e:	210f      	movs	r1, #15
    1320:	f7ff fdda 	bl	ed8 <GPIOCtrl>
    1324:	e7ba      	b.n	129c <HalSPI2PinCtrlRtl8195A+0x10>
    1326:	460a      	mov	r2, r1
    1328:	2004      	movs	r0, #4
    132a:	21f0      	movs	r1, #240	; 0xf0
    132c:	f7ff fdd4 	bl	ed8 <GPIOCtrl>
    1330:	e7b4      	b.n	129c <HalSPI2PinCtrlRtl8195A+0x10>
    1332:	460a      	mov	r2, r1
    1334:	2003      	movs	r0, #3
    1336:	210f      	movs	r1, #15
    1338:	f7ff fdce 	bl	ed8 <GPIOCtrl>
    133c:	e7cb      	b.n	12d6 <HalSPI2PinCtrlRtl8195A+0x4a>
    133e:	bf00      	nop
    1340:	40000284 	.word	0x40000284
    1344:	1000031c 	.word	0x1000031c

00001348 <HalSPI0MCSPinCtrlRtl8195A>:
    1348:	b510      	push	{r4, lr}
    134a:	4604      	mov	r4, r0
    134c:	b1e0      	cbz	r0, 1388 <HalSPI0MCSPinCtrlRtl8195A+0x40>
    134e:	2801      	cmp	r0, #1
    1350:	d109      	bne.n	1366 <HalSPI0MCSPinCtrlRtl8195A+0x1e>
    1352:	2900      	cmp	r1, #0
    1354:	d045      	beq.n	13e2 <HalSPI0MCSPinCtrlRtl8195A+0x9a>
    1356:	4b26      	ldr	r3, [pc, #152]	; (13f0 <HalSPI0MCSPinCtrlRtl8195A+0xa8>)
    1358:	889b      	ldrh	r3, [r3, #4]
    135a:	f3c3 0309 	ubfx	r3, r3, #0, #10
    135e:	2b00      	cmp	r3, #0
    1360:	d031      	beq.n	13c6 <HalSPI0MCSPinCtrlRtl8195A+0x7e>
    1362:	2000      	movs	r0, #0
    1364:	bd10      	pop	{r4, pc}
    1366:	2900      	cmp	r1, #0
    1368:	d1fb      	bne.n	1362 <HalSPI0MCSPinCtrlRtl8195A+0x1a>
    136a:	4b22      	ldr	r3, [pc, #136]	; (13f4 <HalSPI0MCSPinCtrlRtl8195A+0xac>)
    136c:	2001      	movs	r0, #1
    136e:	681a      	ldr	r2, [r3, #0]
    1370:	f022 020e 	bic.w	r2, r2, #14
    1374:	601a      	str	r2, [r3, #0]
    1376:	681a      	ldr	r2, [r3, #0]
    1378:	f022 0201 	bic.w	r2, r2, #1
    137c:	601a      	str	r2, [r3, #0]
    137e:	681a      	ldr	r2, [r3, #0]
    1380:	f022 5280 	bic.w	r2, r2, #268435456	; 0x10000000
    1384:	601a      	str	r2, [r3, #0]
    1386:	bd10      	pop	{r4, pc}
    1388:	b321      	cbz	r1, 13d4 <HalSPI0MCSPinCtrlRtl8195A+0x8c>
    138a:	4b19      	ldr	r3, [pc, #100]	; (13f0 <HalSPI0MCSPinCtrlRtl8195A+0xa8>)
    138c:	891b      	ldrh	r3, [r3, #8]
    138e:	f3c3 030a 	ubfx	r3, r3, #0, #11
    1392:	2b00      	cmp	r3, #0
    1394:	d1e5      	bne.n	1362 <HalSPI0MCSPinCtrlRtl8195A+0x1a>
    1396:	460a      	mov	r2, r1
    1398:	2004      	movs	r0, #4
    139a:	f240 71ff 	movw	r1, #2047	; 0x7ff
    139e:	f7ff fd9b 	bl	ed8 <GPIOCtrl>
    13a2:	4b14      	ldr	r3, [pc, #80]	; (13f4 <HalSPI0MCSPinCtrlRtl8195A+0xac>)
    13a4:	0064      	lsls	r4, r4, #1
    13a6:	681a      	ldr	r2, [r3, #0]
    13a8:	f004 040e 	and.w	r4, r4, #14
    13ac:	f022 020e 	bic.w	r2, r2, #14
    13b0:	4314      	orrs	r4, r2
    13b2:	601c      	str	r4, [r3, #0]
    13b4:	681a      	ldr	r2, [r3, #0]
    13b6:	2001      	movs	r0, #1
    13b8:	4302      	orrs	r2, r0
    13ba:	601a      	str	r2, [r3, #0]
    13bc:	681a      	ldr	r2, [r3, #0]
    13be:	f042 5280 	orr.w	r2, r2, #268435456	; 0x10000000
    13c2:	601a      	str	r2, [r3, #0]
    13c4:	bd10      	pop	{r4, pc}
    13c6:	460a      	mov	r2, r1
    13c8:	2002      	movs	r0, #2
    13ca:	f240 31ff 	movw	r1, #1023	; 0x3ff
    13ce:	f7ff fd83 	bl	ed8 <GPIOCtrl>
    13d2:	e7e6      	b.n	13a2 <HalSPI0MCSPinCtrlRtl8195A+0x5a>
    13d4:	460a      	mov	r2, r1
    13d6:	2004      	movs	r0, #4
    13d8:	f240 71ff 	movw	r1, #2047	; 0x7ff
    13dc:	f7ff fd7c 	bl	ed8 <GPIOCtrl>
    13e0:	e7c3      	b.n	136a <HalSPI0MCSPinCtrlRtl8195A+0x22>
    13e2:	460a      	mov	r2, r1
    13e4:	2002      	movs	r0, #2
    13e6:	f240 31ff 	movw	r1, #1023	; 0x3ff
    13ea:	f7ff fd75 	bl	ed8 <GPIOCtrl>
    13ee:	e7bc      	b.n	136a <HalSPI0MCSPinCtrlRtl8195A+0x22>
    13f0:	1000031c 	.word	0x1000031c
    13f4:	40000284 	.word	0x40000284

000013f8 <HalI2C0PinCtrlRtl8195A>:
    13f8:	b510      	push	{r4, lr}
    13fa:	4604      	mov	r4, r0
    13fc:	2803      	cmp	r0, #3
    13fe:	d842      	bhi.n	1486 <HalI2C0PinCtrlRtl8195A+0x8e>
    1400:	e8df f000 	tbb	[pc, r0]
    1404:	020c1b34 	.word	0x020c1b34
    1408:	2900      	cmp	r1, #0
    140a:	d056      	beq.n	14ba <HalI2C0PinCtrlRtl8195A+0xc2>
    140c:	4b34      	ldr	r3, [pc, #208]	; (14e0 <HalI2C0PinCtrlRtl8195A+0xe8>)
    140e:	891b      	ldrh	r3, [r3, #8]
    1410:	f003 03c0 	and.w	r3, r3, #192	; 0xc0
    1414:	2b00      	cmp	r3, #0
    1416:	d05c      	beq.n	14d2 <HalI2C0PinCtrlRtl8195A+0xda>
    1418:	2000      	movs	r0, #0
    141a:	bd10      	pop	{r4, pc}
    141c:	2900      	cmp	r1, #0
    141e:	d045      	beq.n	14ac <HalI2C0PinCtrlRtl8195A+0xb4>
    1420:	4b2f      	ldr	r3, [pc, #188]	; (14e0 <HalI2C0PinCtrlRtl8195A+0xe8>)
    1422:	889b      	ldrh	r3, [r3, #4]
    1424:	f403 7340 	and.w	r3, r3, #768	; 0x300
    1428:	2b00      	cmp	r3, #0
    142a:	d1f5      	bne.n	1418 <HalI2C0PinCtrlRtl8195A+0x20>
    142c:	460a      	mov	r2, r1
    142e:	2002      	movs	r0, #2
    1430:	f44f 7140 	mov.w	r1, #768	; 0x300
    1434:	f7ff fd50 	bl	ed8 <GPIOCtrl>
    1438:	e00a      	b.n	1450 <HalI2C0PinCtrlRtl8195A+0x58>
    143a:	2900      	cmp	r1, #0
    143c:	d030      	beq.n	14a0 <HalI2C0PinCtrlRtl8195A+0xa8>
    143e:	4b28      	ldr	r3, [pc, #160]	; (14e0 <HalI2C0PinCtrlRtl8195A+0xe8>)
    1440:	89db      	ldrh	r3, [r3, #14]
    1442:	079b      	lsls	r3, r3, #30
    1444:	d1e8      	bne.n	1418 <HalI2C0PinCtrlRtl8195A+0x20>
    1446:	460a      	mov	r2, r1
    1448:	2007      	movs	r0, #7
    144a:	2103      	movs	r1, #3
    144c:	f7ff fd44 	bl	ed8 <GPIOCtrl>
    1450:	4a24      	ldr	r2, [pc, #144]	; (14e4 <HalI2C0PinCtrlRtl8195A+0xec>)
    1452:	0064      	lsls	r4, r4, #1
    1454:	6813      	ldr	r3, [r2, #0]
    1456:	f004 040e 	and.w	r4, r4, #14
    145a:	f023 030e 	bic.w	r3, r3, #14
    145e:	431c      	orrs	r4, r3
    1460:	6014      	str	r4, [r2, #0]
    1462:	6813      	ldr	r3, [r2, #0]
    1464:	2001      	movs	r0, #1
    1466:	4303      	orrs	r3, r0
    1468:	6013      	str	r3, [r2, #0]
    146a:	bd10      	pop	{r4, pc}
    146c:	b359      	cbz	r1, 14c6 <HalI2C0PinCtrlRtl8195A+0xce>
    146e:	4b1c      	ldr	r3, [pc, #112]	; (14e0 <HalI2C0PinCtrlRtl8195A+0xe8>)
    1470:	88db      	ldrh	r3, [r3, #6]
    1472:	f003 0330 	and.w	r3, r3, #48	; 0x30
    1476:	2b00      	cmp	r3, #0
    1478:	d1ce      	bne.n	1418 <HalI2C0PinCtrlRtl8195A+0x20>
    147a:	460a      	mov	r2, r1
    147c:	2003      	movs	r0, #3
    147e:	2130      	movs	r1, #48	; 0x30
    1480:	f7ff fd2a 	bl	ed8 <GPIOCtrl>
    1484:	e7e4      	b.n	1450 <HalI2C0PinCtrlRtl8195A+0x58>
    1486:	2900      	cmp	r1, #0
    1488:	d1c6      	bne.n	1418 <HalI2C0PinCtrlRtl8195A+0x20>
    148a:	4b16      	ldr	r3, [pc, #88]	; (14e4 <HalI2C0PinCtrlRtl8195A+0xec>)
    148c:	2001      	movs	r0, #1
    148e:	681a      	ldr	r2, [r3, #0]
    1490:	f022 020e 	bic.w	r2, r2, #14
    1494:	601a      	str	r2, [r3, #0]
    1496:	681a      	ldr	r2, [r3, #0]
    1498:	f022 0201 	bic.w	r2, r2, #1
    149c:	601a      	str	r2, [r3, #0]
    149e:	bd10      	pop	{r4, pc}
    14a0:	460a      	mov	r2, r1
    14a2:	2007      	movs	r0, #7
    14a4:	2103      	movs	r1, #3
    14a6:	f7ff fd17 	bl	ed8 <GPIOCtrl>
    14aa:	e7ee      	b.n	148a <HalI2C0PinCtrlRtl8195A+0x92>
    14ac:	460a      	mov	r2, r1
    14ae:	2002      	movs	r0, #2
    14b0:	f44f 7140 	mov.w	r1, #768	; 0x300
    14b4:	f7ff fd10 	bl	ed8 <GPIOCtrl>
    14b8:	e7e7      	b.n	148a <HalI2C0PinCtrlRtl8195A+0x92>
    14ba:	460a      	mov	r2, r1
    14bc:	2004      	movs	r0, #4
    14be:	21c0      	movs	r1, #192	; 0xc0
    14c0:	f7ff fd0a 	bl	ed8 <GPIOCtrl>
    14c4:	e7e1      	b.n	148a <HalI2C0PinCtrlRtl8195A+0x92>
    14c6:	460a      	mov	r2, r1
    14c8:	2003      	movs	r0, #3
    14ca:	2130      	movs	r1, #48	; 0x30
    14cc:	f7ff fd04 	bl	ed8 <GPIOCtrl>
    14d0:	e7db      	b.n	148a <HalI2C0PinCtrlRtl8195A+0x92>
    14d2:	460a      	mov	r2, r1
    14d4:	2004      	movs	r0, #4
    14d6:	21c0      	movs	r1, #192	; 0xc0
    14d8:	f7ff fcfe 	bl	ed8 <GPIOCtrl>
    14dc:	e7b8      	b.n	1450 <HalI2C0PinCtrlRtl8195A+0x58>
    14de:	bf00      	nop
    14e0:	1000031c 	.word	0x1000031c
    14e4:	40000288 	.word	0x40000288

000014e8 <HalI2C1PinCtrlRtl8195A>:
    14e8:	2801      	cmp	r0, #1
    14ea:	b510      	push	{r4, lr}
    14ec:	4604      	mov	r4, r0
    14ee:	d032      	beq.n	1556 <HalI2C1PinCtrlRtl8195A+0x6e>
    14f0:	d317      	bcc.n	1522 <HalI2C1PinCtrlRtl8195A+0x3a>
    14f2:	2802      	cmp	r0, #2
    14f4:	d00b      	beq.n	150e <HalI2C1PinCtrlRtl8195A+0x26>
    14f6:	b991      	cbnz	r1, 151e <HalI2C1PinCtrlRtl8195A+0x36>
    14f8:	4b29      	ldr	r3, [pc, #164]	; (15a0 <HalI2C1PinCtrlRtl8195A+0xb8>)
    14fa:	2001      	movs	r0, #1
    14fc:	681a      	ldr	r2, [r3, #0]
    14fe:	f022 02e0 	bic.w	r2, r2, #224	; 0xe0
    1502:	601a      	str	r2, [r3, #0]
    1504:	681a      	ldr	r2, [r3, #0]
    1506:	f022 0210 	bic.w	r2, r2, #16
    150a:	601a      	str	r2, [r3, #0]
    150c:	bd10      	pop	{r4, pc}
    150e:	2900      	cmp	r1, #0
    1510:	d034      	beq.n	157c <HalI2C1PinCtrlRtl8195A+0x94>
    1512:	4b24      	ldr	r3, [pc, #144]	; (15a4 <HalI2C1PinCtrlRtl8195A+0xbc>)
    1514:	88db      	ldrh	r3, [r3, #6]
    1516:	f003 03c0 	and.w	r3, r3, #192	; 0xc0
    151a:	2b00      	cmp	r3, #0
    151c:	d03a      	beq.n	1594 <HalI2C1PinCtrlRtl8195A+0xac>
    151e:	2000      	movs	r0, #0
    1520:	bd10      	pop	{r4, pc}
    1522:	b329      	cbz	r1, 1570 <HalI2C1PinCtrlRtl8195A+0x88>
    1524:	4b1f      	ldr	r3, [pc, #124]	; (15a4 <HalI2C1PinCtrlRtl8195A+0xbc>)
    1526:	889b      	ldrh	r3, [r3, #4]
    1528:	f003 0330 	and.w	r3, r3, #48	; 0x30
    152c:	2b00      	cmp	r3, #0
    152e:	d1f6      	bne.n	151e <HalI2C1PinCtrlRtl8195A+0x36>
    1530:	460a      	mov	r2, r1
    1532:	2002      	movs	r0, #2
    1534:	2130      	movs	r1, #48	; 0x30
    1536:	f7ff fccf 	bl	ed8 <GPIOCtrl>
    153a:	4a19      	ldr	r2, [pc, #100]	; (15a0 <HalI2C1PinCtrlRtl8195A+0xb8>)
    153c:	0164      	lsls	r4, r4, #5
    153e:	6813      	ldr	r3, [r2, #0]
    1540:	b2e4      	uxtb	r4, r4
    1542:	f023 03e0 	bic.w	r3, r3, #224	; 0xe0
    1546:	431c      	orrs	r4, r3
    1548:	6014      	str	r4, [r2, #0]
    154a:	6813      	ldr	r3, [r2, #0]
    154c:	2001      	movs	r0, #1
    154e:	f043 0310 	orr.w	r3, r3, #16
    1552:	6013      	str	r3, [r2, #0]
    1554:	bd10      	pop	{r4, pc}
    1556:	b1b9      	cbz	r1, 1588 <HalI2C1PinCtrlRtl8195A+0xa0>
    1558:	4b12      	ldr	r3, [pc, #72]	; (15a4 <HalI2C1PinCtrlRtl8195A+0xbc>)
    155a:	89db      	ldrh	r3, [r3, #14]
    155c:	f003 030c 	and.w	r3, r3, #12
    1560:	2b00      	cmp	r3, #0
    1562:	d1dc      	bne.n	151e <HalI2C1PinCtrlRtl8195A+0x36>
    1564:	460a      	mov	r2, r1
    1566:	2007      	movs	r0, #7
    1568:	210c      	movs	r1, #12
    156a:	f7ff fcb5 	bl	ed8 <GPIOCtrl>
    156e:	e7e4      	b.n	153a <HalI2C1PinCtrlRtl8195A+0x52>
    1570:	460a      	mov	r2, r1
    1572:	2002      	movs	r0, #2
    1574:	2130      	movs	r1, #48	; 0x30
    1576:	f7ff fcaf 	bl	ed8 <GPIOCtrl>
    157a:	e7bd      	b.n	14f8 <HalI2C1PinCtrlRtl8195A+0x10>
    157c:	460a      	mov	r2, r1
    157e:	2003      	movs	r0, #3
    1580:	21c0      	movs	r1, #192	; 0xc0
    1582:	f7ff fca9 	bl	ed8 <GPIOCtrl>
    1586:	e7b7      	b.n	14f8 <HalI2C1PinCtrlRtl8195A+0x10>
    1588:	460a      	mov	r2, r1
    158a:	2007      	movs	r0, #7
    158c:	210c      	movs	r1, #12
    158e:	f7ff fca3 	bl	ed8 <GPIOCtrl>
    1592:	e7b1      	b.n	14f8 <HalI2C1PinCtrlRtl8195A+0x10>
    1594:	460a      	mov	r2, r1
    1596:	2003      	movs	r0, #3
    1598:	21c0      	movs	r1, #192	; 0xc0
    159a:	f7ff fc9d 	bl	ed8 <GPIOCtrl>
    159e:	e7cc      	b.n	153a <HalI2C1PinCtrlRtl8195A+0x52>
    15a0:	40000288 	.word	0x40000288
    15a4:	1000031c 	.word	0x1000031c

000015a8 <HalI2C2PinCtrlRtl8195A>:
    15a8:	2801      	cmp	r0, #1
    15aa:	b510      	push	{r4, lr}
    15ac:	4604      	mov	r4, r0
    15ae:	d033      	beq.n	1618 <HalI2C2PinCtrlRtl8195A+0x70>
    15b0:	d317      	bcc.n	15e2 <HalI2C2PinCtrlRtl8195A+0x3a>
    15b2:	2802      	cmp	r0, #2
    15b4:	d00b      	beq.n	15ce <HalI2C2PinCtrlRtl8195A+0x26>
    15b6:	b991      	cbnz	r1, 15de <HalI2C2PinCtrlRtl8195A+0x36>
    15b8:	4b28      	ldr	r3, [pc, #160]	; (165c <HalI2C2PinCtrlRtl8195A+0xb4>)
    15ba:	2001      	movs	r0, #1
    15bc:	681a      	ldr	r2, [r3, #0]
    15be:	f422 6260 	bic.w	r2, r2, #3584	; 0xe00
    15c2:	601a      	str	r2, [r3, #0]
    15c4:	681a      	ldr	r2, [r3, #0]
    15c6:	f422 7280 	bic.w	r2, r2, #256	; 0x100
    15ca:	601a      	str	r2, [r3, #0]
    15cc:	bd10      	pop	{r4, pc}
    15ce:	2900      	cmp	r1, #0
    15d0:	d033      	beq.n	163a <HalI2C2PinCtrlRtl8195A+0x92>
    15d2:	4b23      	ldr	r3, [pc, #140]	; (1660 <HalI2C2PinCtrlRtl8195A+0xb8>)
    15d4:	889b      	ldrh	r3, [r3, #4]
    15d6:	f003 03c0 	and.w	r3, r3, #192	; 0xc0
    15da:	2b00      	cmp	r3, #0
    15dc:	d038      	beq.n	1650 <HalI2C2PinCtrlRtl8195A+0xa8>
    15de:	2000      	movs	r0, #0
    15e0:	bd10      	pop	{r4, pc}
    15e2:	b321      	cbz	r1, 162e <HalI2C2PinCtrlRtl8195A+0x86>
    15e4:	4b1e      	ldr	r3, [pc, #120]	; (1660 <HalI2C2PinCtrlRtl8195A+0xb8>)
    15e6:	885b      	ldrh	r3, [r3, #2]
    15e8:	f003 03c0 	and.w	r3, r3, #192	; 0xc0
    15ec:	2b00      	cmp	r3, #0
    15ee:	d1f6      	bne.n	15de <HalI2C2PinCtrlRtl8195A+0x36>
    15f0:	460a      	mov	r2, r1
    15f2:	2001      	movs	r0, #1
    15f4:	21c0      	movs	r1, #192	; 0xc0
    15f6:	f7ff fc6f 	bl	ed8 <GPIOCtrl>
    15fa:	4a18      	ldr	r2, [pc, #96]	; (165c <HalI2C2PinCtrlRtl8195A+0xb4>)
    15fc:	0264      	lsls	r4, r4, #9
    15fe:	6813      	ldr	r3, [r2, #0]
    1600:	f404 6460 	and.w	r4, r4, #3584	; 0xe00
    1604:	f423 6360 	bic.w	r3, r3, #3584	; 0xe00
    1608:	431c      	orrs	r4, r3
    160a:	6014      	str	r4, [r2, #0]
    160c:	6813      	ldr	r3, [r2, #0]
    160e:	2001      	movs	r0, #1
    1610:	f443 7380 	orr.w	r3, r3, #256	; 0x100
    1614:	6013      	str	r3, [r2, #0]
    1616:	bd10      	pop	{r4, pc}
    1618:	b1a1      	cbz	r1, 1644 <HalI2C2PinCtrlRtl8195A+0x9c>
    161a:	4b11      	ldr	r3, [pc, #68]	; (1660 <HalI2C2PinCtrlRtl8195A+0xb8>)
    161c:	891b      	ldrh	r3, [r3, #8]
    161e:	079b      	lsls	r3, r3, #30
    1620:	d1dd      	bne.n	15de <HalI2C2PinCtrlRtl8195A+0x36>
    1622:	460a      	mov	r2, r1
    1624:	2004      	movs	r0, #4
    1626:	2103      	movs	r1, #3
    1628:	f7ff fc56 	bl	ed8 <GPIOCtrl>
    162c:	e7e5      	b.n	15fa <HalI2C2PinCtrlRtl8195A+0x52>
    162e:	460a      	mov	r2, r1
    1630:	2001      	movs	r0, #1
    1632:	21c0      	movs	r1, #192	; 0xc0
    1634:	f7ff fc50 	bl	ed8 <GPIOCtrl>
    1638:	e7be      	b.n	15b8 <HalI2C2PinCtrlRtl8195A+0x10>
    163a:	460a      	mov	r2, r1
    163c:	21c0      	movs	r1, #192	; 0xc0
    163e:	f7ff fc4b 	bl	ed8 <GPIOCtrl>
    1642:	e7b9      	b.n	15b8 <HalI2C2PinCtrlRtl8195A+0x10>
    1644:	460a      	mov	r2, r1
    1646:	2004      	movs	r0, #4
    1648:	2103      	movs	r1, #3
    164a:	f7ff fc45 	bl	ed8 <GPIOCtrl>
    164e:	e7b3      	b.n	15b8 <HalI2C2PinCtrlRtl8195A+0x10>
    1650:	460a      	mov	r2, r1
    1652:	21c0      	movs	r1, #192	; 0xc0
    1654:	f7ff fc40 	bl	ed8 <GPIOCtrl>
    1658:	e7cf      	b.n	15fa <HalI2C2PinCtrlRtl8195A+0x52>
    165a:	bf00      	nop
    165c:	40000288 	.word	0x40000288
    1660:	1000031c 	.word	0x1000031c

00001664 <HalI2C3PinCtrlRtl8195A>:
    1664:	b510      	push	{r4, lr}
    1666:	4604      	mov	r4, r0
    1668:	2803      	cmp	r0, #3
    166a:	d843      	bhi.n	16f4 <HalI2C3PinCtrlRtl8195A+0x90>
    166c:	e8df f000 	tbb	[pc, r0]
    1670:	020c1a35 	.word	0x020c1a35
    1674:	2900      	cmp	r1, #0
    1676:	d056      	beq.n	1726 <HalI2C3PinCtrlRtl8195A+0xc2>
    1678:	4b35      	ldr	r3, [pc, #212]	; (1750 <HalI2C3PinCtrlRtl8195A+0xec>)
    167a:	88db      	ldrh	r3, [r3, #6]
    167c:	f403 7340 	and.w	r3, r3, #768	; 0x300
    1680:	2b00      	cmp	r3, #0
    1682:	d05d      	beq.n	1740 <HalI2C3PinCtrlRtl8195A+0xdc>
    1684:	2000      	movs	r0, #0
    1686:	bd10      	pop	{r4, pc}
    1688:	2900      	cmp	r1, #0
    168a:	d046      	beq.n	171a <HalI2C3PinCtrlRtl8195A+0xb6>
    168c:	4b30      	ldr	r3, [pc, #192]	; (1750 <HalI2C3PinCtrlRtl8195A+0xec>)
    168e:	891b      	ldrh	r3, [r3, #8]
    1690:	f003 0330 	and.w	r3, r3, #48	; 0x30
    1694:	2b00      	cmp	r3, #0
    1696:	d1f5      	bne.n	1684 <HalI2C3PinCtrlRtl8195A+0x20>
    1698:	460a      	mov	r2, r1
    169a:	2004      	movs	r0, #4
    169c:	2130      	movs	r1, #48	; 0x30
    169e:	f7ff fc1b 	bl	ed8 <GPIOCtrl>
    16a2:	e00c      	b.n	16be <HalI2C3PinCtrlRtl8195A+0x5a>
    16a4:	2900      	cmp	r1, #0
    16a6:	d032      	beq.n	170e <HalI2C3PinCtrlRtl8195A+0xaa>
    16a8:	4b29      	ldr	r3, [pc, #164]	; (1750 <HalI2C3PinCtrlRtl8195A+0xec>)
    16aa:	891b      	ldrh	r3, [r3, #8]
    16ac:	f003 030c 	and.w	r3, r3, #12
    16b0:	2b00      	cmp	r3, #0
    16b2:	d1e7      	bne.n	1684 <HalI2C3PinCtrlRtl8195A+0x20>
    16b4:	460a      	mov	r2, r1
    16b6:	2004      	movs	r0, #4
    16b8:	210c      	movs	r1, #12
    16ba:	f7ff fc0d 	bl	ed8 <GPIOCtrl>
    16be:	4a25      	ldr	r2, [pc, #148]	; (1754 <HalI2C3PinCtrlRtl8195A+0xf0>)
    16c0:	0364      	lsls	r4, r4, #13
    16c2:	6813      	ldr	r3, [r2, #0]
    16c4:	b2a4      	uxth	r4, r4
    16c6:	f423 4360 	bic.w	r3, r3, #57344	; 0xe000
    16ca:	431c      	orrs	r4, r3
    16cc:	6014      	str	r4, [r2, #0]
    16ce:	6813      	ldr	r3, [r2, #0]
    16d0:	2001      	movs	r0, #1
    16d2:	f443 5380 	orr.w	r3, r3, #4096	; 0x1000
    16d6:	6013      	str	r3, [r2, #0]
    16d8:	bd10      	pop	{r4, pc}
    16da:	b359      	cbz	r1, 1734 <HalI2C3PinCtrlRtl8195A+0xd0>
    16dc:	4b1c      	ldr	r3, [pc, #112]	; (1750 <HalI2C3PinCtrlRtl8195A+0xec>)
    16de:	885b      	ldrh	r3, [r3, #2]
    16e0:	f003 030c 	and.w	r3, r3, #12
    16e4:	2b00      	cmp	r3, #0
    16e6:	d1cd      	bne.n	1684 <HalI2C3PinCtrlRtl8195A+0x20>
    16e8:	460a      	mov	r2, r1
    16ea:	2001      	movs	r0, #1
    16ec:	210c      	movs	r1, #12
    16ee:	f7ff fbf3 	bl	ed8 <GPIOCtrl>
    16f2:	e7e4      	b.n	16be <HalI2C3PinCtrlRtl8195A+0x5a>
    16f4:	2900      	cmp	r1, #0
    16f6:	d1c5      	bne.n	1684 <HalI2C3PinCtrlRtl8195A+0x20>
    16f8:	4b16      	ldr	r3, [pc, #88]	; (1754 <HalI2C3PinCtrlRtl8195A+0xf0>)
    16fa:	2001      	movs	r0, #1
    16fc:	681a      	ldr	r2, [r3, #0]
    16fe:	f422 4260 	bic.w	r2, r2, #57344	; 0xe000
    1702:	601a      	str	r2, [r3, #0]
    1704:	681a      	ldr	r2, [r3, #0]
    1706:	f422 5280 	bic.w	r2, r2, #4096	; 0x1000
    170a:	601a      	str	r2, [r3, #0]
    170c:	bd10      	pop	{r4, pc}
    170e:	460a      	mov	r2, r1
    1710:	2004      	movs	r0, #4
    1712:	210c      	movs	r1, #12
    1714:	f7ff fbe0 	bl	ed8 <GPIOCtrl>
    1718:	e7ee      	b.n	16f8 <HalI2C3PinCtrlRtl8195A+0x94>
    171a:	460a      	mov	r2, r1
    171c:	2004      	movs	r0, #4
    171e:	2130      	movs	r1, #48	; 0x30
    1720:	f7ff fbda 	bl	ed8 <GPIOCtrl>
    1724:	e7e8      	b.n	16f8 <HalI2C3PinCtrlRtl8195A+0x94>
    1726:	460a      	mov	r2, r1
    1728:	2003      	movs	r0, #3
    172a:	f44f 7140 	mov.w	r1, #768	; 0x300
    172e:	f7ff fbd3 	bl	ed8 <GPIOCtrl>
    1732:	e7e1      	b.n	16f8 <HalI2C3PinCtrlRtl8195A+0x94>
    1734:	460a      	mov	r2, r1
    1736:	2001      	movs	r0, #1
    1738:	210c      	movs	r1, #12
    173a:	f7ff fbcd 	bl	ed8 <GPIOCtrl>
    173e:	e7db      	b.n	16f8 <HalI2C3PinCtrlRtl8195A+0x94>
    1740:	460a      	mov	r2, r1
    1742:	2003      	movs	r0, #3
    1744:	f44f 7140 	mov.w	r1, #768	; 0x300
    1748:	f7ff fbc6 	bl	ed8 <GPIOCtrl>
    174c:	e7b7      	b.n	16be <HalI2C3PinCtrlRtl8195A+0x5a>
    174e:	bf00      	nop
    1750:	1000031c 	.word	0x1000031c
    1754:	40000288 	.word	0x40000288

00001758 <HalI2S0PinCtrlRtl8195A>:
    1758:	b538      	push	{r3, r4, r5, lr}
    175a:	4604      	mov	r4, r0
    175c:	460d      	mov	r5, r1
    175e:	2803      	cmp	r0, #3
    1760:	d84e      	bhi.n	1800 <HalI2S0PinCtrlRtl8195A+0xa8>
    1762:	e8df f000 	tbb	[pc, r0]
    1766:	2735      	.short	0x2735
    1768:	020c      	.short	0x020c
    176a:	2900      	cmp	r1, #0
    176c:	d061      	beq.n	1832 <HalI2S0PinCtrlRtl8195A+0xda>
    176e:	4b3d      	ldr	r3, [pc, #244]	; (1864 <HalI2S0PinCtrlRtl8195A+0x10c>)
    1770:	889b      	ldrh	r3, [r3, #4]
    1772:	f403 7378 	and.w	r3, r3, #992	; 0x3e0
    1776:	2b00      	cmp	r3, #0
    1778:	d06d      	beq.n	1856 <HalI2S0PinCtrlRtl8195A+0xfe>
    177a:	2000      	movs	r0, #0
    177c:	bd38      	pop	{r3, r4, r5, pc}
    177e:	2900      	cmp	r1, #0
    1780:	d051      	beq.n	1826 <HalI2S0PinCtrlRtl8195A+0xce>
    1782:	4b38      	ldr	r3, [pc, #224]	; (1864 <HalI2S0PinCtrlRtl8195A+0x10c>)
    1784:	88db      	ldrh	r3, [r3, #6]
    1786:	f003 034f 	and.w	r3, r3, #79	; 0x4f
    178a:	2b00      	cmp	r3, #0
    178c:	d1f5      	bne.n	177a <HalI2S0PinCtrlRtl8195A+0x22>
    178e:	460a      	mov	r2, r1
    1790:	2003      	movs	r0, #3
    1792:	214f      	movs	r1, #79	; 0x4f
    1794:	f7ff fba0 	bl	ed8 <GPIOCtrl>
    1798:	4a33      	ldr	r2, [pc, #204]	; (1868 <HalI2S0PinCtrlRtl8195A+0x110>)
    179a:	00a4      	lsls	r4, r4, #2
    179c:	6813      	ldr	r3, [r2, #0]
    179e:	f004 040c 	and.w	r4, r4, #12
    17a2:	f023 030c 	bic.w	r3, r3, #12
    17a6:	431c      	orrs	r4, r3
    17a8:	6014      	str	r4, [r2, #0]
    17aa:	6813      	ldr	r3, [r2, #0]
    17ac:	2001      	movs	r0, #1
    17ae:	4303      	orrs	r3, r0
    17b0:	6013      	str	r3, [r2, #0]
    17b2:	bd38      	pop	{r3, r4, r5, pc}
    17b4:	2900      	cmp	r1, #0
    17b6:	d030      	beq.n	181a <HalI2S0PinCtrlRtl8195A+0xc2>
    17b8:	4b2a      	ldr	r3, [pc, #168]	; (1864 <HalI2S0PinCtrlRtl8195A+0x10c>)
    17ba:	89db      	ldrh	r3, [r3, #14]
    17bc:	f003 032f 	and.w	r3, r3, #47	; 0x2f
    17c0:	2b00      	cmp	r3, #0
    17c2:	d1da      	bne.n	177a <HalI2S0PinCtrlRtl8195A+0x22>
    17c4:	460a      	mov	r2, r1
    17c6:	2007      	movs	r0, #7
    17c8:	212f      	movs	r1, #47	; 0x2f
    17ca:	f7ff fb85 	bl	ed8 <GPIOCtrl>
    17ce:	e7e3      	b.n	1798 <HalI2S0PinCtrlRtl8195A+0x40>
    17d0:	2900      	cmp	r1, #0
    17d2:	d035      	beq.n	1840 <HalI2S0PinCtrlRtl8195A+0xe8>
    17d4:	4b23      	ldr	r3, [pc, #140]	; (1864 <HalI2S0PinCtrlRtl8195A+0x10c>)
    17d6:	88d8      	ldrh	r0, [r3, #6]
    17d8:	891b      	ldrh	r3, [r3, #8]
    17da:	f000 0040 	and.w	r0, r0, #64	; 0x40
    17de:	b280      	uxth	r0, r0
    17e0:	f003 030f 	and.w	r3, r3, #15
    17e4:	2800      	cmp	r0, #0
    17e6:	d1c8      	bne.n	177a <HalI2S0PinCtrlRtl8195A+0x22>
    17e8:	b9b3      	cbnz	r3, 1818 <HalI2S0PinCtrlRtl8195A+0xc0>
    17ea:	460a      	mov	r2, r1
    17ec:	2004      	movs	r0, #4
    17ee:	210f      	movs	r1, #15
    17f0:	f7ff fb72 	bl	ed8 <GPIOCtrl>
    17f4:	462a      	mov	r2, r5
    17f6:	2140      	movs	r1, #64	; 0x40
    17f8:	2003      	movs	r0, #3
    17fa:	f7ff fb6d 	bl	ed8 <GPIOCtrl>
    17fe:	e7cb      	b.n	1798 <HalI2S0PinCtrlRtl8195A+0x40>
    1800:	2900      	cmp	r1, #0
    1802:	d1ba      	bne.n	177a <HalI2S0PinCtrlRtl8195A+0x22>
    1804:	4b18      	ldr	r3, [pc, #96]	; (1868 <HalI2S0PinCtrlRtl8195A+0x110>)
    1806:	2001      	movs	r0, #1
    1808:	681a      	ldr	r2, [r3, #0]
    180a:	f022 020c 	bic.w	r2, r2, #12
    180e:	601a      	str	r2, [r3, #0]
    1810:	681a      	ldr	r2, [r3, #0]
    1812:	f022 0201 	bic.w	r2, r2, #1
    1816:	601a      	str	r2, [r3, #0]
    1818:	bd38      	pop	{r3, r4, r5, pc}
    181a:	460a      	mov	r2, r1
    181c:	2007      	movs	r0, #7
    181e:	212f      	movs	r1, #47	; 0x2f
    1820:	f7ff fb5a 	bl	ed8 <GPIOCtrl>
    1824:	e7ee      	b.n	1804 <HalI2S0PinCtrlRtl8195A+0xac>
    1826:	460a      	mov	r2, r1
    1828:	2003      	movs	r0, #3
    182a:	214f      	movs	r1, #79	; 0x4f
    182c:	f7ff fb54 	bl	ed8 <GPIOCtrl>
    1830:	e7e8      	b.n	1804 <HalI2S0PinCtrlRtl8195A+0xac>
    1832:	460a      	mov	r2, r1
    1834:	2002      	movs	r0, #2
    1836:	f44f 7178 	mov.w	r1, #992	; 0x3e0
    183a:	f7ff fb4d 	bl	ed8 <GPIOCtrl>
    183e:	e7e1      	b.n	1804 <HalI2S0PinCtrlRtl8195A+0xac>
    1840:	460a      	mov	r2, r1
    1842:	2004      	movs	r0, #4
    1844:	210f      	movs	r1, #15
    1846:	f7ff fb47 	bl	ed8 <GPIOCtrl>
    184a:	462a      	mov	r2, r5
    184c:	2140      	movs	r1, #64	; 0x40
    184e:	2003      	movs	r0, #3
    1850:	f7ff fb42 	bl	ed8 <GPIOCtrl>
    1854:	e7d6      	b.n	1804 <HalI2S0PinCtrlRtl8195A+0xac>
    1856:	460a      	mov	r2, r1
    1858:	2002      	movs	r0, #2
    185a:	f44f 7178 	mov.w	r1, #992	; 0x3e0
    185e:	f7ff fb3b 	bl	ed8 <GPIOCtrl>
    1862:	e799      	b.n	1798 <HalI2S0PinCtrlRtl8195A+0x40>
    1864:	1000031c 	.word	0x1000031c
    1868:	4000028c 	.word	0x4000028c

0000186c <HalI2S1PinCtrlRtl8195A>:
    186c:	2801      	cmp	r0, #1
    186e:	b510      	push	{r4, lr}
    1870:	4604      	mov	r4, r0
    1872:	d030      	beq.n	18d6 <HalI2S1PinCtrlRtl8195A+0x6a>
    1874:	d317      	bcc.n	18a6 <HalI2S1PinCtrlRtl8195A+0x3a>
    1876:	2802      	cmp	r0, #2
    1878:	d00b      	beq.n	1892 <HalI2S1PinCtrlRtl8195A+0x26>
    187a:	b991      	cbnz	r1, 18a2 <HalI2S1PinCtrlRtl8195A+0x36>
    187c:	4b29      	ldr	r3, [pc, #164]	; (1924 <HalI2S1PinCtrlRtl8195A+0xb8>)
    187e:	2001      	movs	r0, #1
    1880:	681a      	ldr	r2, [r3, #0]
    1882:	f022 02c0 	bic.w	r2, r2, #192	; 0xc0
    1886:	601a      	str	r2, [r3, #0]
    1888:	681a      	ldr	r2, [r3, #0]
    188a:	f022 0210 	bic.w	r2, r2, #16
    188e:	601a      	str	r2, [r3, #0]
    1890:	bd10      	pop	{r4, pc}
    1892:	2900      	cmp	r1, #0
    1894:	d032      	beq.n	18fc <HalI2S1PinCtrlRtl8195A+0x90>
    1896:	4b24      	ldr	r3, [pc, #144]	; (1928 <HalI2S1PinCtrlRtl8195A+0xbc>)
    1898:	891b      	ldrh	r3, [r3, #8]
    189a:	f403 73f8 	and.w	r3, r3, #496	; 0x1f0
    189e:	2b00      	cmp	r3, #0
    18a0:	d039      	beq.n	1916 <HalI2S1PinCtrlRtl8195A+0xaa>
    18a2:	2000      	movs	r0, #0
    18a4:	bd10      	pop	{r4, pc}
    18a6:	b319      	cbz	r1, 18f0 <HalI2S1PinCtrlRtl8195A+0x84>
    18a8:	4b1f      	ldr	r3, [pc, #124]	; (1928 <HalI2S1PinCtrlRtl8195A+0xbc>)
    18aa:	889b      	ldrh	r3, [r3, #4]
    18ac:	06db      	lsls	r3, r3, #27
    18ae:	d1f8      	bne.n	18a2 <HalI2S1PinCtrlRtl8195A+0x36>
    18b0:	460a      	mov	r2, r1
    18b2:	2002      	movs	r0, #2
    18b4:	211f      	movs	r1, #31
    18b6:	f7ff fb0f 	bl	ed8 <GPIOCtrl>
    18ba:	4a1a      	ldr	r2, [pc, #104]	; (1924 <HalI2S1PinCtrlRtl8195A+0xb8>)
    18bc:	01a4      	lsls	r4, r4, #6
    18be:	6813      	ldr	r3, [r2, #0]
    18c0:	b2e4      	uxtb	r4, r4
    18c2:	f023 03c0 	bic.w	r3, r3, #192	; 0xc0
    18c6:	431c      	orrs	r4, r3
    18c8:	6014      	str	r4, [r2, #0]
    18ca:	6813      	ldr	r3, [r2, #0]
    18cc:	2001      	movs	r0, #1
    18ce:	f043 0310 	orr.w	r3, r3, #16
    18d2:	6013      	str	r3, [r2, #0]
    18d4:	bd10      	pop	{r4, pc}
    18d6:	b1c1      	cbz	r1, 190a <HalI2S1PinCtrlRtl8195A+0x9e>
    18d8:	4b13      	ldr	r3, [pc, #76]	; (1928 <HalI2S1PinCtrlRtl8195A+0xbc>)
    18da:	88db      	ldrh	r3, [r3, #6]
    18dc:	f003 03f8 	and.w	r3, r3, #248	; 0xf8
    18e0:	2b00      	cmp	r3, #0
    18e2:	d1de      	bne.n	18a2 <HalI2S1PinCtrlRtl8195A+0x36>
    18e4:	460a      	mov	r2, r1
    18e6:	2003      	movs	r0, #3
    18e8:	21f8      	movs	r1, #248	; 0xf8
    18ea:	f7ff faf5 	bl	ed8 <GPIOCtrl>
    18ee:	e7e4      	b.n	18ba <HalI2S1PinCtrlRtl8195A+0x4e>
    18f0:	460a      	mov	r2, r1
    18f2:	2002      	movs	r0, #2
    18f4:	211f      	movs	r1, #31
    18f6:	f7ff faef 	bl	ed8 <GPIOCtrl>
    18fa:	e7bf      	b.n	187c <HalI2S1PinCtrlRtl8195A+0x10>
    18fc:	460a      	mov	r2, r1
    18fe:	2004      	movs	r0, #4
    1900:	f44f 71f8 	mov.w	r1, #496	; 0x1f0
    1904:	f7ff fae8 	bl	ed8 <GPIOCtrl>
    1908:	e7b8      	b.n	187c <HalI2S1PinCtrlRtl8195A+0x10>
    190a:	460a      	mov	r2, r1
    190c:	2003      	movs	r0, #3
    190e:	21f8      	movs	r1, #248	; 0xf8
    1910:	f7ff fae2 	bl	ed8 <GPIOCtrl>
    1914:	e7b2      	b.n	187c <HalI2S1PinCtrlRtl8195A+0x10>
    1916:	460a      	mov	r2, r1
    1918:	2004      	movs	r0, #4
    191a:	f44f 71f8 	mov.w	r1, #496	; 0x1f0
    191e:	f7ff fadb 	bl	ed8 <GPIOCtrl>
    1922:	e7ca      	b.n	18ba <HalI2S1PinCtrlRtl8195A+0x4e>
    1924:	4000028c 	.word	0x4000028c
    1928:	1000031c 	.word	0x1000031c

0000192c <HalPCM0PinCtrlRtl8195A>:
    192c:	b510      	push	{r4, lr}
    192e:	4604      	mov	r4, r0
    1930:	2803      	cmp	r0, #3
    1932:	d83f      	bhi.n	19b4 <HalPCM0PinCtrlRtl8195A+0x88>
    1934:	e8df f000 	tbb	[pc, r0]
    1938:	020a1633 	.word	0x020a1633
    193c:	2900      	cmp	r1, #0
    193e:	d053      	beq.n	19e8 <HalPCM0PinCtrlRtl8195A+0xbc>
    1940:	4b32      	ldr	r3, [pc, #200]	; (1a0c <HalPCM0PinCtrlRtl8195A+0xe0>)
    1942:	891b      	ldrh	r3, [r3, #8]
    1944:	071b      	lsls	r3, r3, #28
    1946:	d05b      	beq.n	1a00 <HalPCM0PinCtrlRtl8195A+0xd4>
    1948:	2000      	movs	r0, #0
    194a:	bd10      	pop	{r4, pc}
    194c:	2900      	cmp	r1, #0
    194e:	d045      	beq.n	19dc <HalPCM0PinCtrlRtl8195A+0xb0>
    1950:	4b2e      	ldr	r3, [pc, #184]	; (1a0c <HalPCM0PinCtrlRtl8195A+0xe0>)
    1952:	88db      	ldrh	r3, [r3, #6]
    1954:	071a      	lsls	r2, r3, #28
    1956:	d1f7      	bne.n	1948 <HalPCM0PinCtrlRtl8195A+0x1c>
    1958:	460a      	mov	r2, r1
    195a:	2003      	movs	r0, #3
    195c:	210f      	movs	r1, #15
    195e:	f7ff fabb 	bl	ed8 <GPIOCtrl>
    1962:	e00d      	b.n	1980 <HalPCM0PinCtrlRtl8195A+0x54>
    1964:	2900      	cmp	r1, #0
    1966:	d032      	beq.n	19ce <HalPCM0PinCtrlRtl8195A+0xa2>
    1968:	4b28      	ldr	r3, [pc, #160]	; (1a0c <HalPCM0PinCtrlRtl8195A+0xe0>)
    196a:	889b      	ldrh	r3, [r3, #4]
    196c:	f403 7370 	and.w	r3, r3, #960	; 0x3c0
    1970:	2b00      	cmp	r3, #0
    1972:	d1e9      	bne.n	1948 <HalPCM0PinCtrlRtl8195A+0x1c>
    1974:	460a      	mov	r2, r1
    1976:	2002      	movs	r0, #2
    1978:	f44f 7170 	mov.w	r1, #960	; 0x3c0
    197c:	f7ff faac 	bl	ed8 <GPIOCtrl>
    1980:	4a23      	ldr	r2, [pc, #140]	; (1a10 <HalPCM0PinCtrlRtl8195A+0xe4>)
    1982:	0464      	lsls	r4, r4, #17
    1984:	6813      	ldr	r3, [r2, #0]
    1986:	f404 2460 	and.w	r4, r4, #917504	; 0xe0000
    198a:	f423 2360 	bic.w	r3, r3, #917504	; 0xe0000
    198e:	431c      	orrs	r4, r3
    1990:	6014      	str	r4, [r2, #0]
    1992:	6813      	ldr	r3, [r2, #0]
    1994:	2001      	movs	r0, #1
    1996:	f443 3380 	orr.w	r3, r3, #65536	; 0x10000
    199a:	6013      	str	r3, [r2, #0]
    199c:	bd10      	pop	{r4, pc}
    199e:	b349      	cbz	r1, 19f4 <HalPCM0PinCtrlRtl8195A+0xc8>
    19a0:	4b1a      	ldr	r3, [pc, #104]	; (1a0c <HalPCM0PinCtrlRtl8195A+0xe0>)
    19a2:	89db      	ldrh	r3, [r3, #14]
    19a4:	0718      	lsls	r0, r3, #28
    19a6:	d1cf      	bne.n	1948 <HalPCM0PinCtrlRtl8195A+0x1c>
    19a8:	460a      	mov	r2, r1
    19aa:	2007      	movs	r0, #7
    19ac:	210f      	movs	r1, #15
    19ae:	f7ff fa93 	bl	ed8 <GPIOCtrl>
    19b2:	e7e5      	b.n	1980 <HalPCM0PinCtrlRtl8195A+0x54>
    19b4:	2900      	cmp	r1, #0
    19b6:	d1c7      	bne.n	1948 <HalPCM0PinCtrlRtl8195A+0x1c>
    19b8:	4b15      	ldr	r3, [pc, #84]	; (1a10 <HalPCM0PinCtrlRtl8195A+0xe4>)
    19ba:	2001      	movs	r0, #1
    19bc:	681a      	ldr	r2, [r3, #0]
    19be:	f422 2260 	bic.w	r2, r2, #917504	; 0xe0000
    19c2:	601a      	str	r2, [r3, #0]
    19c4:	681a      	ldr	r2, [r3, #0]
    19c6:	f422 3280 	bic.w	r2, r2, #65536	; 0x10000
    19ca:	601a      	str	r2, [r3, #0]
    19cc:	bd10      	pop	{r4, pc}
    19ce:	460a      	mov	r2, r1
    19d0:	2002      	movs	r0, #2
    19d2:	f44f 7170 	mov.w	r1, #960	; 0x3c0
    19d6:	f7ff fa7f 	bl	ed8 <GPIOCtrl>
    19da:	e7ed      	b.n	19b8 <HalPCM0PinCtrlRtl8195A+0x8c>
    19dc:	460a      	mov	r2, r1
    19de:	2003      	movs	r0, #3
    19e0:	210f      	movs	r1, #15
    19e2:	f7ff fa79 	bl	ed8 <GPIOCtrl>
    19e6:	e7e7      	b.n	19b8 <HalPCM0PinCtrlRtl8195A+0x8c>
    19e8:	460a      	mov	r2, r1
    19ea:	2004      	movs	r0, #4
    19ec:	210f      	movs	r1, #15
    19ee:	f7ff fa73 	bl	ed8 <GPIOCtrl>
    19f2:	e7e1      	b.n	19b8 <HalPCM0PinCtrlRtl8195A+0x8c>
    19f4:	460a      	mov	r2, r1
    19f6:	2007      	movs	r0, #7
    19f8:	210f      	movs	r1, #15
    19fa:	f7ff fa6d 	bl	ed8 <GPIOCtrl>
    19fe:	e7db      	b.n	19b8 <HalPCM0PinCtrlRtl8195A+0x8c>
    1a00:	460a      	mov	r2, r1
    1a02:	2004      	movs	r0, #4
    1a04:	210f      	movs	r1, #15
    1a06:	f7ff fa67 	bl	ed8 <GPIOCtrl>
    1a0a:	e7b9      	b.n	1980 <HalPCM0PinCtrlRtl8195A+0x54>
    1a0c:	1000031c 	.word	0x1000031c
    1a10:	4000028c 	.word	0x4000028c

00001a14 <HalPCM1PinCtrlRtl8195A>:
    1a14:	2801      	cmp	r0, #1
    1a16:	b510      	push	{r4, lr}
    1a18:	4604      	mov	r4, r0
    1a1a:	d031      	beq.n	1a80 <HalPCM1PinCtrlRtl8195A+0x6c>
    1a1c:	d317      	bcc.n	1a4e <HalPCM1PinCtrlRtl8195A+0x3a>
    1a1e:	2802      	cmp	r0, #2
    1a20:	d00b      	beq.n	1a3a <HalPCM1PinCtrlRtl8195A+0x26>
    1a22:	b991      	cbnz	r1, 1a4a <HalPCM1PinCtrlRtl8195A+0x36>
    1a24:	4b29      	ldr	r3, [pc, #164]	; (1acc <HalPCM1PinCtrlRtl8195A+0xb8>)
    1a26:	2001      	movs	r0, #1
    1a28:	681a      	ldr	r2, [r3, #0]
    1a2a:	f422 0260 	bic.w	r2, r2, #14680064	; 0xe00000
    1a2e:	601a      	str	r2, [r3, #0]
    1a30:	681a      	ldr	r2, [r3, #0]
    1a32:	f422 1280 	bic.w	r2, r2, #1048576	; 0x100000
    1a36:	601a      	str	r2, [r3, #0]
    1a38:	bd10      	pop	{r4, pc}
    1a3a:	2900      	cmp	r1, #0
    1a3c:	d033      	beq.n	1aa6 <HalPCM1PinCtrlRtl8195A+0x92>
    1a3e:	4b24      	ldr	r3, [pc, #144]	; (1ad0 <HalPCM1PinCtrlRtl8195A+0xbc>)
    1a40:	891b      	ldrh	r3, [r3, #8]
    1a42:	f003 03f0 	and.w	r3, r3, #240	; 0xf0
    1a46:	2b00      	cmp	r3, #0
    1a48:	d039      	beq.n	1abe <HalPCM1PinCtrlRtl8195A+0xaa>
    1a4a:	2000      	movs	r0, #0
    1a4c:	bd10      	pop	{r4, pc}
    1a4e:	b321      	cbz	r1, 1a9a <HalPCM1PinCtrlRtl8195A+0x86>
    1a50:	4b1f      	ldr	r3, [pc, #124]	; (1ad0 <HalPCM1PinCtrlRtl8195A+0xbc>)
    1a52:	889b      	ldrh	r3, [r3, #4]
    1a54:	071b      	lsls	r3, r3, #28
    1a56:	d1f8      	bne.n	1a4a <HalPCM1PinCtrlRtl8195A+0x36>
    1a58:	460a      	mov	r2, r1
    1a5a:	2002      	movs	r0, #2
    1a5c:	210f      	movs	r1, #15
    1a5e:	f7ff fa3b 	bl	ed8 <GPIOCtrl>
    1a62:	4a1a      	ldr	r2, [pc, #104]	; (1acc <HalPCM1PinCtrlRtl8195A+0xb8>)
    1a64:	0564      	lsls	r4, r4, #21
    1a66:	6813      	ldr	r3, [r2, #0]
    1a68:	f404 0460 	and.w	r4, r4, #14680064	; 0xe00000
    1a6c:	f423 0360 	bic.w	r3, r3, #14680064	; 0xe00000
    1a70:	431c      	orrs	r4, r3
    1a72:	6014      	str	r4, [r2, #0]
    1a74:	6813      	ldr	r3, [r2, #0]
    1a76:	2001      	movs	r0, #1
    1a78:	f443 1380 	orr.w	r3, r3, #1048576	; 0x100000
    1a7c:	6013      	str	r3, [r2, #0]
    1a7e:	bd10      	pop	{r4, pc}
    1a80:	b1b9      	cbz	r1, 1ab2 <HalPCM1PinCtrlRtl8195A+0x9e>
    1a82:	4b13      	ldr	r3, [pc, #76]	; (1ad0 <HalPCM1PinCtrlRtl8195A+0xbc>)
    1a84:	88db      	ldrh	r3, [r3, #6]
    1a86:	f003 03f0 	and.w	r3, r3, #240	; 0xf0
    1a8a:	2b00      	cmp	r3, #0
    1a8c:	d1dd      	bne.n	1a4a <HalPCM1PinCtrlRtl8195A+0x36>
    1a8e:	460a      	mov	r2, r1
    1a90:	2003      	movs	r0, #3
    1a92:	21f0      	movs	r1, #240	; 0xf0
    1a94:	f7ff fa20 	bl	ed8 <GPIOCtrl>
    1a98:	e7e3      	b.n	1a62 <HalPCM1PinCtrlRtl8195A+0x4e>
    1a9a:	460a      	mov	r2, r1
    1a9c:	2002      	movs	r0, #2
    1a9e:	210f      	movs	r1, #15
    1aa0:	f7ff fa1a 	bl	ed8 <GPIOCtrl>
    1aa4:	e7be      	b.n	1a24 <HalPCM1PinCtrlRtl8195A+0x10>
    1aa6:	460a      	mov	r2, r1
    1aa8:	2004      	movs	r0, #4
    1aaa:	21f0      	movs	r1, #240	; 0xf0
    1aac:	f7ff fa14 	bl	ed8 <GPIOCtrl>
    1ab0:	e7b8      	b.n	1a24 <HalPCM1PinCtrlRtl8195A+0x10>
    1ab2:	460a      	mov	r2, r1
    1ab4:	2003      	movs	r0, #3
    1ab6:	21f0      	movs	r1, #240	; 0xf0
    1ab8:	f7ff fa0e 	bl	ed8 <GPIOCtrl>
    1abc:	e7b2      	b.n	1a24 <HalPCM1PinCtrlRtl8195A+0x10>
    1abe:	460a      	mov	r2, r1
    1ac0:	2004      	movs	r0, #4
    1ac2:	21f0      	movs	r1, #240	; 0xf0
    1ac4:	f7ff fa08 	bl	ed8 <GPIOCtrl>
    1ac8:	e7cb      	b.n	1a62 <HalPCM1PinCtrlRtl8195A+0x4e>
    1aca:	bf00      	nop
    1acc:	4000028c 	.word	0x4000028c
    1ad0:	1000031c 	.word	0x1000031c

00001ad4 <HalSDIODPinCtrlRtl8195A>:
    1ad4:	b508      	push	{r3, lr}
    1ad6:	b181      	cbz	r1, 1afa <HalSDIODPinCtrlRtl8195A+0x26>
    1ad8:	4b11      	ldr	r3, [pc, #68]	; (1b20 <HalSDIODPinCtrlRtl8195A+0x4c>)
    1ada:	8818      	ldrh	r0, [r3, #0]
    1adc:	f010 007f 	ands.w	r0, r0, #127	; 0x7f
    1ae0:	d001      	beq.n	1ae6 <HalSDIODPinCtrlRtl8195A+0x12>
    1ae2:	2000      	movs	r0, #0
    1ae4:	bd08      	pop	{r3, pc}
    1ae6:	217f      	movs	r1, #127	; 0x7f
    1ae8:	f7ff f9e2 	bl	eb0 <GPIOCtrl.part.0>
    1aec:	4a0d      	ldr	r2, [pc, #52]	; (1b24 <HalSDIODPinCtrlRtl8195A+0x50>)
    1aee:	2001      	movs	r0, #1
    1af0:	6813      	ldr	r3, [r2, #0]
    1af2:	f043 0302 	orr.w	r3, r3, #2
    1af6:	6013      	str	r3, [r2, #0]
    1af8:	bd08      	pop	{r3, pc}
    1afa:	4a09      	ldr	r2, [pc, #36]	; (1b20 <HalSDIODPinCtrlRtl8195A+0x4c>)
    1afc:	8813      	ldrh	r3, [r2, #0]
    1afe:	f023 037f 	bic.w	r3, r3, #127	; 0x7f
    1b02:	b29b      	uxth	r3, r3
    1b04:	8013      	strh	r3, [r2, #0]
    1b06:	b923      	cbnz	r3, 1b12 <HalSDIODPinCtrlRtl8195A+0x3e>
    1b08:	4a07      	ldr	r2, [pc, #28]	; (1b28 <HalSDIODPinCtrlRtl8195A+0x54>)
    1b0a:	6813      	ldr	r3, [r2, #0]
    1b0c:	f023 0301 	bic.w	r3, r3, #1
    1b10:	6013      	str	r3, [r2, #0]
    1b12:	4a04      	ldr	r2, [pc, #16]	; (1b24 <HalSDIODPinCtrlRtl8195A+0x50>)
    1b14:	2001      	movs	r0, #1
    1b16:	6813      	ldr	r3, [r2, #0]
    1b18:	f023 0302 	bic.w	r3, r3, #2
    1b1c:	6013      	str	r3, [r2, #0]
    1b1e:	bd08      	pop	{r3, pc}
    1b20:	1000031c 	.word	0x1000031c
    1b24:	400002a0 	.word	0x400002a0
    1b28:	40000320 	.word	0x40000320

00001b2c <HalSDIOHPinCtrlRtl8195A>:
    1b2c:	b508      	push	{r3, lr}
    1b2e:	b171      	cbz	r1, 1b4e <HalSDIOHPinCtrlRtl8195A+0x22>
    1b30:	4b10      	ldr	r3, [pc, #64]	; (1b74 <HalSDIOHPinCtrlRtl8195A+0x48>)
    1b32:	7818      	ldrb	r0, [r3, #0]
    1b34:	b108      	cbz	r0, 1b3a <HalSDIOHPinCtrlRtl8195A+0xe>
    1b36:	2000      	movs	r0, #0
    1b38:	bd08      	pop	{r3, pc}
    1b3a:	21ff      	movs	r1, #255	; 0xff
    1b3c:	f7ff f9b8 	bl	eb0 <GPIOCtrl.part.0>
    1b40:	4a0d      	ldr	r2, [pc, #52]	; (1b78 <HalSDIOHPinCtrlRtl8195A+0x4c>)
    1b42:	2001      	movs	r0, #1
    1b44:	6813      	ldr	r3, [r2, #0]
    1b46:	f043 0302 	orr.w	r3, r3, #2
    1b4a:	6013      	str	r3, [r2, #0]
    1b4c:	bd08      	pop	{r3, pc}
    1b4e:	4a09      	ldr	r2, [pc, #36]	; (1b74 <HalSDIOHPinCtrlRtl8195A+0x48>)
    1b50:	8813      	ldrh	r3, [r2, #0]
    1b52:	f403 437f 	and.w	r3, r3, #65280	; 0xff00
    1b56:	8013      	strh	r3, [r2, #0]
    1b58:	b923      	cbnz	r3, 1b64 <HalSDIOHPinCtrlRtl8195A+0x38>
    1b5a:	4a08      	ldr	r2, [pc, #32]	; (1b7c <HalSDIOHPinCtrlRtl8195A+0x50>)
    1b5c:	6813      	ldr	r3, [r2, #0]
    1b5e:	f023 0301 	bic.w	r3, r3, #1
    1b62:	6013      	str	r3, [r2, #0]
    1b64:	4a04      	ldr	r2, [pc, #16]	; (1b78 <HalSDIOHPinCtrlRtl8195A+0x4c>)
    1b66:	2001      	movs	r0, #1
    1b68:	6813      	ldr	r3, [r2, #0]
    1b6a:	f023 0302 	bic.w	r3, r3, #2
    1b6e:	6013      	str	r3, [r2, #0]
    1b70:	bd08      	pop	{r3, pc}
    1b72:	bf00      	nop
    1b74:	1000031c 	.word	0x1000031c
    1b78:	400002a0 	.word	0x400002a0
    1b7c:	40000320 	.word	0x40000320

00001b80 <HalMIIPinCtrlRtl8195A>:
    1b80:	b508      	push	{r3, lr}
    1b82:	4a25      	ldr	r2, [pc, #148]	; (1c18 <HalMIIPinCtrlRtl8195A+0x98>)
    1b84:	b301      	cbz	r1, 1bc8 <HalMIIPinCtrlRtl8195A+0x48>
    1b86:	8893      	ldrh	r3, [r2, #4]
    1b88:	7811      	ldrb	r1, [r2, #0]
    1b8a:	f3c3 0306 	ubfx	r3, r3, #0, #7
    1b8e:	2900      	cmp	r1, #0
    1b90:	bf08      	it	eq
    1b92:	2b00      	cmpeq	r3, #0
    1b94:	d116      	bne.n	1bc4 <HalMIIPinCtrlRtl8195A+0x44>
    1b96:	88d3      	ldrh	r3, [r2, #6]
    1b98:	f003 0330 	and.w	r3, r3, #48	; 0x30
    1b9c:	b993      	cbnz	r3, 1bc4 <HalMIIPinCtrlRtl8195A+0x44>
    1b9e:	21ff      	movs	r1, #255	; 0xff
    1ba0:	2000      	movs	r0, #0
    1ba2:	f7ff f985 	bl	eb0 <GPIOCtrl.part.0>
    1ba6:	217f      	movs	r1, #127	; 0x7f
    1ba8:	2002      	movs	r0, #2
    1baa:	f7ff f981 	bl	eb0 <GPIOCtrl.part.0>
    1bae:	2130      	movs	r1, #48	; 0x30
    1bb0:	2003      	movs	r0, #3
    1bb2:	f7ff f97d 	bl	eb0 <GPIOCtrl.part.0>
    1bb6:	4a19      	ldr	r2, [pc, #100]	; (1c1c <HalMIIPinCtrlRtl8195A+0x9c>)
    1bb8:	2001      	movs	r0, #1
    1bba:	6813      	ldr	r3, [r2, #0]
    1bbc:	f043 7380 	orr.w	r3, r3, #16777216	; 0x1000000
    1bc0:	6013      	str	r3, [r2, #0]
    1bc2:	bd08      	pop	{r3, pc}
    1bc4:	2000      	movs	r0, #0
    1bc6:	bd08      	pop	{r3, pc}
    1bc8:	8813      	ldrh	r3, [r2, #0]
    1bca:	f403 437f 	and.w	r3, r3, #65280	; 0xff00
    1bce:	8013      	strh	r3, [r2, #0]
    1bd0:	b923      	cbnz	r3, 1bdc <HalMIIPinCtrlRtl8195A+0x5c>
    1bd2:	4913      	ldr	r1, [pc, #76]	; (1c20 <HalMIIPinCtrlRtl8195A+0xa0>)
    1bd4:	680b      	ldr	r3, [r1, #0]
    1bd6:	f023 0301 	bic.w	r3, r3, #1
    1bda:	600b      	str	r3, [r1, #0]
    1bdc:	8893      	ldrh	r3, [r2, #4]
    1bde:	f023 037f 	bic.w	r3, r3, #127	; 0x7f
    1be2:	b29b      	uxth	r3, r3
    1be4:	8093      	strh	r3, [r2, #4]
    1be6:	b923      	cbnz	r3, 1bf2 <HalMIIPinCtrlRtl8195A+0x72>
    1be8:	490d      	ldr	r1, [pc, #52]	; (1c20 <HalMIIPinCtrlRtl8195A+0xa0>)
    1bea:	680b      	ldr	r3, [r1, #0]
    1bec:	f023 0304 	bic.w	r3, r3, #4
    1bf0:	600b      	str	r3, [r1, #0]
    1bf2:	88d3      	ldrh	r3, [r2, #6]
    1bf4:	f023 0330 	bic.w	r3, r3, #48	; 0x30
    1bf8:	b29b      	uxth	r3, r3
    1bfa:	80d3      	strh	r3, [r2, #6]
    1bfc:	b923      	cbnz	r3, 1c08 <HalMIIPinCtrlRtl8195A+0x88>
    1bfe:	4a08      	ldr	r2, [pc, #32]	; (1c20 <HalMIIPinCtrlRtl8195A+0xa0>)
    1c00:	6813      	ldr	r3, [r2, #0]
    1c02:	f023 0308 	bic.w	r3, r3, #8
    1c06:	6013      	str	r3, [r2, #0]
    1c08:	4a04      	ldr	r2, [pc, #16]	; (1c1c <HalMIIPinCtrlRtl8195A+0x9c>)
    1c0a:	2001      	movs	r0, #1
    1c0c:	6813      	ldr	r3, [r2, #0]
    1c0e:	f023 7380 	bic.w	r3, r3, #16777216	; 0x1000000
    1c12:	6013      	str	r3, [r2, #0]
    1c14:	bd08      	pop	{r3, pc}
    1c16:	bf00      	nop
    1c18:	1000031c 	.word	0x1000031c
    1c1c:	400002a0 	.word	0x400002a0
    1c20:	40000320 	.word	0x40000320

00001c24 <HalWLLEDPinCtrlRtl8195A>:
    1c24:	2801      	cmp	r0, #1
    1c26:	b510      	push	{r4, lr}
    1c28:	4604      	mov	r4, r0
    1c2a:	d02d      	beq.n	1c88 <HalWLLEDPinCtrlRtl8195A+0x64>
    1c2c:	d314      	bcc.n	1c58 <HalWLLEDPinCtrlRtl8195A+0x34>
    1c2e:	2802      	cmp	r0, #2
    1c30:	d00b      	beq.n	1c4a <HalWLLEDPinCtrlRtl8195A+0x26>
    1c32:	b979      	cbnz	r1, 1c54 <HalWLLEDPinCtrlRtl8195A+0x30>
    1c34:	4b25      	ldr	r3, [pc, #148]	; (1ccc <HalWLLEDPinCtrlRtl8195A+0xa8>)
    1c36:	2001      	movs	r0, #1
    1c38:	681a      	ldr	r2, [r3, #0]
    1c3a:	f022 0206 	bic.w	r2, r2, #6
    1c3e:	601a      	str	r2, [r3, #0]
    1c40:	681a      	ldr	r2, [r3, #0]
    1c42:	f022 0201 	bic.w	r2, r2, #1
    1c46:	601a      	str	r2, [r3, #0]
    1c48:	bd10      	pop	{r4, pc}
    1c4a:	b369      	cbz	r1, 1ca8 <HalWLLEDPinCtrlRtl8195A+0x84>
    1c4c:	4b20      	ldr	r3, [pc, #128]	; (1cd0 <HalWLLEDPinCtrlRtl8195A+0xac>)
    1c4e:	885b      	ldrh	r3, [r3, #2]
    1c50:	079b      	lsls	r3, r3, #30
    1c52:	d534      	bpl.n	1cbe <HalWLLEDPinCtrlRtl8195A+0x9a>
    1c54:	2000      	movs	r0, #0
    1c56:	bd10      	pop	{r4, pc}
    1c58:	b301      	cbz	r1, 1c9c <HalWLLEDPinCtrlRtl8195A+0x78>
    1c5a:	4b1d      	ldr	r3, [pc, #116]	; (1cd0 <HalWLLEDPinCtrlRtl8195A+0xac>)
    1c5c:	885b      	ldrh	r3, [r3, #2]
    1c5e:	0698      	lsls	r0, r3, #26
    1c60:	d4f8      	bmi.n	1c54 <HalWLLEDPinCtrlRtl8195A+0x30>
    1c62:	460a      	mov	r2, r1
    1c64:	2001      	movs	r0, #1
    1c66:	2120      	movs	r1, #32
    1c68:	f7ff f936 	bl	ed8 <GPIOCtrl>
    1c6c:	4a17      	ldr	r2, [pc, #92]	; (1ccc <HalWLLEDPinCtrlRtl8195A+0xa8>)
    1c6e:	0064      	lsls	r4, r4, #1
    1c70:	6813      	ldr	r3, [r2, #0]
    1c72:	f004 0406 	and.w	r4, r4, #6
    1c76:	f023 0306 	bic.w	r3, r3, #6
    1c7a:	431c      	orrs	r4, r3
    1c7c:	6014      	str	r4, [r2, #0]
    1c7e:	6813      	ldr	r3, [r2, #0]
    1c80:	2001      	movs	r0, #1
    1c82:	4303      	orrs	r3, r0
    1c84:	6013      	str	r3, [r2, #0]
    1c86:	bd10      	pop	{r4, pc}
    1c88:	b1a1      	cbz	r1, 1cb4 <HalWLLEDPinCtrlRtl8195A+0x90>
    1c8a:	4b11      	ldr	r3, [pc, #68]	; (1cd0 <HalWLLEDPinCtrlRtl8195A+0xac>)
    1c8c:	885b      	ldrh	r3, [r3, #2]
    1c8e:	06da      	lsls	r2, r3, #27
    1c90:	d4e0      	bmi.n	1c54 <HalWLLEDPinCtrlRtl8195A+0x30>
    1c92:	460a      	mov	r2, r1
    1c94:	2110      	movs	r1, #16
    1c96:	f7ff f91f 	bl	ed8 <GPIOCtrl>
    1c9a:	e7e7      	b.n	1c6c <HalWLLEDPinCtrlRtl8195A+0x48>
    1c9c:	460a      	mov	r2, r1
    1c9e:	2001      	movs	r0, #1
    1ca0:	2120      	movs	r1, #32
    1ca2:	f7ff f919 	bl	ed8 <GPIOCtrl>
    1ca6:	e7c5      	b.n	1c34 <HalWLLEDPinCtrlRtl8195A+0x10>
    1ca8:	460a      	mov	r2, r1
    1caa:	4601      	mov	r1, r0
    1cac:	2001      	movs	r0, #1
    1cae:	f7ff f913 	bl	ed8 <GPIOCtrl>
    1cb2:	e7bf      	b.n	1c34 <HalWLLEDPinCtrlRtl8195A+0x10>
    1cb4:	460a      	mov	r2, r1
    1cb6:	2110      	movs	r1, #16
    1cb8:	f7ff f90e 	bl	ed8 <GPIOCtrl>
    1cbc:	e7ba      	b.n	1c34 <HalWLLEDPinCtrlRtl8195A+0x10>
    1cbe:	460a      	mov	r2, r1
    1cc0:	4601      	mov	r1, r0
    1cc2:	2001      	movs	r0, #1
    1cc4:	f7ff f908 	bl	ed8 <GPIOCtrl>
    1cc8:	e7d0      	b.n	1c6c <HalWLLEDPinCtrlRtl8195A+0x48>
    1cca:	bf00      	nop
    1ccc:	400002a4 	.word	0x400002a4
    1cd0:	1000031c 	.word	0x1000031c

00001cd4 <HalWLANT0PinCtrlRtl8195A>:
    1cd4:	b508      	push	{r3, lr}
    1cd6:	b189      	cbz	r1, 1cfc <HalWLANT0PinCtrlRtl8195A+0x28>
    1cd8:	4b12      	ldr	r3, [pc, #72]	; (1d24 <HalWLANT0PinCtrlRtl8195A+0x50>)
    1cda:	885b      	ldrh	r3, [r3, #2]
    1cdc:	f003 030c 	and.w	r3, r3, #12
    1ce0:	b10b      	cbz	r3, 1ce6 <HalWLANT0PinCtrlRtl8195A+0x12>
    1ce2:	2000      	movs	r0, #0
    1ce4:	bd08      	pop	{r3, pc}
    1ce6:	210c      	movs	r1, #12
    1ce8:	2001      	movs	r0, #1
    1cea:	f7ff f8e1 	bl	eb0 <GPIOCtrl.part.0>
    1cee:	4a0e      	ldr	r2, [pc, #56]	; (1d28 <HalWLANT0PinCtrlRtl8195A+0x54>)
    1cf0:	2001      	movs	r0, #1
    1cf2:	6813      	ldr	r3, [r2, #0]
    1cf4:	f443 7380 	orr.w	r3, r3, #256	; 0x100
    1cf8:	6013      	str	r3, [r2, #0]
    1cfa:	bd08      	pop	{r3, pc}
    1cfc:	4a09      	ldr	r2, [pc, #36]	; (1d24 <HalWLANT0PinCtrlRtl8195A+0x50>)
    1cfe:	8853      	ldrh	r3, [r2, #2]
    1d00:	f023 030c 	bic.w	r3, r3, #12
    1d04:	b29b      	uxth	r3, r3
    1d06:	8053      	strh	r3, [r2, #2]
    1d08:	b923      	cbnz	r3, 1d14 <HalWLANT0PinCtrlRtl8195A+0x40>
    1d0a:	4a08      	ldr	r2, [pc, #32]	; (1d2c <HalWLANT0PinCtrlRtl8195A+0x58>)
    1d0c:	6813      	ldr	r3, [r2, #0]
    1d0e:	f023 0302 	bic.w	r3, r3, #2
    1d12:	6013      	str	r3, [r2, #0]
    1d14:	4a04      	ldr	r2, [pc, #16]	; (1d28 <HalWLANT0PinCtrlRtl8195A+0x54>)
    1d16:	2001      	movs	r0, #1
    1d18:	6813      	ldr	r3, [r2, #0]
    1d1a:	f423 7380 	bic.w	r3, r3, #256	; 0x100
    1d1e:	6013      	str	r3, [r2, #0]
    1d20:	bd08      	pop	{r3, pc}
    1d22:	bf00      	nop
    1d24:	1000031c 	.word	0x1000031c
    1d28:	400002a4 	.word	0x400002a4
    1d2c:	40000320 	.word	0x40000320

00001d30 <HalWLANT1PinCtrlRtl8195A>:
    1d30:	b508      	push	{r3, lr}
    1d32:	b189      	cbz	r1, 1d58 <HalWLANT1PinCtrlRtl8195A+0x28>
    1d34:	4b12      	ldr	r3, [pc, #72]	; (1d80 <HalWLANT1PinCtrlRtl8195A+0x50>)
    1d36:	885b      	ldrh	r3, [r3, #2]
    1d38:	f003 03c0 	and.w	r3, r3, #192	; 0xc0
    1d3c:	b10b      	cbz	r3, 1d42 <HalWLANT1PinCtrlRtl8195A+0x12>
    1d3e:	2000      	movs	r0, #0
    1d40:	bd08      	pop	{r3, pc}
    1d42:	21c0      	movs	r1, #192	; 0xc0
    1d44:	2001      	movs	r0, #1
    1d46:	f7ff f8b3 	bl	eb0 <GPIOCtrl.part.0>
    1d4a:	4a0e      	ldr	r2, [pc, #56]	; (1d84 <HalWLANT1PinCtrlRtl8195A+0x54>)
    1d4c:	2001      	movs	r0, #1
    1d4e:	6813      	ldr	r3, [r2, #0]
    1d50:	f443 7300 	orr.w	r3, r3, #512	; 0x200
    1d54:	6013      	str	r3, [r2, #0]
    1d56:	bd08      	pop	{r3, pc}
    1d58:	4a09      	ldr	r2, [pc, #36]	; (1d80 <HalWLANT1PinCtrlRtl8195A+0x50>)
    1d5a:	8853      	ldrh	r3, [r2, #2]
    1d5c:	f023 03c0 	bic.w	r3, r3, #192	; 0xc0
    1d60:	b29b      	uxth	r3, r3
    1d62:	8053      	strh	r3, [r2, #2]
    1d64:	b923      	cbnz	r3, 1d70 <HalWLANT1PinCtrlRtl8195A+0x40>
    1d66:	4a08      	ldr	r2, [pc, #32]	; (1d88 <HalWLANT1PinCtrlRtl8195A+0x58>)
    1d68:	6813      	ldr	r3, [r2, #0]
    1d6a:	f023 0302 	bic.w	r3, r3, #2
    1d6e:	6013      	str	r3, [r2, #0]
    1d70:	4a04      	ldr	r2, [pc, #16]	; (1d84 <HalWLANT1PinCtrlRtl8195A+0x54>)
    1d72:	2001      	movs	r0, #1
    1d74:	6813      	ldr	r3, [r2, #0]
    1d76:	f423 7300 	bic.w	r3, r3, #512	; 0x200
    1d7a:	6013      	str	r3, [r2, #0]
    1d7c:	bd08      	pop	{r3, pc}
    1d7e:	bf00      	nop
    1d80:	1000031c 	.word	0x1000031c
    1d84:	400002a4 	.word	0x400002a4
    1d88:	40000320 	.word	0x40000320

00001d8c <HalWLBTCOEXPinCtrlRtl8195A>:
    1d8c:	b508      	push	{r3, lr}
    1d8e:	b181      	cbz	r1, 1db2 <HalWLBTCOEXPinCtrlRtl8195A+0x26>
    1d90:	4b11      	ldr	r3, [pc, #68]	; (1dd8 <HalWLBTCOEXPinCtrlRtl8195A+0x4c>)
    1d92:	889b      	ldrh	r3, [r3, #4]
    1d94:	071b      	lsls	r3, r3, #28
    1d96:	d001      	beq.n	1d9c <HalWLBTCOEXPinCtrlRtl8195A+0x10>
    1d98:	2000      	movs	r0, #0
    1d9a:	bd08      	pop	{r3, pc}
    1d9c:	210f      	movs	r1, #15
    1d9e:	2002      	movs	r0, #2
    1da0:	f7ff f886 	bl	eb0 <GPIOCtrl.part.0>
    1da4:	4a0d      	ldr	r2, [pc, #52]	; (1ddc <HalWLBTCOEXPinCtrlRtl8195A+0x50>)
    1da6:	2001      	movs	r0, #1
    1da8:	6813      	ldr	r3, [r2, #0]
    1daa:	f443 5380 	orr.w	r3, r3, #4096	; 0x1000
    1dae:	6013      	str	r3, [r2, #0]
    1db0:	bd08      	pop	{r3, pc}
    1db2:	4a09      	ldr	r2, [pc, #36]	; (1dd8 <HalWLBTCOEXPinCtrlRtl8195A+0x4c>)
    1db4:	8893      	ldrh	r3, [r2, #4]
    1db6:	f023 030f 	bic.w	r3, r3, #15
    1dba:	b29b      	uxth	r3, r3
    1dbc:	8093      	strh	r3, [r2, #4]
    1dbe:	b923      	cbnz	r3, 1dca <HalWLBTCOEXPinCtrlRtl8195A+0x3e>
    1dc0:	4a07      	ldr	r2, [pc, #28]	; (1de0 <HalWLBTCOEXPinCtrlRtl8195A+0x54>)
    1dc2:	6813      	ldr	r3, [r2, #0]
    1dc4:	f023 0304 	bic.w	r3, r3, #4
    1dc8:	6013      	str	r3, [r2, #0]
    1dca:	4a04      	ldr	r2, [pc, #16]	; (1ddc <HalWLBTCOEXPinCtrlRtl8195A+0x50>)
    1dcc:	2001      	movs	r0, #1
    1dce:	6813      	ldr	r3, [r2, #0]
    1dd0:	f423 5380 	bic.w	r3, r3, #4096	; 0x1000
    1dd4:	6013      	str	r3, [r2, #0]
    1dd6:	bd08      	pop	{r3, pc}
    1dd8:	1000031c 	.word	0x1000031c
    1ddc:	400002a4 	.word	0x400002a4
    1de0:	40000320 	.word	0x40000320

00001de4 <HalWLBTCMDPinCtrlRtl8195A>:
    1de4:	b508      	push	{r3, lr}
    1de6:	b189      	cbz	r1, 1e0c <HalWLBTCMDPinCtrlRtl8195A+0x28>
    1de8:	4b12      	ldr	r3, [pc, #72]	; (1e34 <HalWLBTCMDPinCtrlRtl8195A+0x50>)
    1dea:	889b      	ldrh	r3, [r3, #4]
    1dec:	f003 0370 	and.w	r3, r3, #112	; 0x70
    1df0:	b10b      	cbz	r3, 1df6 <HalWLBTCMDPinCtrlRtl8195A+0x12>
    1df2:	2000      	movs	r0, #0
    1df4:	bd08      	pop	{r3, pc}
    1df6:	2170      	movs	r1, #112	; 0x70
    1df8:	2002      	movs	r0, #2
    1dfa:	f7ff f859 	bl	eb0 <GPIOCtrl.part.0>
    1dfe:	4a0e      	ldr	r2, [pc, #56]	; (1e38 <HalWLBTCMDPinCtrlRtl8195A+0x54>)
    1e00:	2001      	movs	r0, #1
    1e02:	6813      	ldr	r3, [r2, #0]
    1e04:	f443 5300 	orr.w	r3, r3, #8192	; 0x2000
    1e08:	6013      	str	r3, [r2, #0]
    1e0a:	bd08      	pop	{r3, pc}
    1e0c:	4a09      	ldr	r2, [pc, #36]	; (1e34 <HalWLBTCMDPinCtrlRtl8195A+0x50>)
    1e0e:	8893      	ldrh	r3, [r2, #4]
    1e10:	f023 0370 	bic.w	r3, r3, #112	; 0x70
    1e14:	b29b      	uxth	r3, r3
    1e16:	8093      	strh	r3, [r2, #4]
    1e18:	b923      	cbnz	r3, 1e24 <HalWLBTCMDPinCtrlRtl8195A+0x40>
    1e1a:	4a08      	ldr	r2, [pc, #32]	; (1e3c <HalWLBTCMDPinCtrlRtl8195A+0x58>)
    1e1c:	6813      	ldr	r3, [r2, #0]
    1e1e:	f023 0304 	bic.w	r3, r3, #4
    1e22:	6013      	str	r3, [r2, #0]
    1e24:	4a04      	ldr	r2, [pc, #16]	; (1e38 <HalWLBTCMDPinCtrlRtl8195A+0x54>)
    1e26:	2001      	movs	r0, #1
    1e28:	6813      	ldr	r3, [r2, #0]
    1e2a:	f423 5300 	bic.w	r3, r3, #8192	; 0x2000
    1e2e:	6013      	str	r3, [r2, #0]
    1e30:	bd08      	pop	{r3, pc}
    1e32:	bf00      	nop
    1e34:	1000031c 	.word	0x1000031c
    1e38:	400002a4 	.word	0x400002a4
    1e3c:	40000320 	.word	0x40000320

00001e40 <HalNFCPinCtrlRtl8195A>:
    1e40:	b508      	push	{r3, lr}
    1e42:	b181      	cbz	r1, 1e66 <HalNFCPinCtrlRtl8195A+0x26>
    1e44:	4b11      	ldr	r3, [pc, #68]	; (1e8c <HalNFCPinCtrlRtl8195A+0x4c>)
    1e46:	885b      	ldrh	r3, [r3, #2]
    1e48:	069b      	lsls	r3, r3, #26
    1e4a:	d001      	beq.n	1e50 <HalNFCPinCtrlRtl8195A+0x10>
    1e4c:	2000      	movs	r0, #0
    1e4e:	bd08      	pop	{r3, pc}
    1e50:	213f      	movs	r1, #63	; 0x3f
    1e52:	2001      	movs	r0, #1
    1e54:	f7ff f82c 	bl	eb0 <GPIOCtrl.part.0>
    1e58:	4a0d      	ldr	r2, [pc, #52]	; (1e90 <HalNFCPinCtrlRtl8195A+0x50>)
    1e5a:	2001      	movs	r0, #1
    1e5c:	6813      	ldr	r3, [r2, #0]
    1e5e:	f443 3380 	orr.w	r3, r3, #65536	; 0x10000
    1e62:	6013      	str	r3, [r2, #0]
    1e64:	bd08      	pop	{r3, pc}
    1e66:	4a09      	ldr	r2, [pc, #36]	; (1e8c <HalNFCPinCtrlRtl8195A+0x4c>)
    1e68:	8853      	ldrh	r3, [r2, #2]
    1e6a:	f023 033f 	bic.w	r3, r3, #63	; 0x3f
    1e6e:	b29b      	uxth	r3, r3
    1e70:	8053      	strh	r3, [r2, #2]
    1e72:	b923      	cbnz	r3, 1e7e <HalNFCPinCtrlRtl8195A+0x3e>
    1e74:	4a07      	ldr	r2, [pc, #28]	; (1e94 <HalNFCPinCtrlRtl8195A+0x54>)
    1e76:	6813      	ldr	r3, [r2, #0]
    1e78:	f023 0302 	bic.w	r3, r3, #2
    1e7c:	6013      	str	r3, [r2, #0]
    1e7e:	4a04      	ldr	r2, [pc, #16]	; (1e90 <HalNFCPinCtrlRtl8195A+0x50>)
    1e80:	2001      	movs	r0, #1
    1e82:	6813      	ldr	r3, [r2, #0]
    1e84:	f423 3380 	bic.w	r3, r3, #65536	; 0x10000
    1e88:	6013      	str	r3, [r2, #0]
    1e8a:	bd08      	pop	{r3, pc}
    1e8c:	1000031c 	.word	0x1000031c
    1e90:	400002a4 	.word	0x400002a4
    1e94:	40000320 	.word	0x40000320

00001e98 <HalPWM0PinCtrlRtl8195A>:
    1e98:	b538      	push	{r3, r4, r5, lr}
    1e9a:	4604      	mov	r4, r0
    1e9c:	460d      	mov	r5, r1
    1e9e:	2803      	cmp	r0, #3
    1ea0:	d83f      	bhi.n	1f22 <HalPWM0PinCtrlRtl8195A+0x8a>
    1ea2:	e8df f000 	tbb	[pc, r0]
    1ea6:	1633      	.short	0x1633
    1ea8:	020a      	.short	0x020a
    1eaa:	2900      	cmp	r1, #0
    1eac:	d052      	beq.n	1f54 <HalPWM0PinCtrlRtl8195A+0xbc>
    1eae:	4b32      	ldr	r3, [pc, #200]	; (1f78 <HalPWM0PinCtrlRtl8195A+0xe0>)
    1eb0:	891b      	ldrh	r3, [r3, #8]
    1eb2:	07db      	lsls	r3, r3, #31
    1eb4:	d55a      	bpl.n	1f6c <HalPWM0PinCtrlRtl8195A+0xd4>
    1eb6:	2000      	movs	r0, #0
    1eb8:	bd38      	pop	{r3, r4, r5, pc}
    1eba:	2900      	cmp	r1, #0
    1ebc:	d044      	beq.n	1f48 <HalPWM0PinCtrlRtl8195A+0xb0>
    1ebe:	4b2e      	ldr	r3, [pc, #184]	; (1f78 <HalPWM0PinCtrlRtl8195A+0xe0>)
    1ec0:	88db      	ldrh	r3, [r3, #6]
    1ec2:	06da      	lsls	r2, r3, #27
    1ec4:	d4f7      	bmi.n	1eb6 <HalPWM0PinCtrlRtl8195A+0x1e>
    1ec6:	460a      	mov	r2, r1
    1ec8:	2003      	movs	r0, #3
    1eca:	2110      	movs	r1, #16
    1ecc:	f7ff f804 	bl	ed8 <GPIOCtrl>
    1ed0:	e00a      	b.n	1ee8 <HalPWM0PinCtrlRtl8195A+0x50>
    1ed2:	2900      	cmp	r1, #0
    1ed4:	d032      	beq.n	1f3c <HalPWM0PinCtrlRtl8195A+0xa4>
    1ed6:	4b28      	ldr	r3, [pc, #160]	; (1f78 <HalPWM0PinCtrlRtl8195A+0xe0>)
    1ed8:	889b      	ldrh	r3, [r3, #4]
    1eda:	07d9      	lsls	r1, r3, #31
    1edc:	d4eb      	bmi.n	1eb6 <HalPWM0PinCtrlRtl8195A+0x1e>
    1ede:	462a      	mov	r2, r5
    1ee0:	2101      	movs	r1, #1
    1ee2:	2002      	movs	r0, #2
    1ee4:	f7fe fff8 	bl	ed8 <GPIOCtrl>
    1ee8:	4a24      	ldr	r2, [pc, #144]	; (1f7c <HalPWM0PinCtrlRtl8195A+0xe4>)
    1eea:	0064      	lsls	r4, r4, #1
    1eec:	6813      	ldr	r3, [r2, #0]
    1eee:	f004 0406 	and.w	r4, r4, #6
    1ef2:	f023 0306 	bic.w	r3, r3, #6
    1ef6:	431c      	orrs	r4, r3
    1ef8:	6014      	str	r4, [r2, #0]
    1efa:	6813      	ldr	r3, [r2, #0]
    1efc:	f005 0501 	and.w	r5, r5, #1
    1f00:	f023 0301 	bic.w	r3, r3, #1
    1f04:	431d      	orrs	r5, r3
    1f06:	6015      	str	r5, [r2, #0]
    1f08:	2001      	movs	r0, #1
    1f0a:	bd38      	pop	{r3, r4, r5, pc}
    1f0c:	b341      	cbz	r1, 1f60 <HalPWM0PinCtrlRtl8195A+0xc8>
    1f0e:	4b1a      	ldr	r3, [pc, #104]	; (1f78 <HalPWM0PinCtrlRtl8195A+0xe0>)
    1f10:	885b      	ldrh	r3, [r3, #2]
    1f12:	06d8      	lsls	r0, r3, #27
    1f14:	d4cf      	bmi.n	1eb6 <HalPWM0PinCtrlRtl8195A+0x1e>
    1f16:	460a      	mov	r2, r1
    1f18:	2001      	movs	r0, #1
    1f1a:	2110      	movs	r1, #16
    1f1c:	f7fe ffdc 	bl	ed8 <GPIOCtrl>
    1f20:	e7e2      	b.n	1ee8 <HalPWM0PinCtrlRtl8195A+0x50>
    1f22:	2900      	cmp	r1, #0
    1f24:	d1c7      	bne.n	1eb6 <HalPWM0PinCtrlRtl8195A+0x1e>
    1f26:	4b15      	ldr	r3, [pc, #84]	; (1f7c <HalPWM0PinCtrlRtl8195A+0xe4>)
    1f28:	2001      	movs	r0, #1
    1f2a:	681a      	ldr	r2, [r3, #0]
    1f2c:	f022 0206 	bic.w	r2, r2, #6
    1f30:	601a      	str	r2, [r3, #0]
    1f32:	681a      	ldr	r2, [r3, #0]
    1f34:	f022 0201 	bic.w	r2, r2, #1
    1f38:	601a      	str	r2, [r3, #0]
    1f3a:	bd38      	pop	{r3, r4, r5, pc}
    1f3c:	460a      	mov	r2, r1
    1f3e:	2002      	movs	r0, #2
    1f40:	2101      	movs	r1, #1
    1f42:	f7fe ffc9 	bl	ed8 <GPIOCtrl>
    1f46:	e7ee      	b.n	1f26 <HalPWM0PinCtrlRtl8195A+0x8e>
    1f48:	460a      	mov	r2, r1
    1f4a:	2003      	movs	r0, #3
    1f4c:	2110      	movs	r1, #16
    1f4e:	f7fe ffc3 	bl	ed8 <GPIOCtrl>
    1f52:	e7e8      	b.n	1f26 <HalPWM0PinCtrlRtl8195A+0x8e>
    1f54:	460a      	mov	r2, r1
    1f56:	2004      	movs	r0, #4
    1f58:	2101      	movs	r1, #1
    1f5a:	f7fe ffbd 	bl	ed8 <GPIOCtrl>
    1f5e:	e7e2      	b.n	1f26 <HalPWM0PinCtrlRtl8195A+0x8e>
    1f60:	460a      	mov	r2, r1
    1f62:	2001      	movs	r0, #1
    1f64:	2110      	movs	r1, #16
    1f66:	f7fe ffb7 	bl	ed8 <GPIOCtrl>
    1f6a:	e7dc      	b.n	1f26 <HalPWM0PinCtrlRtl8195A+0x8e>
    1f6c:	460a      	mov	r2, r1
    1f6e:	2004      	movs	r0, #4
    1f70:	2101      	movs	r1, #1
    1f72:	f7fe ffb1 	bl	ed8 <GPIOCtrl>
    1f76:	e7b7      	b.n	1ee8 <HalPWM0PinCtrlRtl8195A+0x50>
    1f78:	1000031c 	.word	0x1000031c
    1f7c:	400002ac 	.word	0x400002ac

00001f80 <HalPWM1PinCtrlRtl8195A>:
    1f80:	b538      	push	{r3, r4, r5, lr}
    1f82:	4604      	mov	r4, r0
    1f84:	460d      	mov	r5, r1
    1f86:	2803      	cmp	r0, #3
    1f88:	d840      	bhi.n	200c <HalPWM1PinCtrlRtl8195A+0x8c>
    1f8a:	e8df f000 	tbb	[pc, r0]
    1f8e:	1634      	.short	0x1634
    1f90:	020a      	.short	0x020a
    1f92:	2900      	cmp	r1, #0
    1f94:	d053      	beq.n	203e <HalPWM1PinCtrlRtl8195A+0xbe>
    1f96:	4b33      	ldr	r3, [pc, #204]	; (2064 <HalPWM1PinCtrlRtl8195A+0xe4>)
    1f98:	891b      	ldrh	r3, [r3, #8]
    1f9a:	079b      	lsls	r3, r3, #30
    1f9c:	d55b      	bpl.n	2056 <HalPWM1PinCtrlRtl8195A+0xd6>
    1f9e:	2000      	movs	r0, #0
    1fa0:	bd38      	pop	{r3, r4, r5, pc}
    1fa2:	2900      	cmp	r1, #0
    1fa4:	d045      	beq.n	2032 <HalPWM1PinCtrlRtl8195A+0xb2>
    1fa6:	4b2f      	ldr	r3, [pc, #188]	; (2064 <HalPWM1PinCtrlRtl8195A+0xe4>)
    1fa8:	88db      	ldrh	r3, [r3, #6]
    1faa:	069a      	lsls	r2, r3, #26
    1fac:	d4f7      	bmi.n	1f9e <HalPWM1PinCtrlRtl8195A+0x1e>
    1fae:	460a      	mov	r2, r1
    1fb0:	2003      	movs	r0, #3
    1fb2:	2120      	movs	r1, #32
    1fb4:	f7fe ff90 	bl	ed8 <GPIOCtrl>
    1fb8:	e00a      	b.n	1fd0 <HalPWM1PinCtrlRtl8195A+0x50>
    1fba:	2900      	cmp	r1, #0
    1fbc:	d033      	beq.n	2026 <HalPWM1PinCtrlRtl8195A+0xa6>
    1fbe:	4b29      	ldr	r3, [pc, #164]	; (2064 <HalPWM1PinCtrlRtl8195A+0xe4>)
    1fc0:	889b      	ldrh	r3, [r3, #4]
    1fc2:	0799      	lsls	r1, r3, #30
    1fc4:	d4eb      	bmi.n	1f9e <HalPWM1PinCtrlRtl8195A+0x1e>
    1fc6:	2102      	movs	r1, #2
    1fc8:	4608      	mov	r0, r1
    1fca:	462a      	mov	r2, r5
    1fcc:	f7fe ff84 	bl	ed8 <GPIOCtrl>
    1fd0:	4a25      	ldr	r2, [pc, #148]	; (2068 <HalPWM1PinCtrlRtl8195A+0xe8>)
    1fd2:	0164      	lsls	r4, r4, #5
    1fd4:	6813      	ldr	r3, [r2, #0]
    1fd6:	f004 0460 	and.w	r4, r4, #96	; 0x60
    1fda:	f023 0360 	bic.w	r3, r3, #96	; 0x60
    1fde:	431c      	orrs	r4, r3
    1fe0:	6014      	str	r4, [r2, #0]
    1fe2:	6813      	ldr	r3, [r2, #0]
    1fe4:	426d      	negs	r5, r5
    1fe6:	f023 0310 	bic.w	r3, r3, #16
    1fea:	f005 0510 	and.w	r5, r5, #16
    1fee:	431d      	orrs	r5, r3
    1ff0:	6015      	str	r5, [r2, #0]
    1ff2:	2001      	movs	r0, #1
    1ff4:	bd38      	pop	{r3, r4, r5, pc}
    1ff6:	b341      	cbz	r1, 204a <HalPWM1PinCtrlRtl8195A+0xca>
    1ff8:	4b1a      	ldr	r3, [pc, #104]	; (2064 <HalPWM1PinCtrlRtl8195A+0xe4>)
    1ffa:	885b      	ldrh	r3, [r3, #2]
    1ffc:	0698      	lsls	r0, r3, #26
    1ffe:	d4ce      	bmi.n	1f9e <HalPWM1PinCtrlRtl8195A+0x1e>
    2000:	460a      	mov	r2, r1
    2002:	2001      	movs	r0, #1
    2004:	2120      	movs	r1, #32
    2006:	f7fe ff67 	bl	ed8 <GPIOCtrl>
    200a:	e7e1      	b.n	1fd0 <HalPWM1PinCtrlRtl8195A+0x50>
    200c:	2900      	cmp	r1, #0
    200e:	d1c6      	bne.n	1f9e <HalPWM1PinCtrlRtl8195A+0x1e>
    2010:	4b15      	ldr	r3, [pc, #84]	; (2068 <HalPWM1PinCtrlRtl8195A+0xe8>)
    2012:	2001      	movs	r0, #1
    2014:	681a      	ldr	r2, [r3, #0]
    2016:	f022 0260 	bic.w	r2, r2, #96	; 0x60
    201a:	601a      	str	r2, [r3, #0]
    201c:	681a      	ldr	r2, [r3, #0]
    201e:	f022 0210 	bic.w	r2, r2, #16
    2022:	601a      	str	r2, [r3, #0]
    2024:	bd38      	pop	{r3, r4, r5, pc}
    2026:	2102      	movs	r1, #2
    2028:	462a      	mov	r2, r5
    202a:	4608      	mov	r0, r1
    202c:	f7fe ff54 	bl	ed8 <GPIOCtrl>
    2030:	e7ee      	b.n	2010 <HalPWM1PinCtrlRtl8195A+0x90>
    2032:	460a      	mov	r2, r1
    2034:	2003      	movs	r0, #3
    2036:	2120      	movs	r1, #32
    2038:	f7fe ff4e 	bl	ed8 <GPIOCtrl>
    203c:	e7e8      	b.n	2010 <HalPWM1PinCtrlRtl8195A+0x90>
    203e:	460a      	mov	r2, r1
    2040:	2004      	movs	r0, #4
    2042:	2102      	movs	r1, #2
    2044:	f7fe ff48 	bl	ed8 <GPIOCtrl>
    2048:	e7e2      	b.n	2010 <HalPWM1PinCtrlRtl8195A+0x90>
    204a:	460a      	mov	r2, r1
    204c:	2001      	movs	r0, #1
    204e:	2120      	movs	r1, #32
    2050:	f7fe ff42 	bl	ed8 <GPIOCtrl>
    2054:	e7dc      	b.n	2010 <HalPWM1PinCtrlRtl8195A+0x90>
    2056:	460a      	mov	r2, r1
    2058:	2004      	movs	r0, #4
    205a:	2102      	movs	r1, #2
    205c:	f7fe ff3c 	bl	ed8 <GPIOCtrl>
    2060:	e7b6      	b.n	1fd0 <HalPWM1PinCtrlRtl8195A+0x50>
    2062:	bf00      	nop
    2064:	1000031c 	.word	0x1000031c
    2068:	400002ac 	.word	0x400002ac

0000206c <HalPWM2PinCtrlRtl8195A>:
    206c:	b510      	push	{r4, lr}
    206e:	460a      	mov	r2, r1
    2070:	4604      	mov	r4, r0
    2072:	2803      	cmp	r0, #3
    2074:	d839      	bhi.n	20ea <HalPWM2PinCtrlRtl8195A+0x7e>
    2076:	e8df f000 	tbb	[pc, r0]
    207a:	152e      	.short	0x152e
    207c:	020a      	.short	0x020a
    207e:	2900      	cmp	r1, #0
    2080:	d04a      	beq.n	2118 <HalPWM2PinCtrlRtl8195A+0xac>
    2082:	4b2d      	ldr	r3, [pc, #180]	; (2138 <HalPWM2PinCtrlRtl8195A+0xcc>)
    2084:	891b      	ldrh	r3, [r3, #8]
    2086:	075b      	lsls	r3, r3, #29
    2088:	d550      	bpl.n	212c <HalPWM2PinCtrlRtl8195A+0xc0>
    208a:	2000      	movs	r0, #0
    208c:	bd10      	pop	{r4, pc}
    208e:	2900      	cmp	r1, #0
    2090:	d03d      	beq.n	210e <HalPWM2PinCtrlRtl8195A+0xa2>
    2092:	4b29      	ldr	r3, [pc, #164]	; (2138 <HalPWM2PinCtrlRtl8195A+0xcc>)
    2094:	88db      	ldrh	r3, [r3, #6]
    2096:	0659      	lsls	r1, r3, #25
    2098:	d4f7      	bmi.n	208a <HalPWM2PinCtrlRtl8195A+0x1e>
    209a:	2140      	movs	r1, #64	; 0x40
    209c:	2003      	movs	r0, #3
    209e:	f7fe ff1b 	bl	ed8 <GPIOCtrl>
    20a2:	e009      	b.n	20b8 <HalPWM2PinCtrlRtl8195A+0x4c>
    20a4:	2900      	cmp	r1, #0
    20a6:	d02d      	beq.n	2104 <HalPWM2PinCtrlRtl8195A+0x98>
    20a8:	4b23      	ldr	r3, [pc, #140]	; (2138 <HalPWM2PinCtrlRtl8195A+0xcc>)
    20aa:	889b      	ldrh	r3, [r3, #4]
    20ac:	0758      	lsls	r0, r3, #29
    20ae:	d4ec      	bmi.n	208a <HalPWM2PinCtrlRtl8195A+0x1e>
    20b0:	2104      	movs	r1, #4
    20b2:	2002      	movs	r0, #2
    20b4:	f7fe ff10 	bl	ed8 <GPIOCtrl>
    20b8:	4a20      	ldr	r2, [pc, #128]	; (213c <HalPWM2PinCtrlRtl8195A+0xd0>)
    20ba:	0264      	lsls	r4, r4, #9
    20bc:	6813      	ldr	r3, [r2, #0]
    20be:	f404 64c0 	and.w	r4, r4, #1536	; 0x600
    20c2:	f423 63c0 	bic.w	r3, r3, #1536	; 0x600
    20c6:	431c      	orrs	r4, r3
    20c8:	6014      	str	r4, [r2, #0]
    20ca:	6813      	ldr	r3, [r2, #0]
    20cc:	2001      	movs	r0, #1
    20ce:	f443 7380 	orr.w	r3, r3, #256	; 0x100
    20d2:	6013      	str	r3, [r2, #0]
    20d4:	bd10      	pop	{r4, pc}
    20d6:	b321      	cbz	r1, 2122 <HalPWM2PinCtrlRtl8195A+0xb6>
    20d8:	4b17      	ldr	r3, [pc, #92]	; (2138 <HalPWM2PinCtrlRtl8195A+0xcc>)
    20da:	885b      	ldrh	r3, [r3, #2]
    20dc:	065b      	lsls	r3, r3, #25
    20de:	d4d4      	bmi.n	208a <HalPWM2PinCtrlRtl8195A+0x1e>
    20e0:	2140      	movs	r1, #64	; 0x40
    20e2:	2001      	movs	r0, #1
    20e4:	f7fe fef8 	bl	ed8 <GPIOCtrl>
    20e8:	e7e6      	b.n	20b8 <HalPWM2PinCtrlRtl8195A+0x4c>
    20ea:	2900      	cmp	r1, #0
    20ec:	d1cd      	bne.n	208a <HalPWM2PinCtrlRtl8195A+0x1e>
    20ee:	4b13      	ldr	r3, [pc, #76]	; (213c <HalPWM2PinCtrlRtl8195A+0xd0>)
    20f0:	2001      	movs	r0, #1
    20f2:	681a      	ldr	r2, [r3, #0]
    20f4:	f422 62c0 	bic.w	r2, r2, #1536	; 0x600
    20f8:	601a      	str	r2, [r3, #0]
    20fa:	681a      	ldr	r2, [r3, #0]
    20fc:	f422 7280 	bic.w	r2, r2, #256	; 0x100
    2100:	601a      	str	r2, [r3, #0]
    2102:	bd10      	pop	{r4, pc}
    2104:	2104      	movs	r1, #4
    2106:	2002      	movs	r0, #2
    2108:	f7fe fee6 	bl	ed8 <GPIOCtrl>
    210c:	e7ef      	b.n	20ee <HalPWM2PinCtrlRtl8195A+0x82>
    210e:	2140      	movs	r1, #64	; 0x40
    2110:	2003      	movs	r0, #3
    2112:	f7fe fee1 	bl	ed8 <GPIOCtrl>
    2116:	e7ea      	b.n	20ee <HalPWM2PinCtrlRtl8195A+0x82>
    2118:	2104      	movs	r1, #4
    211a:	4608      	mov	r0, r1
    211c:	f7fe fedc 	bl	ed8 <GPIOCtrl>
    2120:	e7e5      	b.n	20ee <HalPWM2PinCtrlRtl8195A+0x82>
    2122:	2140      	movs	r1, #64	; 0x40
    2124:	2001      	movs	r0, #1
    2126:	f7fe fed7 	bl	ed8 <GPIOCtrl>
    212a:	e7e0      	b.n	20ee <HalPWM2PinCtrlRtl8195A+0x82>
    212c:	2104      	movs	r1, #4
    212e:	4608      	mov	r0, r1
    2130:	f7fe fed2 	bl	ed8 <GPIOCtrl>
    2134:	e7c0      	b.n	20b8 <HalPWM2PinCtrlRtl8195A+0x4c>
    2136:	bf00      	nop
    2138:	1000031c 	.word	0x1000031c
    213c:	400002ac 	.word	0x400002ac

00002140 <HalPWM3PinCtrlRtl8195A>:
    2140:	b538      	push	{r3, r4, r5, lr}
    2142:	4604      	mov	r4, r0
    2144:	460d      	mov	r5, r1
    2146:	2803      	cmp	r0, #3
    2148:	d840      	bhi.n	21cc <HalPWM3PinCtrlRtl8195A+0x8c>
    214a:	e8df f000 	tbb	[pc, r0]
    214e:	1634      	.short	0x1634
    2150:	020a      	.short	0x020a
    2152:	2900      	cmp	r1, #0
    2154:	d053      	beq.n	21fe <HalPWM3PinCtrlRtl8195A+0xbe>
    2156:	4b33      	ldr	r3, [pc, #204]	; (2224 <HalPWM3PinCtrlRtl8195A+0xe4>)
    2158:	891b      	ldrh	r3, [r3, #8]
    215a:	071b      	lsls	r3, r3, #28
    215c:	d55b      	bpl.n	2216 <HalPWM3PinCtrlRtl8195A+0xd6>
    215e:	2000      	movs	r0, #0
    2160:	bd38      	pop	{r3, r4, r5, pc}
    2162:	2900      	cmp	r1, #0
    2164:	d045      	beq.n	21f2 <HalPWM3PinCtrlRtl8195A+0xb2>
    2166:	4b2f      	ldr	r3, [pc, #188]	; (2224 <HalPWM3PinCtrlRtl8195A+0xe4>)
    2168:	88db      	ldrh	r3, [r3, #6]
    216a:	061a      	lsls	r2, r3, #24
    216c:	d4f7      	bmi.n	215e <HalPWM3PinCtrlRtl8195A+0x1e>
    216e:	460a      	mov	r2, r1
    2170:	2003      	movs	r0, #3
    2172:	2180      	movs	r1, #128	; 0x80
    2174:	f7fe feb0 	bl	ed8 <GPIOCtrl>
    2178:	e00a      	b.n	2190 <HalPWM3PinCtrlRtl8195A+0x50>
    217a:	2900      	cmp	r1, #0
    217c:	d033      	beq.n	21e6 <HalPWM3PinCtrlRtl8195A+0xa6>
    217e:	4b29      	ldr	r3, [pc, #164]	; (2224 <HalPWM3PinCtrlRtl8195A+0xe4>)
    2180:	889b      	ldrh	r3, [r3, #4]
    2182:	0719      	lsls	r1, r3, #28
    2184:	d4eb      	bmi.n	215e <HalPWM3PinCtrlRtl8195A+0x1e>
    2186:	462a      	mov	r2, r5
    2188:	2108      	movs	r1, #8
    218a:	2002      	movs	r0, #2
    218c:	f7fe fea4 	bl	ed8 <GPIOCtrl>
    2190:	4a25      	ldr	r2, [pc, #148]	; (2228 <HalPWM3PinCtrlRtl8195A+0xe8>)
    2192:	0364      	lsls	r4, r4, #13
    2194:	6813      	ldr	r3, [r2, #0]
    2196:	f404 44c0 	and.w	r4, r4, #24576	; 0x6000
    219a:	f423 43c0 	bic.w	r3, r3, #24576	; 0x6000
    219e:	431c      	orrs	r4, r3
    21a0:	6014      	str	r4, [r2, #0]
    21a2:	6813      	ldr	r3, [r2, #0]
    21a4:	426d      	negs	r5, r5
    21a6:	f423 5380 	bic.w	r3, r3, #4096	; 0x1000
    21aa:	f405 5580 	and.w	r5, r5, #4096	; 0x1000
    21ae:	431d      	orrs	r5, r3
    21b0:	6015      	str	r5, [r2, #0]
    21b2:	2001      	movs	r0, #1
    21b4:	bd38      	pop	{r3, r4, r5, pc}
    21b6:	b341      	cbz	r1, 220a <HalPWM3PinCtrlRtl8195A+0xca>
    21b8:	4b1a      	ldr	r3, [pc, #104]	; (2224 <HalPWM3PinCtrlRtl8195A+0xe4>)
    21ba:	885b      	ldrh	r3, [r3, #2]
    21bc:	0618      	lsls	r0, r3, #24
    21be:	d4ce      	bmi.n	215e <HalPWM3PinCtrlRtl8195A+0x1e>
    21c0:	460a      	mov	r2, r1
    21c2:	2001      	movs	r0, #1
    21c4:	2180      	movs	r1, #128	; 0x80
    21c6:	f7fe fe87 	bl	ed8 <GPIOCtrl>
    21ca:	e7e1      	b.n	2190 <HalPWM3PinCtrlRtl8195A+0x50>
    21cc:	2900      	cmp	r1, #0
    21ce:	d1c6      	bne.n	215e <HalPWM3PinCtrlRtl8195A+0x1e>
    21d0:	4b15      	ldr	r3, [pc, #84]	; (2228 <HalPWM3PinCtrlRtl8195A+0xe8>)
    21d2:	2001      	movs	r0, #1
    21d4:	681a      	ldr	r2, [r3, #0]
    21d6:	f422 42c0 	bic.w	r2, r2, #24576	; 0x6000
    21da:	601a      	str	r2, [r3, #0]
    21dc:	681a      	ldr	r2, [r3, #0]
    21de:	f422 5280 	bic.w	r2, r2, #4096	; 0x1000
    21e2:	601a      	str	r2, [r3, #0]
    21e4:	bd38      	pop	{r3, r4, r5, pc}
    21e6:	460a      	mov	r2, r1
    21e8:	2002      	movs	r0, #2
    21ea:	2108      	movs	r1, #8
    21ec:	f7fe fe74 	bl	ed8 <GPIOCtrl>
    21f0:	e7ee      	b.n	21d0 <HalPWM3PinCtrlRtl8195A+0x90>
    21f2:	460a      	mov	r2, r1
    21f4:	2003      	movs	r0, #3
    21f6:	2180      	movs	r1, #128	; 0x80
    21f8:	f7fe fe6e 	bl	ed8 <GPIOCtrl>
    21fc:	e7e8      	b.n	21d0 <HalPWM3PinCtrlRtl8195A+0x90>
    21fe:	460a      	mov	r2, r1
    2200:	2004      	movs	r0, #4
    2202:	2108      	movs	r1, #8
    2204:	f7fe fe68 	bl	ed8 <GPIOCtrl>
    2208:	e7e2      	b.n	21d0 <HalPWM3PinCtrlRtl8195A+0x90>
    220a:	460a      	mov	r2, r1
    220c:	2001      	movs	r0, #1
    220e:	2180      	movs	r1, #128	; 0x80
    2210:	f7fe fe62 	bl	ed8 <GPIOCtrl>
    2214:	e7dc      	b.n	21d0 <HalPWM3PinCtrlRtl8195A+0x90>
    2216:	460a      	mov	r2, r1
    2218:	2004      	movs	r0, #4
    221a:	2108      	movs	r1, #8
    221c:	f7fe fe5c 	bl	ed8 <GPIOCtrl>
    2220:	e7b6      	b.n	2190 <HalPWM3PinCtrlRtl8195A+0x50>
    2222:	bf00      	nop
    2224:	1000031c 	.word	0x1000031c
    2228:	400002ac 	.word	0x400002ac

0000222c <HalETE0PinCtrlRtl8195A>:
    222c:	b538      	push	{r3, r4, r5, lr}
    222e:	4604      	mov	r4, r0
    2230:	460d      	mov	r5, r1
    2232:	2803      	cmp	r0, #3
    2234:	d840      	bhi.n	22b8 <HalETE0PinCtrlRtl8195A+0x8c>
    2236:	e8df f000 	tbb	[pc, r0]
    223a:	1634      	.short	0x1634
    223c:	020a      	.short	0x020a
    223e:	2900      	cmp	r1, #0
    2240:	d053      	beq.n	22ea <HalETE0PinCtrlRtl8195A+0xbe>
    2242:	4b33      	ldr	r3, [pc, #204]	; (2310 <HalETE0PinCtrlRtl8195A+0xe4>)
    2244:	89db      	ldrh	r3, [r3, #14]
    2246:	07db      	lsls	r3, r3, #31
    2248:	d55b      	bpl.n	2302 <HalETE0PinCtrlRtl8195A+0xd6>
    224a:	2000      	movs	r0, #0
    224c:	bd38      	pop	{r3, r4, r5, pc}
    224e:	2900      	cmp	r1, #0
    2250:	d045      	beq.n	22de <HalETE0PinCtrlRtl8195A+0xb2>
    2252:	4b2f      	ldr	r3, [pc, #188]	; (2310 <HalETE0PinCtrlRtl8195A+0xe4>)
    2254:	88db      	ldrh	r3, [r3, #6]
    2256:	06da      	lsls	r2, r3, #27
    2258:	d4f7      	bmi.n	224a <HalETE0PinCtrlRtl8195A+0x1e>
    225a:	460a      	mov	r2, r1
    225c:	2003      	movs	r0, #3
    225e:	2110      	movs	r1, #16
    2260:	f7fe fe3a 	bl	ed8 <GPIOCtrl>
    2264:	e00a      	b.n	227c <HalETE0PinCtrlRtl8195A+0x50>
    2266:	2900      	cmp	r1, #0
    2268:	d033      	beq.n	22d2 <HalETE0PinCtrlRtl8195A+0xa6>
    226a:	4b29      	ldr	r3, [pc, #164]	; (2310 <HalETE0PinCtrlRtl8195A+0xe4>)
    226c:	889b      	ldrh	r3, [r3, #4]
    226e:	07d9      	lsls	r1, r3, #31
    2270:	d4eb      	bmi.n	224a <HalETE0PinCtrlRtl8195A+0x1e>
    2272:	462a      	mov	r2, r5
    2274:	2101      	movs	r1, #1
    2276:	2002      	movs	r0, #2
    2278:	f7fe fe2e 	bl	ed8 <GPIOCtrl>
    227c:	4a25      	ldr	r2, [pc, #148]	; (2314 <HalETE0PinCtrlRtl8195A+0xe8>)
    227e:	0464      	lsls	r4, r4, #17
    2280:	6813      	ldr	r3, [r2, #0]
    2282:	f404 24c0 	and.w	r4, r4, #393216	; 0x60000
    2286:	f423 23c0 	bic.w	r3, r3, #393216	; 0x60000
    228a:	431c      	orrs	r4, r3
    228c:	6014      	str	r4, [r2, #0]
    228e:	6813      	ldr	r3, [r2, #0]
    2290:	426d      	negs	r5, r5
    2292:	f423 3380 	bic.w	r3, r3, #65536	; 0x10000
    2296:	f405 3580 	and.w	r5, r5, #65536	; 0x10000
    229a:	431d      	orrs	r5, r3
    229c:	6015      	str	r5, [r2, #0]
    229e:	2001      	movs	r0, #1
    22a0:	bd38      	pop	{r3, r4, r5, pc}
    22a2:	b341      	cbz	r1, 22f6 <HalETE0PinCtrlRtl8195A+0xca>
    22a4:	4b1a      	ldr	r3, [pc, #104]	; (2310 <HalETE0PinCtrlRtl8195A+0xe4>)
    22a6:	885b      	ldrh	r3, [r3, #2]
    22a8:	07d8      	lsls	r0, r3, #31
    22aa:	d4ce      	bmi.n	224a <HalETE0PinCtrlRtl8195A+0x1e>
    22ac:	2101      	movs	r1, #1
    22ae:	4608      	mov	r0, r1
    22b0:	462a      	mov	r2, r5
    22b2:	f7fe fe11 	bl	ed8 <GPIOCtrl>
    22b6:	e7e1      	b.n	227c <HalETE0PinCtrlRtl8195A+0x50>
    22b8:	2900      	cmp	r1, #0
    22ba:	d1c6      	bne.n	224a <HalETE0PinCtrlRtl8195A+0x1e>
    22bc:	4b15      	ldr	r3, [pc, #84]	; (2314 <HalETE0PinCtrlRtl8195A+0xe8>)
    22be:	2001      	movs	r0, #1
    22c0:	681a      	ldr	r2, [r3, #0]
    22c2:	f422 22c0 	bic.w	r2, r2, #393216	; 0x60000
    22c6:	601a      	str	r2, [r3, #0]
    22c8:	681a      	ldr	r2, [r3, #0]
    22ca:	f422 3280 	bic.w	r2, r2, #65536	; 0x10000
    22ce:	601a      	str	r2, [r3, #0]
    22d0:	bd38      	pop	{r3, r4, r5, pc}
    22d2:	460a      	mov	r2, r1
    22d4:	2002      	movs	r0, #2
    22d6:	2101      	movs	r1, #1
    22d8:	f7fe fdfe 	bl	ed8 <GPIOCtrl>
    22dc:	e7ee      	b.n	22bc <HalETE0PinCtrlRtl8195A+0x90>
    22de:	460a      	mov	r2, r1
    22e0:	2003      	movs	r0, #3
    22e2:	2110      	movs	r1, #16
    22e4:	f7fe fdf8 	bl	ed8 <GPIOCtrl>
    22e8:	e7e8      	b.n	22bc <HalETE0PinCtrlRtl8195A+0x90>
    22ea:	460a      	mov	r2, r1
    22ec:	2007      	movs	r0, #7
    22ee:	2101      	movs	r1, #1
    22f0:	f7fe fdf2 	bl	ed8 <GPIOCtrl>
    22f4:	e7e2      	b.n	22bc <HalETE0PinCtrlRtl8195A+0x90>
    22f6:	2101      	movs	r1, #1
    22f8:	462a      	mov	r2, r5
    22fa:	4608      	mov	r0, r1
    22fc:	f7fe fdec 	bl	ed8 <GPIOCtrl>
    2300:	e7dc      	b.n	22bc <HalETE0PinCtrlRtl8195A+0x90>
    2302:	460a      	mov	r2, r1
    2304:	2007      	movs	r0, #7
    2306:	2101      	movs	r1, #1
    2308:	f7fe fde6 	bl	ed8 <GPIOCtrl>
    230c:	e7b6      	b.n	227c <HalETE0PinCtrlRtl8195A+0x50>
    230e:	bf00      	nop
    2310:	1000031c 	.word	0x1000031c
    2314:	400002ac 	.word	0x400002ac

00002318 <HalETE1PinCtrlRtl8195A>:
    2318:	b538      	push	{r3, r4, r5, lr}
    231a:	4604      	mov	r4, r0
    231c:	460d      	mov	r5, r1
    231e:	2803      	cmp	r0, #3
    2320:	d840      	bhi.n	23a4 <HalETE1PinCtrlRtl8195A+0x8c>
    2322:	e8df f000 	tbb	[pc, r0]
    2326:	1634      	.short	0x1634
    2328:	020a      	.short	0x020a
    232a:	2900      	cmp	r1, #0
    232c:	d053      	beq.n	23d6 <HalETE1PinCtrlRtl8195A+0xbe>
    232e:	4b33      	ldr	r3, [pc, #204]	; (23fc <HalETE1PinCtrlRtl8195A+0xe4>)
    2330:	89db      	ldrh	r3, [r3, #14]
    2332:	079b      	lsls	r3, r3, #30
    2334:	d55b      	bpl.n	23ee <HalETE1PinCtrlRtl8195A+0xd6>
    2336:	2000      	movs	r0, #0
    2338:	bd38      	pop	{r3, r4, r5, pc}
    233a:	2900      	cmp	r1, #0
    233c:	d045      	beq.n	23ca <HalETE1PinCtrlRtl8195A+0xb2>
    233e:	4b2f      	ldr	r3, [pc, #188]	; (23fc <HalETE1PinCtrlRtl8195A+0xe4>)
    2340:	88db      	ldrh	r3, [r3, #6]
    2342:	069a      	lsls	r2, r3, #26
    2344:	d4f7      	bmi.n	2336 <HalETE1PinCtrlRtl8195A+0x1e>
    2346:	460a      	mov	r2, r1
    2348:	2003      	movs	r0, #3
    234a:	2120      	movs	r1, #32
    234c:	f7fe fdc4 	bl	ed8 <GPIOCtrl>
    2350:	e00a      	b.n	2368 <HalETE1PinCtrlRtl8195A+0x50>
    2352:	2900      	cmp	r1, #0
    2354:	d033      	beq.n	23be <HalETE1PinCtrlRtl8195A+0xa6>
    2356:	4b29      	ldr	r3, [pc, #164]	; (23fc <HalETE1PinCtrlRtl8195A+0xe4>)
    2358:	889b      	ldrh	r3, [r3, #4]
    235a:	0799      	lsls	r1, r3, #30
    235c:	d4eb      	bmi.n	2336 <HalETE1PinCtrlRtl8195A+0x1e>
    235e:	2102      	movs	r1, #2
    2360:	4608      	mov	r0, r1
    2362:	462a      	mov	r2, r5
    2364:	f7fe fdb8 	bl	ed8 <GPIOCtrl>
    2368:	4a25      	ldr	r2, [pc, #148]	; (2400 <HalETE1PinCtrlRtl8195A+0xe8>)
    236a:	0564      	lsls	r4, r4, #21
    236c:	6813      	ldr	r3, [r2, #0]
    236e:	f404 04c0 	and.w	r4, r4, #6291456	; 0x600000
    2372:	f423 03c0 	bic.w	r3, r3, #6291456	; 0x600000
    2376:	431c      	orrs	r4, r3
    2378:	6014      	str	r4, [r2, #0]
    237a:	6813      	ldr	r3, [r2, #0]
    237c:	426d      	negs	r5, r5
    237e:	f423 1380 	bic.w	r3, r3, #1048576	; 0x100000
    2382:	f405 1580 	and.w	r5, r5, #1048576	; 0x100000
    2386:	431d      	orrs	r5, r3
    2388:	6015      	str	r5, [r2, #0]
    238a:	2001      	movs	r0, #1
    238c:	bd38      	pop	{r3, r4, r5, pc}
    238e:	b341      	cbz	r1, 23e2 <HalETE1PinCtrlRtl8195A+0xca>
    2390:	4b1a      	ldr	r3, [pc, #104]	; (23fc <HalETE1PinCtrlRtl8195A+0xe4>)
    2392:	885b      	ldrh	r3, [r3, #2]
    2394:	0798      	lsls	r0, r3, #30
    2396:	d4ce      	bmi.n	2336 <HalETE1PinCtrlRtl8195A+0x1e>
    2398:	460a      	mov	r2, r1
    239a:	2001      	movs	r0, #1
    239c:	2102      	movs	r1, #2
    239e:	f7fe fd9b 	bl	ed8 <GPIOCtrl>
    23a2:	e7e1      	b.n	2368 <HalETE1PinCtrlRtl8195A+0x50>
    23a4:	2900      	cmp	r1, #0
    23a6:	d1c6      	bne.n	2336 <HalETE1PinCtrlRtl8195A+0x1e>
    23a8:	4b15      	ldr	r3, [pc, #84]	; (2400 <HalETE1PinCtrlRtl8195A+0xe8>)
    23aa:	2001      	movs	r0, #1
    23ac:	681a      	ldr	r2, [r3, #0]
    23ae:	f422 02c0 	bic.w	r2, r2, #6291456	; 0x600000
    23b2:	601a      	str	r2, [r3, #0]
    23b4:	681a      	ldr	r2, [r3, #0]
    23b6:	f422 1280 	bic.w	r2, r2, #1048576	; 0x100000
    23ba:	601a      	str	r2, [r3, #0]
    23bc:	bd38      	pop	{r3, r4, r5, pc}
    23be:	2102      	movs	r1, #2
    23c0:	462a      	mov	r2, r5
    23c2:	4608      	mov	r0, r1
    23c4:	f7fe fd88 	bl	ed8 <GPIOCtrl>
    23c8:	e7ee      	b.n	23a8 <HalETE1PinCtrlRtl8195A+0x90>
    23ca:	460a      	mov	r2, r1
    23cc:	2003      	movs	r0, #3
    23ce:	2120      	movs	r1, #32
    23d0:	f7fe fd82 	bl	ed8 <GPIOCtrl>
    23d4:	e7e8      	b.n	23a8 <HalETE1PinCtrlRtl8195A+0x90>
    23d6:	460a      	mov	r2, r1
    23d8:	2007      	movs	r0, #7
    23da:	2102      	movs	r1, #2
    23dc:	f7fe fd7c 	bl	ed8 <GPIOCtrl>
    23e0:	e7e2      	b.n	23a8 <HalETE1PinCtrlRtl8195A+0x90>
    23e2:	460a      	mov	r2, r1
    23e4:	2001      	movs	r0, #1
    23e6:	2102      	movs	r1, #2
    23e8:	f7fe fd76 	bl	ed8 <GPIOCtrl>
    23ec:	e7dc      	b.n	23a8 <HalETE1PinCtrlRtl8195A+0x90>
    23ee:	460a      	mov	r2, r1
    23f0:	2007      	movs	r0, #7
    23f2:	2102      	movs	r1, #2
    23f4:	f7fe fd70 	bl	ed8 <GPIOCtrl>
    23f8:	e7b6      	b.n	2368 <HalETE1PinCtrlRtl8195A+0x50>
    23fa:	bf00      	nop
    23fc:	1000031c 	.word	0x1000031c
    2400:	400002ac 	.word	0x400002ac

00002404 <HalETE2PinCtrlRtl8195A>:
    2404:	b538      	push	{r3, r4, r5, lr}
    2406:	4604      	mov	r4, r0
    2408:	460d      	mov	r5, r1
    240a:	2803      	cmp	r0, #3
    240c:	d840      	bhi.n	2490 <HalETE2PinCtrlRtl8195A+0x8c>
    240e:	e8df f000 	tbb	[pc, r0]
    2412:	1634      	.short	0x1634
    2414:	020a      	.short	0x020a
    2416:	2900      	cmp	r1, #0
    2418:	d053      	beq.n	24c2 <HalETE2PinCtrlRtl8195A+0xbe>
    241a:	4b33      	ldr	r3, [pc, #204]	; (24e8 <HalETE2PinCtrlRtl8195A+0xe4>)
    241c:	89db      	ldrh	r3, [r3, #14]
    241e:	075b      	lsls	r3, r3, #29
    2420:	d55b      	bpl.n	24da <HalETE2PinCtrlRtl8195A+0xd6>
    2422:	2000      	movs	r0, #0
    2424:	bd38      	pop	{r3, r4, r5, pc}
    2426:	2900      	cmp	r1, #0
    2428:	d045      	beq.n	24b6 <HalETE2PinCtrlRtl8195A+0xb2>
    242a:	4b2f      	ldr	r3, [pc, #188]	; (24e8 <HalETE2PinCtrlRtl8195A+0xe4>)
    242c:	88db      	ldrh	r3, [r3, #6]
    242e:	065a      	lsls	r2, r3, #25
    2430:	d4f7      	bmi.n	2422 <HalETE2PinCtrlRtl8195A+0x1e>
    2432:	460a      	mov	r2, r1
    2434:	2003      	movs	r0, #3
    2436:	2140      	movs	r1, #64	; 0x40
    2438:	f7fe fd4e 	bl	ed8 <GPIOCtrl>
    243c:	e00a      	b.n	2454 <HalETE2PinCtrlRtl8195A+0x50>
    243e:	2900      	cmp	r1, #0
    2440:	d033      	beq.n	24aa <HalETE2PinCtrlRtl8195A+0xa6>
    2442:	4b29      	ldr	r3, [pc, #164]	; (24e8 <HalETE2PinCtrlRtl8195A+0xe4>)
    2444:	889b      	ldrh	r3, [r3, #4]
    2446:	0759      	lsls	r1, r3, #29
    2448:	d4eb      	bmi.n	2422 <HalETE2PinCtrlRtl8195A+0x1e>
    244a:	462a      	mov	r2, r5
    244c:	2104      	movs	r1, #4
    244e:	2002      	movs	r0, #2
    2450:	f7fe fd42 	bl	ed8 <GPIOCtrl>
    2454:	4a25      	ldr	r2, [pc, #148]	; (24ec <HalETE2PinCtrlRtl8195A+0xe8>)
    2456:	0664      	lsls	r4, r4, #25
    2458:	6813      	ldr	r3, [r2, #0]
    245a:	f004 64c0 	and.w	r4, r4, #100663296	; 0x6000000
    245e:	f023 63c0 	bic.w	r3, r3, #100663296	; 0x6000000
    2462:	431c      	orrs	r4, r3
    2464:	6014      	str	r4, [r2, #0]
    2466:	6813      	ldr	r3, [r2, #0]
    2468:	426d      	negs	r5, r5
    246a:	f023 7380 	bic.w	r3, r3, #16777216	; 0x1000000
    246e:	f005 7580 	and.w	r5, r5, #16777216	; 0x1000000
    2472:	431d      	orrs	r5, r3
    2474:	6015      	str	r5, [r2, #0]
    2476:	2001      	movs	r0, #1
    2478:	bd38      	pop	{r3, r4, r5, pc}
    247a:	b341      	cbz	r1, 24ce <HalETE2PinCtrlRtl8195A+0xca>
    247c:	4b1a      	ldr	r3, [pc, #104]	; (24e8 <HalETE2PinCtrlRtl8195A+0xe4>)
    247e:	885b      	ldrh	r3, [r3, #2]
    2480:	0758      	lsls	r0, r3, #29
    2482:	d4ce      	bmi.n	2422 <HalETE2PinCtrlRtl8195A+0x1e>
    2484:	460a      	mov	r2, r1
    2486:	2001      	movs	r0, #1
    2488:	2104      	movs	r1, #4
    248a:	f7fe fd25 	bl	ed8 <GPIOCtrl>
    248e:	e7e1      	b.n	2454 <HalETE2PinCtrlRtl8195A+0x50>
    2490:	2900      	cmp	r1, #0
    2492:	d1c6      	bne.n	2422 <HalETE2PinCtrlRtl8195A+0x1e>
    2494:	4b15      	ldr	r3, [pc, #84]	; (24ec <HalETE2PinCtrlRtl8195A+0xe8>)
    2496:	2001      	movs	r0, #1
    2498:	681a      	ldr	r2, [r3, #0]
    249a:	f022 62c0 	bic.w	r2, r2, #100663296	; 0x6000000
    249e:	601a      	str	r2, [r3, #0]
    24a0:	681a      	ldr	r2, [r3, #0]
    24a2:	f022 7280 	bic.w	r2, r2, #16777216	; 0x1000000
    24a6:	601a      	str	r2, [r3, #0]
    24a8:	bd38      	pop	{r3, r4, r5, pc}
    24aa:	460a      	mov	r2, r1
    24ac:	2002      	movs	r0, #2
    24ae:	2104      	movs	r1, #4
    24b0:	f7fe fd12 	bl	ed8 <GPIOCtrl>
    24b4:	e7ee      	b.n	2494 <HalETE2PinCtrlRtl8195A+0x90>
    24b6:	460a      	mov	r2, r1
    24b8:	2003      	movs	r0, #3
    24ba:	2140      	movs	r1, #64	; 0x40
    24bc:	f7fe fd0c 	bl	ed8 <GPIOCtrl>
    24c0:	e7e8      	b.n	2494 <HalETE2PinCtrlRtl8195A+0x90>
    24c2:	460a      	mov	r2, r1
    24c4:	2007      	movs	r0, #7
    24c6:	2104      	movs	r1, #4
    24c8:	f7fe fd06 	bl	ed8 <GPIOCtrl>
    24cc:	e7e2      	b.n	2494 <HalETE2PinCtrlRtl8195A+0x90>
    24ce:	460a      	mov	r2, r1
    24d0:	2001      	movs	r0, #1
    24d2:	2104      	movs	r1, #4
    24d4:	f7fe fd00 	bl	ed8 <GPIOCtrl>
    24d8:	e7dc      	b.n	2494 <HalETE2PinCtrlRtl8195A+0x90>
    24da:	460a      	mov	r2, r1
    24dc:	2007      	movs	r0, #7
    24de:	2104      	movs	r1, #4
    24e0:	f7fe fcfa 	bl	ed8 <GPIOCtrl>
    24e4:	e7b6      	b.n	2454 <HalETE2PinCtrlRtl8195A+0x50>
    24e6:	bf00      	nop
    24e8:	1000031c 	.word	0x1000031c
    24ec:	400002ac 	.word	0x400002ac

000024f0 <HalETE3PinCtrlRtl8195A>:
    24f0:	b538      	push	{r3, r4, r5, lr}
    24f2:	4604      	mov	r4, r0
    24f4:	460d      	mov	r5, r1
    24f6:	2803      	cmp	r0, #3
    24f8:	d840      	bhi.n	257c <HalETE3PinCtrlRtl8195A+0x8c>
    24fa:	e8df f000 	tbb	[pc, r0]
    24fe:	1634      	.short	0x1634
    2500:	020a      	.short	0x020a
    2502:	2900      	cmp	r1, #0
    2504:	d053      	beq.n	25ae <HalETE3PinCtrlRtl8195A+0xbe>
    2506:	4b33      	ldr	r3, [pc, #204]	; (25d4 <HalETE3PinCtrlRtl8195A+0xe4>)
    2508:	89db      	ldrh	r3, [r3, #14]
    250a:	071b      	lsls	r3, r3, #28
    250c:	d55b      	bpl.n	25c6 <HalETE3PinCtrlRtl8195A+0xd6>
    250e:	2000      	movs	r0, #0
    2510:	bd38      	pop	{r3, r4, r5, pc}
    2512:	2900      	cmp	r1, #0
    2514:	d045      	beq.n	25a2 <HalETE3PinCtrlRtl8195A+0xb2>
    2516:	4b2f      	ldr	r3, [pc, #188]	; (25d4 <HalETE3PinCtrlRtl8195A+0xe4>)
    2518:	88db      	ldrh	r3, [r3, #6]
    251a:	061a      	lsls	r2, r3, #24
    251c:	d4f7      	bmi.n	250e <HalETE3PinCtrlRtl8195A+0x1e>
    251e:	460a      	mov	r2, r1
    2520:	2003      	movs	r0, #3
    2522:	2180      	movs	r1, #128	; 0x80
    2524:	f7fe fcd8 	bl	ed8 <GPIOCtrl>
    2528:	e00a      	b.n	2540 <HalETE3PinCtrlRtl8195A+0x50>
    252a:	2900      	cmp	r1, #0
    252c:	d033      	beq.n	2596 <HalETE3PinCtrlRtl8195A+0xa6>
    252e:	4b29      	ldr	r3, [pc, #164]	; (25d4 <HalETE3PinCtrlRtl8195A+0xe4>)
    2530:	889b      	ldrh	r3, [r3, #4]
    2532:	0719      	lsls	r1, r3, #28
    2534:	d4eb      	bmi.n	250e <HalETE3PinCtrlRtl8195A+0x1e>
    2536:	462a      	mov	r2, r5
    2538:	2108      	movs	r1, #8
    253a:	2002      	movs	r0, #2
    253c:	f7fe fccc 	bl	ed8 <GPIOCtrl>
    2540:	4a25      	ldr	r2, [pc, #148]	; (25d8 <HalETE3PinCtrlRtl8195A+0xe8>)
    2542:	0764      	lsls	r4, r4, #29
    2544:	6813      	ldr	r3, [r2, #0]
    2546:	f004 44c0 	and.w	r4, r4, #1610612736	; 0x60000000
    254a:	f023 43c0 	bic.w	r3, r3, #1610612736	; 0x60000000
    254e:	431c      	orrs	r4, r3
    2550:	6014      	str	r4, [r2, #0]
    2552:	6813      	ldr	r3, [r2, #0]
    2554:	426d      	negs	r5, r5
    2556:	f023 5380 	bic.w	r3, r3, #268435456	; 0x10000000
    255a:	f005 5580 	and.w	r5, r5, #268435456	; 0x10000000
    255e:	431d      	orrs	r5, r3
    2560:	6015      	str	r5, [r2, #0]
    2562:	2001      	movs	r0, #1
    2564:	bd38      	pop	{r3, r4, r5, pc}
    2566:	b341      	cbz	r1, 25ba <HalETE3PinCtrlRtl8195A+0xca>
    2568:	4b1a      	ldr	r3, [pc, #104]	; (25d4 <HalETE3PinCtrlRtl8195A+0xe4>)
    256a:	885b      	ldrh	r3, [r3, #2]
    256c:	0718      	lsls	r0, r3, #28
    256e:	d4ce      	bmi.n	250e <HalETE3PinCtrlRtl8195A+0x1e>
    2570:	460a      	mov	r2, r1
    2572:	2001      	movs	r0, #1
    2574:	2108      	movs	r1, #8
    2576:	f7fe fcaf 	bl	ed8 <GPIOCtrl>
    257a:	e7e1      	b.n	2540 <HalETE3PinCtrlRtl8195A+0x50>
    257c:	2900      	cmp	r1, #0
    257e:	d1c6      	bne.n	250e <HalETE3PinCtrlRtl8195A+0x1e>
    2580:	4b15      	ldr	r3, [pc, #84]	; (25d8 <HalETE3PinCtrlRtl8195A+0xe8>)
    2582:	2001      	movs	r0, #1
    2584:	681a      	ldr	r2, [r3, #0]
    2586:	f022 42c0 	bic.w	r2, r2, #1610612736	; 0x60000000
    258a:	601a      	str	r2, [r3, #0]
    258c:	681a      	ldr	r2, [r3, #0]
    258e:	f022 5280 	bic.w	r2, r2, #268435456	; 0x10000000
    2592:	601a      	str	r2, [r3, #0]
    2594:	bd38      	pop	{r3, r4, r5, pc}
    2596:	460a      	mov	r2, r1
    2598:	2002      	movs	r0, #2
    259a:	2108      	movs	r1, #8
    259c:	f7fe fc9c 	bl	ed8 <GPIOCtrl>
    25a0:	e7ee      	b.n	2580 <HalETE3PinCtrlRtl8195A+0x90>
    25a2:	460a      	mov	r2, r1
    25a4:	2003      	movs	r0, #3
    25a6:	2180      	movs	r1, #128	; 0x80
    25a8:	f7fe fc96 	bl	ed8 <GPIOCtrl>
    25ac:	e7e8      	b.n	2580 <HalETE3PinCtrlRtl8195A+0x90>
    25ae:	460a      	mov	r2, r1
    25b0:	2007      	movs	r0, #7
    25b2:	2108      	movs	r1, #8
    25b4:	f7fe fc90 	bl	ed8 <GPIOCtrl>
    25b8:	e7e2      	b.n	2580 <HalETE3PinCtrlRtl8195A+0x90>
    25ba:	460a      	mov	r2, r1
    25bc:	2001      	movs	r0, #1
    25be:	2108      	movs	r1, #8
    25c0:	f7fe fc8a 	bl	ed8 <GPIOCtrl>
    25c4:	e7dc      	b.n	2580 <HalETE3PinCtrlRtl8195A+0x90>
    25c6:	460a      	mov	r2, r1
    25c8:	2007      	movs	r0, #7
    25ca:	2108      	movs	r1, #8
    25cc:	f7fe fc84 	bl	ed8 <GPIOCtrl>
    25d0:	e7b6      	b.n	2540 <HalETE3PinCtrlRtl8195A+0x50>
    25d2:	bf00      	nop
    25d4:	1000031c 	.word	0x1000031c
    25d8:	400002ac 	.word	0x400002ac

000025dc <HalEGTIMPinCtrlRtl8195A>:
    25dc:	b371      	cbz	r1, 263c <HalEGTIMPinCtrlRtl8195A+0x60>
    25de:	4a2b      	ldr	r2, [pc, #172]	; (268c <HalEGTIMPinCtrlRtl8195A+0xb0>)
    25e0:	8853      	ldrh	r3, [r2, #2]
    25e2:	7910      	ldrb	r0, [r2, #4]
    25e4:	f083 0320 	eor.w	r3, r3, #32
    25e8:	f3c3 1340 	ubfx	r3, r3, #5, #1
    25ec:	2800      	cmp	r0, #0
    25ee:	bf14      	ite	ne
    25f0:	2300      	movne	r3, #0
    25f2:	f003 0301 	andeq.w	r3, r3, #1
    25f6:	b1fb      	cbz	r3, 2638 <HalEGTIMPinCtrlRtl8195A+0x5c>
    25f8:	8913      	ldrh	r3, [r2, #8]
    25fa:	f3c3 0309 	ubfx	r3, r3, #0, #10
    25fe:	b9db      	cbnz	r3, 2638 <HalEGTIMPinCtrlRtl8195A+0x5c>
    2600:	b510      	push	{r4, lr}
    2602:	460c      	mov	r4, r1
    2604:	460a      	mov	r2, r1
    2606:	2001      	movs	r0, #1
    2608:	2120      	movs	r1, #32
    260a:	f7fe fc65 	bl	ed8 <GPIOCtrl>
    260e:	4622      	mov	r2, r4
    2610:	21ff      	movs	r1, #255	; 0xff
    2612:	2002      	movs	r0, #2
    2614:	f7fe fc60 	bl	ed8 <GPIOCtrl>
    2618:	4622      	mov	r2, r4
    261a:	f240 31ff 	movw	r1, #1023	; 0x3ff
    261e:	2004      	movs	r0, #4
    2620:	f7fe fc5a 	bl	ed8 <GPIOCtrl>
    2624:	4b1a      	ldr	r3, [pc, #104]	; (2690 <HalEGTIMPinCtrlRtl8195A+0xb4>)
    2626:	f004 0101 	and.w	r1, r4, #1
    262a:	681c      	ldr	r4, [r3, #0]
    262c:	2001      	movs	r0, #1
    262e:	f024 0401 	bic.w	r4, r4, #1
    2632:	4321      	orrs	r1, r4
    2634:	6019      	str	r1, [r3, #0]
    2636:	bd10      	pop	{r4, pc}
    2638:	2000      	movs	r0, #0
    263a:	4770      	bx	lr
    263c:	4b13      	ldr	r3, [pc, #76]	; (268c <HalEGTIMPinCtrlRtl8195A+0xb0>)
    263e:	885a      	ldrh	r2, [r3, #2]
    2640:	f022 0220 	bic.w	r2, r2, #32
    2644:	b292      	uxth	r2, r2
    2646:	805a      	strh	r2, [r3, #2]
    2648:	b922      	cbnz	r2, 2654 <HalEGTIMPinCtrlRtl8195A+0x78>
    264a:	4912      	ldr	r1, [pc, #72]	; (2694 <HalEGTIMPinCtrlRtl8195A+0xb8>)
    264c:	680a      	ldr	r2, [r1, #0]
    264e:	f022 0202 	bic.w	r2, r2, #2
    2652:	600a      	str	r2, [r1, #0]
    2654:	889a      	ldrh	r2, [r3, #4]
    2656:	f402 427f 	and.w	r2, r2, #65280	; 0xff00
    265a:	809a      	strh	r2, [r3, #4]
    265c:	b922      	cbnz	r2, 2668 <HalEGTIMPinCtrlRtl8195A+0x8c>
    265e:	490d      	ldr	r1, [pc, #52]	; (2694 <HalEGTIMPinCtrlRtl8195A+0xb8>)
    2660:	680a      	ldr	r2, [r1, #0]
    2662:	f022 0204 	bic.w	r2, r2, #4
    2666:	600a      	str	r2, [r1, #0]
    2668:	891a      	ldrh	r2, [r3, #8]
    266a:	f402 427c 	and.w	r2, r2, #64512	; 0xfc00
    266e:	811a      	strh	r2, [r3, #8]
    2670:	b922      	cbnz	r2, 267c <HalEGTIMPinCtrlRtl8195A+0xa0>
    2672:	4a08      	ldr	r2, [pc, #32]	; (2694 <HalEGTIMPinCtrlRtl8195A+0xb8>)
    2674:	6813      	ldr	r3, [r2, #0]
    2676:	f023 0310 	bic.w	r3, r3, #16
    267a:	6013      	str	r3, [r2, #0]
    267c:	4a04      	ldr	r2, [pc, #16]	; (2690 <HalEGTIMPinCtrlRtl8195A+0xb4>)
    267e:	2001      	movs	r0, #1
    2680:	6813      	ldr	r3, [r2, #0]
    2682:	f023 0301 	bic.w	r3, r3, #1
    2686:	6013      	str	r3, [r2, #0]
    2688:	4770      	bx	lr
    268a:	bf00      	nop
    268c:	1000031c 	.word	0x1000031c
    2690:	40000374 	.word	0x40000374
    2694:	40000320 	.word	0x40000320

00002698 <HalSPIFlashPinCtrlRtl8195A>:
    2698:	b538      	push	{r3, r4, r5, lr}
    269a:	460d      	mov	r5, r1
    269c:	4604      	mov	r4, r0
    269e:	b1b0      	cbz	r0, 26ce <HalSPIFlashPinCtrlRtl8195A+0x36>
    26a0:	2801      	cmp	r0, #1
    26a2:	d107      	bne.n	26b4 <HalSPIFlashPinCtrlRtl8195A+0x1c>
    26a4:	2900      	cmp	r1, #0
    26a6:	d03a      	beq.n	271e <HalSPIFlashPinCtrlRtl8195A+0x86>
    26a8:	4b20      	ldr	r3, [pc, #128]	; (272c <HalSPIFlashPinCtrlRtl8195A+0x94>)
    26aa:	889b      	ldrh	r3, [r3, #4]
    26ac:	071b      	lsls	r3, r3, #28
    26ae:	d02a      	beq.n	2706 <HalSPIFlashPinCtrlRtl8195A+0x6e>
    26b0:	2000      	movs	r0, #0
    26b2:	bd38      	pop	{r3, r4, r5, pc}
    26b4:	2900      	cmp	r1, #0
    26b6:	d1fb      	bne.n	26b0 <HalSPIFlashPinCtrlRtl8195A+0x18>
    26b8:	4b1d      	ldr	r3, [pc, #116]	; (2730 <HalSPIFlashPinCtrlRtl8195A+0x98>)
    26ba:	2001      	movs	r0, #1
    26bc:	681a      	ldr	r2, [r3, #0]
    26be:	f022 0206 	bic.w	r2, r2, #6
    26c2:	601a      	str	r2, [r3, #0]
    26c4:	681a      	ldr	r2, [r3, #0]
    26c6:	f022 0201 	bic.w	r2, r2, #1
    26ca:	601a      	str	r2, [r3, #0]
    26cc:	bd38      	pop	{r3, r4, r5, pc}
    26ce:	b301      	cbz	r1, 2712 <HalSPIFlashPinCtrlRtl8195A+0x7a>
    26d0:	4b16      	ldr	r3, [pc, #88]	; (272c <HalSPIFlashPinCtrlRtl8195A+0x94>)
    26d2:	895b      	ldrh	r3, [r3, #10]
    26d4:	069a      	lsls	r2, r3, #26
    26d6:	d1eb      	bne.n	26b0 <HalSPIFlashPinCtrlRtl8195A+0x18>
    26d8:	460a      	mov	r2, r1
    26da:	2005      	movs	r0, #5
    26dc:	213f      	movs	r1, #63	; 0x3f
    26de:	f7fe fbfb 	bl	ed8 <GPIOCtrl>
    26e2:	4a13      	ldr	r2, [pc, #76]	; (2730 <HalSPIFlashPinCtrlRtl8195A+0x98>)
    26e4:	0064      	lsls	r4, r4, #1
    26e6:	6813      	ldr	r3, [r2, #0]
    26e8:	f004 0406 	and.w	r4, r4, #6
    26ec:	f023 0306 	bic.w	r3, r3, #6
    26f0:	431c      	orrs	r4, r3
    26f2:	6014      	str	r4, [r2, #0]
    26f4:	6813      	ldr	r3, [r2, #0]
    26f6:	f005 0501 	and.w	r5, r5, #1
    26fa:	f023 0301 	bic.w	r3, r3, #1
    26fe:	431d      	orrs	r5, r3
    2700:	6015      	str	r5, [r2, #0]
    2702:	2001      	movs	r0, #1
    2704:	bd38      	pop	{r3, r4, r5, pc}
    2706:	460a      	mov	r2, r1
    2708:	2002      	movs	r0, #2
    270a:	210f      	movs	r1, #15
    270c:	f7fe fbe4 	bl	ed8 <GPIOCtrl>
    2710:	e7e7      	b.n	26e2 <HalSPIFlashPinCtrlRtl8195A+0x4a>
    2712:	460a      	mov	r2, r1
    2714:	2005      	movs	r0, #5
    2716:	213f      	movs	r1, #63	; 0x3f
    2718:	f7fe fbde 	bl	ed8 <GPIOCtrl>
    271c:	e7cc      	b.n	26b8 <HalSPIFlashPinCtrlRtl8195A+0x20>
    271e:	460a      	mov	r2, r1
    2720:	2002      	movs	r0, #2
    2722:	210f      	movs	r1, #15
    2724:	f7fe fbd8 	bl	ed8 <GPIOCtrl>
    2728:	e7c6      	b.n	26b8 <HalSPIFlashPinCtrlRtl8195A+0x20>
    272a:	bf00      	nop
    272c:	1000031c 	.word	0x1000031c
    2730:	400002c0 	.word	0x400002c0

00002734 <HalSDRPinCtrlRtl8195A>:
    2734:	2900      	cmp	r1, #0
    2736:	d041      	beq.n	27bc <HalSDRPinCtrlRtl8195A+0x88>
    2738:	483e      	ldr	r0, [pc, #248]	; (2834 <HalSDRPinCtrlRtl8195A+0x100>)
    273a:	b510      	push	{r4, lr}
    273c:	7b03      	ldrb	r3, [r0, #12]
    273e:	7b82      	ldrb	r2, [r0, #14]
    2740:	7c04      	ldrb	r4, [r0, #16]
    2742:	2a00      	cmp	r2, #0
    2744:	bf08      	it	eq
    2746:	2b00      	cmpeq	r3, #0
    2748:	bf0c      	ite	eq
    274a:	2301      	moveq	r3, #1
    274c:	2300      	movne	r3, #0
    274e:	2c00      	cmp	r4, #0
    2750:	bf14      	ite	ne
    2752:	2300      	movne	r3, #0
    2754:	f003 0301 	andeq.w	r3, r3, #1
    2758:	8a42      	ldrh	r2, [r0, #18]
    275a:	f003 0301 	and.w	r3, r3, #1
    275e:	f012 0f7f 	tst.w	r2, #127	; 0x7f
    2762:	bf18      	it	ne
    2764:	2300      	movne	r3, #0
    2766:	b33b      	cbz	r3, 27b8 <HalSDRPinCtrlRtl8195A+0x84>
    2768:	8a83      	ldrh	r3, [r0, #20]
    276a:	065b      	lsls	r3, r3, #25
    276c:	d124      	bne.n	27b8 <HalSDRPinCtrlRtl8195A+0x84>
    276e:	460c      	mov	r4, r1
    2770:	460a      	mov	r2, r1
    2772:	2006      	movs	r0, #6
    2774:	21ff      	movs	r1, #255	; 0xff
    2776:	f7fe fbaf 	bl	ed8 <GPIOCtrl>
    277a:	4622      	mov	r2, r4
    277c:	21ff      	movs	r1, #255	; 0xff
    277e:	2007      	movs	r0, #7
    2780:	f7fe fbaa 	bl	ed8 <GPIOCtrl>
    2784:	4622      	mov	r2, r4
    2786:	21ff      	movs	r1, #255	; 0xff
    2788:	2008      	movs	r0, #8
    278a:	f7fe fba5 	bl	ed8 <GPIOCtrl>
    278e:	4622      	mov	r2, r4
    2790:	217f      	movs	r1, #127	; 0x7f
    2792:	2009      	movs	r0, #9
    2794:	f7fe fba0 	bl	ed8 <GPIOCtrl>
    2798:	4622      	mov	r2, r4
    279a:	217f      	movs	r1, #127	; 0x7f
    279c:	200a      	movs	r0, #10
    279e:	f7fe fb9b 	bl	ed8 <GPIOCtrl>
    27a2:	4b25      	ldr	r3, [pc, #148]	; (2838 <HalSDRPinCtrlRtl8195A+0x104>)
    27a4:	4261      	negs	r1, r4
    27a6:	681c      	ldr	r4, [r3, #0]
    27a8:	f001 0110 	and.w	r1, r1, #16
    27ac:	f024 0410 	bic.w	r4, r4, #16
    27b0:	4321      	orrs	r1, r4
    27b2:	6019      	str	r1, [r3, #0]
    27b4:	2001      	movs	r0, #1
    27b6:	bd10      	pop	{r4, pc}
    27b8:	2000      	movs	r0, #0
    27ba:	bd10      	pop	{r4, pc}
    27bc:	4b1d      	ldr	r3, [pc, #116]	; (2834 <HalSDRPinCtrlRtl8195A+0x100>)
    27be:	899a      	ldrh	r2, [r3, #12]
    27c0:	f402 427f 	and.w	r2, r2, #65280	; 0xff00
    27c4:	819a      	strh	r2, [r3, #12]
    27c6:	b922      	cbnz	r2, 27d2 <HalSDRPinCtrlRtl8195A+0x9e>
    27c8:	491c      	ldr	r1, [pc, #112]	; (283c <HalSDRPinCtrlRtl8195A+0x108>)
    27ca:	680a      	ldr	r2, [r1, #0]
    27cc:	f022 0240 	bic.w	r2, r2, #64	; 0x40
    27d0:	600a      	str	r2, [r1, #0]
    27d2:	89da      	ldrh	r2, [r3, #14]
    27d4:	f402 427f 	and.w	r2, r2, #65280	; 0xff00
    27d8:	81da      	strh	r2, [r3, #14]
    27da:	b922      	cbnz	r2, 27e6 <HalSDRPinCtrlRtl8195A+0xb2>
    27dc:	4917      	ldr	r1, [pc, #92]	; (283c <HalSDRPinCtrlRtl8195A+0x108>)
    27de:	680a      	ldr	r2, [r1, #0]
    27e0:	f022 0280 	bic.w	r2, r2, #128	; 0x80
    27e4:	600a      	str	r2, [r1, #0]
    27e6:	8a1a      	ldrh	r2, [r3, #16]
    27e8:	f402 427f 	and.w	r2, r2, #65280	; 0xff00
    27ec:	821a      	strh	r2, [r3, #16]
    27ee:	b922      	cbnz	r2, 27fa <HalSDRPinCtrlRtl8195A+0xc6>
    27f0:	4912      	ldr	r1, [pc, #72]	; (283c <HalSDRPinCtrlRtl8195A+0x108>)
    27f2:	680a      	ldr	r2, [r1, #0]
    27f4:	f422 7280 	bic.w	r2, r2, #256	; 0x100
    27f8:	600a      	str	r2, [r1, #0]
    27fa:	8a5a      	ldrh	r2, [r3, #18]
    27fc:	f022 027f 	bic.w	r2, r2, #127	; 0x7f
    2800:	b292      	uxth	r2, r2
    2802:	825a      	strh	r2, [r3, #18]
    2804:	b922      	cbnz	r2, 2810 <HalSDRPinCtrlRtl8195A+0xdc>
    2806:	490d      	ldr	r1, [pc, #52]	; (283c <HalSDRPinCtrlRtl8195A+0x108>)
    2808:	680a      	ldr	r2, [r1, #0]
    280a:	f422 7200 	bic.w	r2, r2, #512	; 0x200
    280e:	600a      	str	r2, [r1, #0]
    2810:	8a9a      	ldrh	r2, [r3, #20]
    2812:	f022 027f 	bic.w	r2, r2, #127	; 0x7f
    2816:	b292      	uxth	r2, r2
    2818:	829a      	strh	r2, [r3, #20]
    281a:	b922      	cbnz	r2, 2826 <HalSDRPinCtrlRtl8195A+0xf2>
    281c:	4a07      	ldr	r2, [pc, #28]	; (283c <HalSDRPinCtrlRtl8195A+0x108>)
    281e:	6813      	ldr	r3, [r2, #0]
    2820:	f423 6380 	bic.w	r3, r3, #1024	; 0x400
    2824:	6013      	str	r3, [r2, #0]
    2826:	4a04      	ldr	r2, [pc, #16]	; (2838 <HalSDRPinCtrlRtl8195A+0x104>)
    2828:	2001      	movs	r0, #1
    282a:	6813      	ldr	r3, [r2, #0]
    282c:	f023 0310 	bic.w	r3, r3, #16
    2830:	6013      	str	r3, [r2, #0]
    2832:	4770      	bx	lr
    2834:	1000031c 	.word	0x1000031c
    2838:	400002c0 	.word	0x400002c0
    283c:	40000320 	.word	0x40000320

00002840 <HalJTAGPinCtrlRtl8195A>:
    2840:	b508      	push	{r3, lr}
    2842:	b189      	cbz	r1, 2868 <HalJTAGPinCtrlRtl8195A+0x28>
    2844:	4b12      	ldr	r3, [pc, #72]	; (2890 <HalJTAGPinCtrlRtl8195A+0x50>)
    2846:	891b      	ldrh	r3, [r3, #8]
    2848:	06db      	lsls	r3, r3, #27
    284a:	d001      	beq.n	2850 <HalJTAGPinCtrlRtl8195A+0x10>
    284c:	2000      	movs	r0, #0
    284e:	bd08      	pop	{r3, pc}
    2850:	460a      	mov	r2, r1
    2852:	2004      	movs	r0, #4
    2854:	211f      	movs	r1, #31
    2856:	f7fe fb3f 	bl	ed8 <GPIOCtrl>
    285a:	4a0e      	ldr	r2, [pc, #56]	; (2894 <HalJTAGPinCtrlRtl8195A+0x54>)
    285c:	2001      	movs	r0, #1
    285e:	6813      	ldr	r3, [r2, #0]
    2860:	f443 3380 	orr.w	r3, r3, #65536	; 0x10000
    2864:	6013      	str	r3, [r2, #0]
    2866:	bd08      	pop	{r3, pc}
    2868:	4a09      	ldr	r2, [pc, #36]	; (2890 <HalJTAGPinCtrlRtl8195A+0x50>)
    286a:	8913      	ldrh	r3, [r2, #8]
    286c:	f023 031f 	bic.w	r3, r3, #31
    2870:	b29b      	uxth	r3, r3
    2872:	8113      	strh	r3, [r2, #8]
    2874:	b923      	cbnz	r3, 2880 <HalJTAGPinCtrlRtl8195A+0x40>
    2876:	4a08      	ldr	r2, [pc, #32]	; (2898 <HalJTAGPinCtrlRtl8195A+0x58>)
    2878:	6813      	ldr	r3, [r2, #0]
    287a:	f023 0310 	bic.w	r3, r3, #16
    287e:	6013      	str	r3, [r2, #0]
    2880:	4a04      	ldr	r2, [pc, #16]	; (2894 <HalJTAGPinCtrlRtl8195A+0x54>)
    2882:	2001      	movs	r0, #1
    2884:	6813      	ldr	r3, [r2, #0]
    2886:	f423 3380 	bic.w	r3, r3, #65536	; 0x10000
    288a:	6013      	str	r3, [r2, #0]
    288c:	bd08      	pop	{r3, pc}
    288e:	bf00      	nop
    2890:	1000031c 	.word	0x1000031c
    2894:	400002c0 	.word	0x400002c0
    2898:	40000320 	.word	0x40000320

0000289c <HalTRACEPinCtrlRtl8195A>:
    289c:	b508      	push	{r3, lr}
    289e:	b199      	cbz	r1, 28c8 <HalTRACEPinCtrlRtl8195A+0x2c>
    28a0:	4b13      	ldr	r3, [pc, #76]	; (28f0 <HalTRACEPinCtrlRtl8195A+0x54>)
    28a2:	891b      	ldrh	r3, [r3, #8]
    28a4:	f403 7378 	and.w	r3, r3, #992	; 0x3e0
    28a8:	b10b      	cbz	r3, 28ae <HalTRACEPinCtrlRtl8195A+0x12>
    28aa:	2000      	movs	r0, #0
    28ac:	bd08      	pop	{r3, pc}
    28ae:	460a      	mov	r2, r1
    28b0:	2004      	movs	r0, #4
    28b2:	f44f 7178 	mov.w	r1, #992	; 0x3e0
    28b6:	f7fe fb0f 	bl	ed8 <GPIOCtrl>
    28ba:	4a0e      	ldr	r2, [pc, #56]	; (28f4 <HalTRACEPinCtrlRtl8195A+0x58>)
    28bc:	2001      	movs	r0, #1
    28be:	6813      	ldr	r3, [r2, #0]
    28c0:	f443 3300 	orr.w	r3, r3, #131072	; 0x20000
    28c4:	6013      	str	r3, [r2, #0]
    28c6:	bd08      	pop	{r3, pc}
    28c8:	4a09      	ldr	r2, [pc, #36]	; (28f0 <HalTRACEPinCtrlRtl8195A+0x54>)
    28ca:	8913      	ldrh	r3, [r2, #8]
    28cc:	f423 7378 	bic.w	r3, r3, #992	; 0x3e0
    28d0:	b29b      	uxth	r3, r3
    28d2:	8113      	strh	r3, [r2, #8]
    28d4:	b923      	cbnz	r3, 28e0 <HalTRACEPinCtrlRtl8195A+0x44>
    28d6:	4a08      	ldr	r2, [pc, #32]	; (28f8 <HalTRACEPinCtrlRtl8195A+0x5c>)
    28d8:	6813      	ldr	r3, [r2, #0]
    28da:	f023 0310 	bic.w	r3, r3, #16
    28de:	6013      	str	r3, [r2, #0]
    28e0:	4a04      	ldr	r2, [pc, #16]	; (28f4 <HalTRACEPinCtrlRtl8195A+0x58>)
    28e2:	2001      	movs	r0, #1
    28e4:	6813      	ldr	r3, [r2, #0]
    28e6:	f423 3300 	bic.w	r3, r3, #131072	; 0x20000
    28ea:	6013      	str	r3, [r2, #0]
    28ec:	bd08      	pop	{r3, pc}
    28ee:	bf00      	nop
    28f0:	1000031c 	.word	0x1000031c
    28f4:	400002c0 	.word	0x400002c0
    28f8:	40000320 	.word	0x40000320

000028fc <HalLOGUartPinCtrlRtl8195A>:
    28fc:	b508      	push	{r3, lr}
    28fe:	b1a9      	cbz	r1, 292c <HalLOGUartPinCtrlRtl8195A+0x30>
    2900:	4b16      	ldr	r3, [pc, #88]	; (295c <HalLOGUartPinCtrlRtl8195A+0x60>)
    2902:	885b      	ldrh	r3, [r3, #2]
    2904:	079b      	lsls	r3, r3, #30
    2906:	d001      	beq.n	290c <HalLOGUartPinCtrlRtl8195A+0x10>
    2908:	2000      	movs	r0, #0
    290a:	bd08      	pop	{r3, pc}
    290c:	460a      	mov	r2, r1
    290e:	2001      	movs	r0, #1
    2910:	2103      	movs	r1, #3
    2912:	f7fe fae1 	bl	ed8 <GPIOCtrl>
    2916:	4b12      	ldr	r3, [pc, #72]	; (2960 <HalLOGUartPinCtrlRtl8195A+0x64>)
    2918:	2001      	movs	r0, #1
    291a:	681a      	ldr	r2, [r3, #0]
    291c:	f422 1200 	bic.w	r2, r2, #2097152	; 0x200000
    2920:	601a      	str	r2, [r3, #0]
    2922:	681a      	ldr	r2, [r3, #0]
    2924:	f442 1280 	orr.w	r2, r2, #1048576	; 0x100000
    2928:	601a      	str	r2, [r3, #0]
    292a:	bd08      	pop	{r3, pc}
    292c:	4a0b      	ldr	r2, [pc, #44]	; (295c <HalLOGUartPinCtrlRtl8195A+0x60>)
    292e:	8853      	ldrh	r3, [r2, #2]
    2930:	f023 0303 	bic.w	r3, r3, #3
    2934:	b29b      	uxth	r3, r3
    2936:	8053      	strh	r3, [r2, #2]
    2938:	b923      	cbnz	r3, 2944 <HalLOGUartPinCtrlRtl8195A+0x48>
    293a:	4a0a      	ldr	r2, [pc, #40]	; (2964 <HalLOGUartPinCtrlRtl8195A+0x68>)
    293c:	6813      	ldr	r3, [r2, #0]
    293e:	f023 0302 	bic.w	r3, r3, #2
    2942:	6013      	str	r3, [r2, #0]
    2944:	4b06      	ldr	r3, [pc, #24]	; (2960 <HalLOGUartPinCtrlRtl8195A+0x64>)
    2946:	2001      	movs	r0, #1
    2948:	681a      	ldr	r2, [r3, #0]
    294a:	f422 1200 	bic.w	r2, r2, #2097152	; 0x200000
    294e:	601a      	str	r2, [r3, #0]
    2950:	681a      	ldr	r2, [r3, #0]
    2952:	f422 1280 	bic.w	r2, r2, #1048576	; 0x100000
    2956:	601a      	str	r2, [r3, #0]
    2958:	bd08      	pop	{r3, pc}
    295a:	bf00      	nop
    295c:	1000031c 	.word	0x1000031c
    2960:	400002c0 	.word	0x400002c0
    2964:	40000320 	.word	0x40000320

00002968 <HalLOGUartIRPinCtrlRtl8195A>:
    2968:	b508      	push	{r3, lr}
    296a:	b1a9      	cbz	r1, 2998 <HalLOGUartIRPinCtrlRtl8195A+0x30>
    296c:	4b16      	ldr	r3, [pc, #88]	; (29c8 <HalLOGUartIRPinCtrlRtl8195A+0x60>)
    296e:	885b      	ldrh	r3, [r3, #2]
    2970:	079b      	lsls	r3, r3, #30
    2972:	d001      	beq.n	2978 <HalLOGUartIRPinCtrlRtl8195A+0x10>
    2974:	2000      	movs	r0, #0
    2976:	bd08      	pop	{r3, pc}
    2978:	460a      	mov	r2, r1
    297a:	2001      	movs	r0, #1
    297c:	2103      	movs	r1, #3
    297e:	f7fe faab 	bl	ed8 <GPIOCtrl>
    2982:	4b12      	ldr	r3, [pc, #72]	; (29cc <HalLOGUartIRPinCtrlRtl8195A+0x64>)
    2984:	2001      	movs	r0, #1
    2986:	681a      	ldr	r2, [r3, #0]
    2988:	f442 1280 	orr.w	r2, r2, #1048576	; 0x100000
    298c:	601a      	str	r2, [r3, #0]
    298e:	681a      	ldr	r2, [r3, #0]
    2990:	f442 1200 	orr.w	r2, r2, #2097152	; 0x200000
    2994:	601a      	str	r2, [r3, #0]
    2996:	bd08      	pop	{r3, pc}
    2998:	4a0b      	ldr	r2, [pc, #44]	; (29c8 <HalLOGUartIRPinCtrlRtl8195A+0x60>)
    299a:	8853      	ldrh	r3, [r2, #2]
    299c:	f023 0303 	bic.w	r3, r3, #3
    29a0:	b29b      	uxth	r3, r3
    29a2:	8053      	strh	r3, [r2, #2]
    29a4:	b923      	cbnz	r3, 29b0 <HalLOGUartIRPinCtrlRtl8195A+0x48>
    29a6:	4a0a      	ldr	r2, [pc, #40]	; (29d0 <HalLOGUartIRPinCtrlRtl8195A+0x68>)
    29a8:	6813      	ldr	r3, [r2, #0]
    29aa:	f023 0302 	bic.w	r3, r3, #2
    29ae:	6013      	str	r3, [r2, #0]
    29b0:	4b06      	ldr	r3, [pc, #24]	; (29cc <HalLOGUartIRPinCtrlRtl8195A+0x64>)
    29b2:	2001      	movs	r0, #1
    29b4:	681a      	ldr	r2, [r3, #0]
    29b6:	f422 1280 	bic.w	r2, r2, #1048576	; 0x100000
    29ba:	601a      	str	r2, [r3, #0]
    29bc:	681a      	ldr	r2, [r3, #0]
    29be:	f422 1200 	bic.w	r2, r2, #2097152	; 0x200000
    29c2:	601a      	str	r2, [r3, #0]
    29c4:	bd08      	pop	{r3, pc}
    29c6:	bf00      	nop
    29c8:	1000031c 	.word	0x1000031c
    29cc:	400002c0 	.word	0x400002c0
    29d0:	40000320 	.word	0x40000320

000029d4 <HalSICPinCtrlRtl8195A>:
    29d4:	b131      	cbz	r1, 29e4 <HalSICPinCtrlRtl8195A+0x10>
    29d6:	4b15      	ldr	r3, [pc, #84]	; (2a2c <HalSICPinCtrlRtl8195A+0x58>)
    29d8:	889b      	ldrh	r3, [r3, #4]
    29da:	f003 0330 	and.w	r3, r3, #48	; 0x30
    29de:	b1a3      	cbz	r3, 2a0a <HalSICPinCtrlRtl8195A+0x36>
    29e0:	2000      	movs	r0, #0
    29e2:	4770      	bx	lr
    29e4:	4a11      	ldr	r2, [pc, #68]	; (2a2c <HalSICPinCtrlRtl8195A+0x58>)
    29e6:	8893      	ldrh	r3, [r2, #4]
    29e8:	f023 0330 	bic.w	r3, r3, #48	; 0x30
    29ec:	b29b      	uxth	r3, r3
    29ee:	8093      	strh	r3, [r2, #4]
    29f0:	b923      	cbnz	r3, 29fc <HalSICPinCtrlRtl8195A+0x28>
    29f2:	4a0f      	ldr	r2, [pc, #60]	; (2a30 <HalSICPinCtrlRtl8195A+0x5c>)
    29f4:	6813      	ldr	r3, [r2, #0]
    29f6:	f023 0304 	bic.w	r3, r3, #4
    29fa:	6013      	str	r3, [r2, #0]
    29fc:	4a0d      	ldr	r2, [pc, #52]	; (2a34 <HalSICPinCtrlRtl8195A+0x60>)
    29fe:	2001      	movs	r0, #1
    2a00:	6813      	ldr	r3, [r2, #0]
    2a02:	f023 0301 	bic.w	r3, r3, #1
    2a06:	6013      	str	r3, [r2, #0]
    2a08:	4770      	bx	lr
    2a0a:	b510      	push	{r4, lr}
    2a0c:	460c      	mov	r4, r1
    2a0e:	460a      	mov	r2, r1
    2a10:	2002      	movs	r0, #2
    2a12:	2130      	movs	r1, #48	; 0x30
    2a14:	f7fe fa60 	bl	ed8 <GPIOCtrl>
    2a18:	4b06      	ldr	r3, [pc, #24]	; (2a34 <HalSICPinCtrlRtl8195A+0x60>)
    2a1a:	f004 0101 	and.w	r1, r4, #1
    2a1e:	681c      	ldr	r4, [r3, #0]
    2a20:	2001      	movs	r0, #1
    2a22:	f024 0401 	bic.w	r4, r4, #1
    2a26:	4321      	orrs	r1, r4
    2a28:	6019      	str	r1, [r3, #0]
    2a2a:	bd10      	pop	{r4, pc}
    2a2c:	1000031c 	.word	0x1000031c
    2a30:	40000320 	.word	0x40000320
    2a34:	400000a4 	.word	0x400000a4

00002a38 <HalEEPROMPinCtrlRtl8195A>:
    2a38:	b129      	cbz	r1, 2a46 <HalEEPROMPinCtrlRtl8195A+0xe>
    2a3a:	4b15      	ldr	r3, [pc, #84]	; (2a90 <HalEEPROMPinCtrlRtl8195A+0x58>)
    2a3c:	889b      	ldrh	r3, [r3, #4]
    2a3e:	071b      	lsls	r3, r3, #28
    2a40:	d014      	beq.n	2a6c <HalEEPROMPinCtrlRtl8195A+0x34>
    2a42:	2000      	movs	r0, #0
    2a44:	4770      	bx	lr
    2a46:	4a12      	ldr	r2, [pc, #72]	; (2a90 <HalEEPROMPinCtrlRtl8195A+0x58>)
    2a48:	8893      	ldrh	r3, [r2, #4]
    2a4a:	f023 030f 	bic.w	r3, r3, #15
    2a4e:	b29b      	uxth	r3, r3
    2a50:	8093      	strh	r3, [r2, #4]
    2a52:	b923      	cbnz	r3, 2a5e <HalEEPROMPinCtrlRtl8195A+0x26>
    2a54:	4a0f      	ldr	r2, [pc, #60]	; (2a94 <HalEEPROMPinCtrlRtl8195A+0x5c>)
    2a56:	6813      	ldr	r3, [r2, #0]
    2a58:	f023 0304 	bic.w	r3, r3, #4
    2a5c:	6013      	str	r3, [r2, #0]
    2a5e:	4a0e      	ldr	r2, [pc, #56]	; (2a98 <HalEEPROMPinCtrlRtl8195A+0x60>)
    2a60:	2001      	movs	r0, #1
    2a62:	6813      	ldr	r3, [r2, #0]
    2a64:	f023 0310 	bic.w	r3, r3, #16
    2a68:	6013      	str	r3, [r2, #0]
    2a6a:	4770      	bx	lr
    2a6c:	b510      	push	{r4, lr}
    2a6e:	460c      	mov	r4, r1
    2a70:	460a      	mov	r2, r1
    2a72:	2002      	movs	r0, #2
    2a74:	210f      	movs	r1, #15
    2a76:	f7fe fa2f 	bl	ed8 <GPIOCtrl>
    2a7a:	4b07      	ldr	r3, [pc, #28]	; (2a98 <HalEEPROMPinCtrlRtl8195A+0x60>)
    2a7c:	4261      	negs	r1, r4
    2a7e:	681c      	ldr	r4, [r3, #0]
    2a80:	f001 0110 	and.w	r1, r1, #16
    2a84:	f024 0410 	bic.w	r4, r4, #16
    2a88:	4321      	orrs	r1, r4
    2a8a:	6019      	str	r1, [r3, #0]
    2a8c:	2001      	movs	r0, #1
    2a8e:	bd10      	pop	{r4, pc}
    2a90:	1000031c 	.word	0x1000031c
    2a94:	40000320 	.word	0x40000320
    2a98:	400000a4 	.word	0x400000a4

00002a9c <HalDEBUGPinCtrlRtl8195A>:
    2a9c:	2900      	cmp	r1, #0
    2a9e:	d052      	beq.n	2b46 <HalDEBUGPinCtrlRtl8195A+0xaa>
    2aa0:	4a4d      	ldr	r2, [pc, #308]	; (2bd8 <HalDEBUGPinCtrlRtl8195A+0x13c>)
    2aa2:	b510      	push	{r4, lr}
    2aa4:	8853      	ldrh	r3, [r2, #2]
    2aa6:	7810      	ldrb	r0, [r2, #0]
    2aa8:	f013 0f3f 	tst.w	r3, #63	; 0x3f
    2aac:	bf0c      	ite	eq
    2aae:	2301      	moveq	r3, #1
    2ab0:	2300      	movne	r3, #0
    2ab2:	2800      	cmp	r0, #0
    2ab4:	bf14      	ite	ne
    2ab6:	2000      	movne	r0, #0
    2ab8:	f003 0001 	andeq.w	r0, r3, #1
    2abc:	7914      	ldrb	r4, [r2, #4]
    2abe:	88d3      	ldrh	r3, [r2, #6]
    2ac0:	2c00      	cmp	r4, #0
    2ac2:	bf14      	ite	ne
    2ac4:	2000      	movne	r0, #0
    2ac6:	f000 0001 	andeq.w	r0, r0, #1
    2aca:	f003 0330 	and.w	r3, r3, #48	; 0x30
    2ace:	2b00      	cmp	r3, #0
    2ad0:	bf14      	ite	ne
    2ad2:	2300      	movne	r3, #0
    2ad4:	f000 0301 	andeq.w	r3, r0, #1
    2ad8:	8910      	ldrh	r0, [r2, #8]
    2ada:	f003 0301 	and.w	r3, r3, #1
    2ade:	f010 0f3f 	tst.w	r0, #63	; 0x3f
    2ae2:	bf18      	it	ne
    2ae4:	2300      	movne	r3, #0
    2ae6:	b363      	cbz	r3, 2b42 <HalDEBUGPinCtrlRtl8195A+0xa6>
    2ae8:	8953      	ldrh	r3, [r2, #10]
    2aea:	f003 0330 	and.w	r3, r3, #48	; 0x30
    2aee:	bb43      	cbnz	r3, 2b42 <HalDEBUGPinCtrlRtl8195A+0xa6>
    2af0:	460c      	mov	r4, r1
    2af2:	460a      	mov	r2, r1
    2af4:	2000      	movs	r0, #0
    2af6:	21ff      	movs	r1, #255	; 0xff
    2af8:	f7fe f9ee 	bl	ed8 <GPIOCtrl>
    2afc:	4622      	mov	r2, r4
    2afe:	213f      	movs	r1, #63	; 0x3f
    2b00:	2001      	movs	r0, #1
    2b02:	f7fe f9e9 	bl	ed8 <GPIOCtrl>
    2b06:	4622      	mov	r2, r4
    2b08:	21ff      	movs	r1, #255	; 0xff
    2b0a:	2002      	movs	r0, #2
    2b0c:	f7fe f9e4 	bl	ed8 <GPIOCtrl>
    2b10:	4622      	mov	r2, r4
    2b12:	2130      	movs	r1, #48	; 0x30
    2b14:	2003      	movs	r0, #3
    2b16:	f7fe f9df 	bl	ed8 <GPIOCtrl>
    2b1a:	4622      	mov	r2, r4
    2b1c:	213f      	movs	r1, #63	; 0x3f
    2b1e:	2004      	movs	r0, #4
    2b20:	f7fe f9da 	bl	ed8 <GPIOCtrl>
    2b24:	4622      	mov	r2, r4
    2b26:	2130      	movs	r1, #48	; 0x30
    2b28:	2005      	movs	r0, #5
    2b2a:	f7fe f9d5 	bl	ed8 <GPIOCtrl>
    2b2e:	4b2b      	ldr	r3, [pc, #172]	; (2bdc <HalDEBUGPinCtrlRtl8195A+0x140>)
    2b30:	f004 0101 	and.w	r1, r4, #1
    2b34:	681c      	ldr	r4, [r3, #0]
    2b36:	2001      	movs	r0, #1
    2b38:	f024 0401 	bic.w	r4, r4, #1
    2b3c:	4321      	orrs	r1, r4
    2b3e:	6019      	str	r1, [r3, #0]
    2b40:	bd10      	pop	{r4, pc}
    2b42:	2000      	movs	r0, #0
    2b44:	bd10      	pop	{r4, pc}
    2b46:	4b24      	ldr	r3, [pc, #144]	; (2bd8 <HalDEBUGPinCtrlRtl8195A+0x13c>)
    2b48:	881a      	ldrh	r2, [r3, #0]
    2b4a:	f402 427f 	and.w	r2, r2, #65280	; 0xff00
    2b4e:	801a      	strh	r2, [r3, #0]
    2b50:	b922      	cbnz	r2, 2b5c <HalDEBUGPinCtrlRtl8195A+0xc0>
    2b52:	4923      	ldr	r1, [pc, #140]	; (2be0 <HalDEBUGPinCtrlRtl8195A+0x144>)
    2b54:	680a      	ldr	r2, [r1, #0]
    2b56:	f022 0201 	bic.w	r2, r2, #1
    2b5a:	600a      	str	r2, [r1, #0]
    2b5c:	885a      	ldrh	r2, [r3, #2]
    2b5e:	f022 023f 	bic.w	r2, r2, #63	; 0x3f
    2b62:	b292      	uxth	r2, r2
    2b64:	805a      	strh	r2, [r3, #2]
    2b66:	b922      	cbnz	r2, 2b72 <HalDEBUGPinCtrlRtl8195A+0xd6>
    2b68:	491d      	ldr	r1, [pc, #116]	; (2be0 <HalDEBUGPinCtrlRtl8195A+0x144>)
    2b6a:	680a      	ldr	r2, [r1, #0]
    2b6c:	f022 0202 	bic.w	r2, r2, #2
    2b70:	600a      	str	r2, [r1, #0]
    2b72:	889a      	ldrh	r2, [r3, #4]
    2b74:	f402 427f 	and.w	r2, r2, #65280	; 0xff00
    2b78:	809a      	strh	r2, [r3, #4]
    2b7a:	b922      	cbnz	r2, 2b86 <HalDEBUGPinCtrlRtl8195A+0xea>
    2b7c:	4918      	ldr	r1, [pc, #96]	; (2be0 <HalDEBUGPinCtrlRtl8195A+0x144>)
    2b7e:	680a      	ldr	r2, [r1, #0]
    2b80:	f022 0204 	bic.w	r2, r2, #4
    2b84:	600a      	str	r2, [r1, #0]
    2b86:	88da      	ldrh	r2, [r3, #6]
    2b88:	f022 0230 	bic.w	r2, r2, #48	; 0x30
    2b8c:	b292      	uxth	r2, r2
    2b8e:	80da      	strh	r2, [r3, #6]
    2b90:	b922      	cbnz	r2, 2b9c <HalDEBUGPinCtrlRtl8195A+0x100>
    2b92:	4913      	ldr	r1, [pc, #76]	; (2be0 <HalDEBUGPinCtrlRtl8195A+0x144>)
    2b94:	680a      	ldr	r2, [r1, #0]
    2b96:	f022 0208 	bic.w	r2, r2, #8
    2b9a:	600a      	str	r2, [r1, #0]
    2b9c:	891a      	ldrh	r2, [r3, #8]
    2b9e:	f022 023f 	bic.w	r2, r2, #63	; 0x3f
    2ba2:	b292      	uxth	r2, r2
    2ba4:	811a      	strh	r2, [r3, #8]
    2ba6:	b922      	cbnz	r2, 2bb2 <HalDEBUGPinCtrlRtl8195A+0x116>
    2ba8:	490d      	ldr	r1, [pc, #52]	; (2be0 <HalDEBUGPinCtrlRtl8195A+0x144>)
    2baa:	680a      	ldr	r2, [r1, #0]
    2bac:	f022 0210 	bic.w	r2, r2, #16
    2bb0:	600a      	str	r2, [r1, #0]
    2bb2:	895a      	ldrh	r2, [r3, #10]
    2bb4:	f022 0230 	bic.w	r2, r2, #48	; 0x30
    2bb8:	b292      	uxth	r2, r2
    2bba:	815a      	strh	r2, [r3, #10]
    2bbc:	b922      	cbnz	r2, 2bc8 <HalDEBUGPinCtrlRtl8195A+0x12c>
    2bbe:	4a08      	ldr	r2, [pc, #32]	; (2be0 <HalDEBUGPinCtrlRtl8195A+0x144>)
    2bc0:	6813      	ldr	r3, [r2, #0]
    2bc2:	f023 0320 	bic.w	r3, r3, #32
    2bc6:	6013      	str	r3, [r2, #0]
    2bc8:	4a04      	ldr	r2, [pc, #16]	; (2bdc <HalDEBUGPinCtrlRtl8195A+0x140>)
    2bca:	2001      	movs	r0, #1
    2bcc:	6813      	ldr	r3, [r2, #0]
    2bce:	f023 0301 	bic.w	r3, r3, #1
    2bd2:	6013      	str	r3, [r2, #0]
    2bd4:	4770      	bx	lr
    2bd6:	bf00      	nop
    2bd8:	1000031c 	.word	0x1000031c
    2bdc:	400000a0 	.word	0x400000a0
    2be0:	40000320 	.word	0x40000320

00002be4 <HalPinCtrlRtl8195A>:
    2be4:	460b      	mov	r3, r1
    2be6:	28e2      	cmp	r0, #226	; 0xe2
    2be8:	f200 818d 	bhi.w	2f06 <HalPinCtrlRtl8195A+0x322>
    2bec:	e8df f010 	tbh	[pc, r0, lsl #1]
    2bf0:	01830187 	.word	0x01830187
    2bf4:	018b017f 	.word	0x018b017f
    2bf8:	018b018b 	.word	0x018b018b
    2bfc:	018b018b 	.word	0x018b018b
    2c00:	0177017b 	.word	0x0177017b
    2c04:	018b0173 	.word	0x018b0173
    2c08:	018b018b 	.word	0x018b018b
    2c0c:	016f018b 	.word	0x016f018b
    2c10:	0167016b 	.word	0x0167016b
    2c14:	015f0163 	.word	0x015f0163
    2c18:	018b018b 	.word	0x018b018b
    2c1c:	018b018b 	.word	0x018b018b
    2c20:	0157015b 	.word	0x0157015b
    2c24:	018b018b 	.word	0x018b018b
    2c28:	014f0153 	.word	0x014f0153
    2c2c:	018b018b 	.word	0x018b018b
    2c30:	018b018b 	.word	0x018b018b
    2c34:	018b018b 	.word	0x018b018b
    2c38:	018b018b 	.word	0x018b018b
    2c3c:	018b018b 	.word	0x018b018b
    2c40:	018b018b 	.word	0x018b018b
    2c44:	018b018b 	.word	0x018b018b
    2c48:	018b018b 	.word	0x018b018b
    2c4c:	018b018b 	.word	0x018b018b
    2c50:	018b018b 	.word	0x018b018b
    2c54:	018b018b 	.word	0x018b018b
    2c58:	018b018b 	.word	0x018b018b
    2c5c:	018b018b 	.word	0x018b018b
    2c60:	018b018b 	.word	0x018b018b
    2c64:	018b018b 	.word	0x018b018b
    2c68:	018b018b 	.word	0x018b018b
    2c6c:	018b018b 	.word	0x018b018b
    2c70:	0147014b 	.word	0x0147014b
    2c74:	018b018b 	.word	0x018b018b
    2c78:	018b018b 	.word	0x018b018b
    2c7c:	018b018b 	.word	0x018b018b
    2c80:	018b018b 	.word	0x018b018b
    2c84:	018b018b 	.word	0x018b018b
    2c88:	018b018b 	.word	0x018b018b
    2c8c:	018b018b 	.word	0x018b018b
    2c90:	018b018b 	.word	0x018b018b
    2c94:	018b018b 	.word	0x018b018b
    2c98:	018b018b 	.word	0x018b018b
    2c9c:	018b018b 	.word	0x018b018b
    2ca0:	018b0143 	.word	0x018b0143
    2ca4:	018b018b 	.word	0x018b018b
    2ca8:	018b018b 	.word	0x018b018b
    2cac:	018b018b 	.word	0x018b018b
    2cb0:	018b013f 	.word	0x018b013f
    2cb4:	018b018b 	.word	0x018b018b
    2cb8:	018b018b 	.word	0x018b018b
    2cbc:	018b018b 	.word	0x018b018b
    2cc0:	0137013b 	.word	0x0137013b
    2cc4:	018b018b 	.word	0x018b018b
    2cc8:	012f0133 	.word	0x012f0133
    2ccc:	018b018b 	.word	0x018b018b
    2cd0:	018b012b 	.word	0x018b012b
    2cd4:	018b018b 	.word	0x018b018b
    2cd8:	018b018b 	.word	0x018b018b
    2cdc:	018b018b 	.word	0x018b018b
    2ce0:	018b018b 	.word	0x018b018b
    2ce4:	018b018b 	.word	0x018b018b
    2ce8:	018b018b 	.word	0x018b018b
    2cec:	018b018b 	.word	0x018b018b
    2cf0:	018b018b 	.word	0x018b018b
    2cf4:	018b018b 	.word	0x018b018b
    2cf8:	018b018b 	.word	0x018b018b
    2cfc:	018b018b 	.word	0x018b018b
    2d00:	018b018b 	.word	0x018b018b
    2d04:	018b018b 	.word	0x018b018b
    2d08:	018b018b 	.word	0x018b018b
    2d0c:	018b018b 	.word	0x018b018b
    2d10:	018b018b 	.word	0x018b018b
    2d14:	018b018b 	.word	0x018b018b
    2d18:	018b018b 	.word	0x018b018b
    2d1c:	018b018b 	.word	0x018b018b
    2d20:	018b018b 	.word	0x018b018b
    2d24:	018b018b 	.word	0x018b018b
    2d28:	018b018b 	.word	0x018b018b
    2d2c:	018b018b 	.word	0x018b018b
    2d30:	01230127 	.word	0x01230127
    2d34:	011b011f 	.word	0x011b011f
    2d38:	01130117 	.word	0x01130117
    2d3c:	010b010f 	.word	0x010b010f
    2d40:	018b0107 	.word	0x018b0107
    2d44:	018b018b 	.word	0x018b018b
    2d48:	018b018b 	.word	0x018b018b
    2d4c:	018b018b 	.word	0x018b018b
    2d50:	018b018b 	.word	0x018b018b
    2d54:	018b018b 	.word	0x018b018b
    2d58:	018b018b 	.word	0x018b018b
    2d5c:	018b018b 	.word	0x018b018b
    2d60:	018b018b 	.word	0x018b018b
    2d64:	018b018b 	.word	0x018b018b
    2d68:	018b018b 	.word	0x018b018b
    2d6c:	018b018b 	.word	0x018b018b
    2d70:	018b018b 	.word	0x018b018b
    2d74:	018b018b 	.word	0x018b018b
    2d78:	018b0103 	.word	0x018b0103
    2d7c:	018b018b 	.word	0x018b018b
    2d80:	018b00ff 	.word	0x018b00ff
    2d84:	018b018b 	.word	0x018b018b
    2d88:	018b018b 	.word	0x018b018b
    2d8c:	018b018b 	.word	0x018b018b
    2d90:	018b018b 	.word	0x018b018b
    2d94:	018b018b 	.word	0x018b018b
    2d98:	018b018b 	.word	0x018b018b
    2d9c:	018b018b 	.word	0x018b018b
    2da0:	00f700fb 	.word	0x00f700fb
    2da4:	018b018b 	.word	0x018b018b
    2da8:	00ef00f3 	.word	0x00ef00f3
    2dac:	018b018b 	.word	0x018b018b
    2db0:	00e700eb 	.word	0x00e700eb
    2db4:	00e3      	.short	0x00e3
    2db6:	4611      	mov	r1, r2
    2db8:	4618      	mov	r0, r3
    2dba:	f7ff be6f 	b.w	2a9c <HalDEBUGPinCtrlRtl8195A>
    2dbe:	4611      	mov	r1, r2
    2dc0:	4618      	mov	r0, r3
    2dc2:	f7ff be39 	b.w	2a38 <HalEEPROMPinCtrlRtl8195A>
    2dc6:	4611      	mov	r1, r2
    2dc8:	4618      	mov	r0, r3
    2dca:	f7ff be03 	b.w	29d4 <HalSICPinCtrlRtl8195A>
    2dce:	4611      	mov	r1, r2
    2dd0:	4618      	mov	r0, r3
    2dd2:	f7ff bdc9 	b.w	2968 <HalLOGUartIRPinCtrlRtl8195A>
    2dd6:	4611      	mov	r1, r2
    2dd8:	4618      	mov	r0, r3
    2dda:	f7ff bd8f 	b.w	28fc <HalLOGUartPinCtrlRtl8195A>
    2dde:	4611      	mov	r1, r2
    2de0:	4618      	mov	r0, r3
    2de2:	f7ff bd5b 	b.w	289c <HalTRACEPinCtrlRtl8195A>
    2de6:	4611      	mov	r1, r2
    2de8:	4618      	mov	r0, r3
    2dea:	f7ff bd29 	b.w	2840 <HalJTAGPinCtrlRtl8195A>
    2dee:	4611      	mov	r1, r2
    2df0:	4618      	mov	r0, r3
    2df2:	f7ff bc9f 	b.w	2734 <HalSDRPinCtrlRtl8195A>
    2df6:	4611      	mov	r1, r2
    2df8:	4618      	mov	r0, r3
    2dfa:	f7ff bc4d 	b.w	2698 <HalSPIFlashPinCtrlRtl8195A>
    2dfe:	4611      	mov	r1, r2
    2e00:	4618      	mov	r0, r3
    2e02:	f7ff bbeb 	b.w	25dc <HalEGTIMPinCtrlRtl8195A>
    2e06:	4611      	mov	r1, r2
    2e08:	4618      	mov	r0, r3
    2e0a:	f7ff bb71 	b.w	24f0 <HalETE3PinCtrlRtl8195A>
    2e0e:	4611      	mov	r1, r2
    2e10:	4618      	mov	r0, r3
    2e12:	f7ff baf7 	b.w	2404 <HalETE2PinCtrlRtl8195A>
    2e16:	4611      	mov	r1, r2
    2e18:	4618      	mov	r0, r3
    2e1a:	f7ff ba7d 	b.w	2318 <HalETE1PinCtrlRtl8195A>
    2e1e:	4611      	mov	r1, r2
    2e20:	4618      	mov	r0, r3
    2e22:	f7ff ba03 	b.w	222c <HalETE0PinCtrlRtl8195A>
    2e26:	4611      	mov	r1, r2
    2e28:	4618      	mov	r0, r3
    2e2a:	f7ff b989 	b.w	2140 <HalPWM3PinCtrlRtl8195A>
    2e2e:	4611      	mov	r1, r2
    2e30:	4618      	mov	r0, r3
    2e32:	f7ff b91b 	b.w	206c <HalPWM2PinCtrlRtl8195A>
    2e36:	4611      	mov	r1, r2
    2e38:	4618      	mov	r0, r3
    2e3a:	f7ff b8a1 	b.w	1f80 <HalPWM1PinCtrlRtl8195A>
    2e3e:	4611      	mov	r1, r2
    2e40:	4618      	mov	r0, r3
    2e42:	f7ff b829 	b.w	1e98 <HalPWM0PinCtrlRtl8195A>
    2e46:	4611      	mov	r1, r2
    2e48:	4618      	mov	r0, r3
    2e4a:	f7fe bff9 	b.w	1e40 <HalNFCPinCtrlRtl8195A>
    2e4e:	4611      	mov	r1, r2
    2e50:	4618      	mov	r0, r3
    2e52:	f7fe bfc7 	b.w	1de4 <HalWLBTCMDPinCtrlRtl8195A>
    2e56:	4611      	mov	r1, r2
    2e58:	4618      	mov	r0, r3
    2e5a:	f7fe bf97 	b.w	1d8c <HalWLBTCOEXPinCtrlRtl8195A>
    2e5e:	4611      	mov	r1, r2
    2e60:	4618      	mov	r0, r3
    2e62:	f7fe bf65 	b.w	1d30 <HalWLANT1PinCtrlRtl8195A>
    2e66:	4611      	mov	r1, r2
    2e68:	4618      	mov	r0, r3
    2e6a:	f7fe bf33 	b.w	1cd4 <HalWLANT0PinCtrlRtl8195A>
    2e6e:	4611      	mov	r1, r2
    2e70:	4618      	mov	r0, r3
    2e72:	f7fe bed7 	b.w	1c24 <HalWLLEDPinCtrlRtl8195A>
    2e76:	4611      	mov	r1, r2
    2e78:	4618      	mov	r0, r3
    2e7a:	f7fe be81 	b.w	1b80 <HalMIIPinCtrlRtl8195A>
    2e7e:	4611      	mov	r1, r2
    2e80:	4618      	mov	r0, r3
    2e82:	f7fe be53 	b.w	1b2c <HalSDIOHPinCtrlRtl8195A>
    2e86:	4611      	mov	r1, r2
    2e88:	4618      	mov	r0, r3
    2e8a:	f7fe be23 	b.w	1ad4 <HalSDIODPinCtrlRtl8195A>
    2e8e:	4611      	mov	r1, r2
    2e90:	4618      	mov	r0, r3
    2e92:	f7fe bdbf 	b.w	1a14 <HalPCM1PinCtrlRtl8195A>
    2e96:	4611      	mov	r1, r2
    2e98:	4618      	mov	r0, r3
    2e9a:	f7fe bd47 	b.w	192c <HalPCM0PinCtrlRtl8195A>
    2e9e:	4611      	mov	r1, r2
    2ea0:	4618      	mov	r0, r3
    2ea2:	f7fe bce3 	b.w	186c <HalI2S1PinCtrlRtl8195A>
    2ea6:	4611      	mov	r1, r2
    2ea8:	4618      	mov	r0, r3
    2eaa:	f7fe bc55 	b.w	1758 <HalI2S0PinCtrlRtl8195A>
    2eae:	4611      	mov	r1, r2
    2eb0:	4618      	mov	r0, r3
    2eb2:	f7fe bbd7 	b.w	1664 <HalI2C3PinCtrlRtl8195A>
    2eb6:	4611      	mov	r1, r2
    2eb8:	4618      	mov	r0, r3
    2eba:	f7fe bb75 	b.w	15a8 <HalI2C2PinCtrlRtl8195A>
    2ebe:	4611      	mov	r1, r2
    2ec0:	4618      	mov	r0, r3
    2ec2:	f7fe bb11 	b.w	14e8 <HalI2C1PinCtrlRtl8195A>
    2ec6:	4611      	mov	r1, r2
    2ec8:	4618      	mov	r0, r3
    2eca:	f7fe ba95 	b.w	13f8 <HalI2C0PinCtrlRtl8195A>
    2ece:	4611      	mov	r1, r2
    2ed0:	4618      	mov	r0, r3
    2ed2:	f7fe ba39 	b.w	1348 <HalSPI0MCSPinCtrlRtl8195A>
    2ed6:	4611      	mov	r1, r2
    2ed8:	4618      	mov	r0, r3
    2eda:	f7fe b9d7 	b.w	128c <HalSPI2PinCtrlRtl8195A>
    2ede:	4611      	mov	r1, r2
    2ee0:	4618      	mov	r0, r3
    2ee2:	f7fe b977 	b.w	11d4 <HalSPI1PinCtrlRtl8195A>
    2ee6:	4611      	mov	r1, r2
    2ee8:	4618      	mov	r0, r3
    2eea:	f7fe b92b 	b.w	1144 <HalSPI0PinCtrlRtl8195A>
    2eee:	4611      	mov	r1, r2
    2ef0:	4618      	mov	r0, r3
    2ef2:	f7fe b8c5 	b.w	1080 <HalUart2PinCtrlRtl8195A>
    2ef6:	4611      	mov	r1, r2
    2ef8:	4618      	mov	r0, r3
    2efa:	f7fe b863 	b.w	fc4 <HalUart1PinCtrlRtl8195A>
    2efe:	4611      	mov	r1, r2
    2f00:	4618      	mov	r0, r3
    2f02:	f7fe b805 	b.w	f10 <HalUart0PinCtrlRtl8195A>
    2f06:	2000      	movs	r0, #0
    2f08:	4770      	bx	lr
    2f0a:	bf00      	nop

00002f0c <SpicInitRtl8195A>:
    2f0c:	b5f0      	push	{r4, r5, r6, r7, lr}
    2f0e:	4b1d      	ldr	r3, [pc, #116]	; (2f84 <SpicInitRtl8195A+0x78>)
    2f10:	4d1d      	ldr	r5, [pc, #116]	; (2f88 <SpicInitRtl8195A+0x7c>)
    2f12:	4f1e      	ldr	r7, [pc, #120]	; (2f8c <SpicInitRtl8195A+0x80>)
    2f14:	4e1e      	ldr	r6, [pc, #120]	; (2f90 <SpicInitRtl8195A+0x84>)
    2f16:	785c      	ldrb	r4, [r3, #1]
    2f18:	789a      	ldrb	r2, [r3, #2]
    2f1a:	f04f 0e00 	mov.w	lr, #0
    2f1e:	2301      	movs	r3, #1
    2f20:	f8c5 e000 	str.w	lr, [r5]
    2f24:	6038      	str	r0, [r7, #0]
    2f26:	6033      	str	r3, [r6, #0]
    2f28:	f8d5 3114 	ldr.w	r3, [r5, #276]	; 0x114
    2f2c:	4819      	ldr	r0, [pc, #100]	; (2f94 <SpicInitRtl8195A+0x88>)
    2f2e:	0c1b      	lsrs	r3, r3, #16
    2f30:	041b      	lsls	r3, r3, #16
    2f32:	4323      	orrs	r3, r4
    2f34:	f8c5 3114 	str.w	r3, [r5, #276]	; 0x114
    2f38:	6803      	ldr	r3, [r0, #0]
    2f3a:	4c17      	ldr	r4, [pc, #92]	; (2f98 <SpicInitRtl8195A+0x8c>)
    2f3c:	f023 03ff 	bic.w	r3, r3, #255	; 0xff
    2f40:	4313      	orrs	r3, r2
    2f42:	2901      	cmp	r1, #1
    2f44:	f04f 0204 	mov.w	r2, #4
    2f48:	6003      	str	r3, [r0, #0]
    2f4a:	6022      	str	r2, [r4, #0]
    2f4c:	d011      	beq.n	2f72 <SpicInitRtl8195A+0x66>
    2f4e:	d30a      	bcc.n	2f66 <SpicInitRtl8195A+0x5a>
    2f50:	2902      	cmp	r1, #2
    2f52:	d107      	bne.n	2f64 <SpicInitRtl8195A+0x58>
    2f54:	4a11      	ldr	r2, [pc, #68]	; (2f9c <SpicInitRtl8195A+0x90>)
    2f56:	6813      	ldr	r3, [r2, #0]
    2f58:	f423 137c 	bic.w	r3, r3, #4128768	; 0x3f0000
    2f5c:	f443 2320 	orr.w	r3, r3, #655360	; 0xa0000
    2f60:	6013      	str	r3, [r2, #0]
    2f62:	bdf0      	pop	{r4, r5, r6, r7, pc}
    2f64:	bdf0      	pop	{r4, r5, r6, r7, pc}
    2f66:	4a0d      	ldr	r2, [pc, #52]	; (2f9c <SpicInitRtl8195A+0x90>)
    2f68:	6813      	ldr	r3, [r2, #0]
    2f6a:	f423 137c 	bic.w	r3, r3, #4128768	; 0x3f0000
    2f6e:	6013      	str	r3, [r2, #0]
    2f70:	bdf0      	pop	{r4, r5, r6, r7, pc}
    2f72:	4a0a      	ldr	r2, [pc, #40]	; (2f9c <SpicInitRtl8195A+0x90>)
    2f74:	6813      	ldr	r3, [r2, #0]
    2f76:	f423 137c 	bic.w	r3, r3, #4128768	; 0x3f0000
    2f7a:	f443 23a0 	orr.w	r3, r3, #327680	; 0x50000
    2f7e:	6013      	str	r3, [r2, #0]
    2f80:	bdf0      	pop	{r4, r5, r6, r7, pc}
    2f82:	bf00      	nop
    2f84:	00006f80 	.word	0x00006f80
    2f88:	40006008 	.word	0x40006008
    2f8c:	40006014 	.word	0x40006014
    2f90:	40006010 	.word	0x40006010
    2f94:	40000300 	.word	0x40000300
    2f98:	40006004 	.word	0x40006004
    2f9c:	40006000 	.word	0x40006000

00002fa0 <SpicRxCmdRtl8195A>:
    2fa0:	490b      	ldr	r1, [pc, #44]	; (2fd0 <SpicRxCmdRtl8195A+0x30>)
    2fa2:	b470      	push	{r4, r5, r6}
    2fa4:	2300      	movs	r3, #0
    2fa6:	4c0b      	ldr	r4, [pc, #44]	; (2fd4 <SpicRxCmdRtl8195A+0x34>)
    2fa8:	600b      	str	r3, [r1, #0]
    2faa:	6823      	ldr	r3, [r4, #0]
    2fac:	4e0a      	ldr	r6, [pc, #40]	; (2fd8 <SpicRxCmdRtl8195A+0x38>)
    2fae:	f423 2370 	bic.w	r3, r3, #983040	; 0xf0000
    2fb2:	f423 7340 	bic.w	r3, r3, #768	; 0x300
    2fb6:	f443 7340 	orr.w	r3, r3, #768	; 0x300
    2fba:	2501      	movs	r5, #1
    2fbc:	4a07      	ldr	r2, [pc, #28]	; (2fdc <SpicRxCmdRtl8195A+0x3c>)
    2fbe:	6023      	str	r3, [r4, #0]
    2fc0:	7030      	strb	r0, [r6, #0]
    2fc2:	600d      	str	r5, [r1, #0]
    2fc4:	6813      	ldr	r3, [r2, #0]
    2fc6:	07db      	lsls	r3, r3, #31
    2fc8:	d4fc      	bmi.n	2fc4 <SpicRxCmdRtl8195A+0x24>
    2fca:	bc70      	pop	{r4, r5, r6}
    2fcc:	4770      	bx	lr
    2fce:	bf00      	nop
    2fd0:	40006008 	.word	0x40006008
    2fd4:	40006000 	.word	0x40006000
    2fd8:	40006060 	.word	0x40006060
    2fdc:	40006028 	.word	0x40006028

00002fe0 <SpicWaitBusyDoneRtl8195A>:
    2fe0:	4a02      	ldr	r2, [pc, #8]	; (2fec <SpicWaitBusyDoneRtl8195A+0xc>)
    2fe2:	6813      	ldr	r3, [r2, #0]
    2fe4:	07db      	lsls	r3, r3, #31
    2fe6:	d4fc      	bmi.n	2fe2 <SpicWaitBusyDoneRtl8195A+0x2>
    2fe8:	4770      	bx	lr
    2fea:	bf00      	nop
    2fec:	40006028 	.word	0x40006028

00002ff0 <SpicGetFlashStatusRtl8195A>:
    2ff0:	b4f0      	push	{r4, r5, r6, r7}
    2ff2:	b082      	sub	sp, #8
    2ff4:	ab02      	add	r3, sp, #8
    2ff6:	e903 0003 	stmdb	r3, {r0, r1}
    2ffa:	4a17      	ldr	r2, [pc, #92]	; (3058 <SpicGetFlashStatusRtl8195A+0x68>)
    2ffc:	4917      	ldr	r1, [pc, #92]	; (305c <SpicGetFlashStatusRtl8195A+0x6c>)
    2ffe:	2300      	movs	r3, #0
    3000:	4e17      	ldr	r6, [pc, #92]	; (3060 <SpicGetFlashStatusRtl8195A+0x70>)
    3002:	2401      	movs	r4, #1
    3004:	600b      	str	r3, [r1, #0]
    3006:	6014      	str	r4, [r2, #0]
    3008:	6835      	ldr	r5, [r6, #0]
    300a:	f89d 2001 	ldrb.w	r2, [sp, #1]
    300e:	0c28      	lsrs	r0, r5, #16
    3010:	0400      	lsls	r0, r0, #16
    3012:	4302      	orrs	r2, r0
    3014:	4813      	ldr	r0, [pc, #76]	; (3064 <SpicGetFlashStatusRtl8195A+0x74>)
    3016:	6032      	str	r2, [r6, #0]
    3018:	600b      	str	r3, [r1, #0]
    301a:	6803      	ldr	r3, [r0, #0]
    301c:	2705      	movs	r7, #5
    301e:	f423 2370 	bic.w	r3, r3, #983040	; 0xf0000
    3022:	f423 7340 	bic.w	r3, r3, #768	; 0x300
    3026:	f443 7340 	orr.w	r3, r3, #768	; 0x300
    302a:	4a0f      	ldr	r2, [pc, #60]	; (3068 <SpicGetFlashStatusRtl8195A+0x78>)
    302c:	6003      	str	r3, [r0, #0]
    302e:	b2ad      	uxth	r5, r5
    3030:	f806 7cbc 	strb.w	r7, [r6, #-188]
    3034:	600c      	str	r4, [r1, #0]
    3036:	6813      	ldr	r3, [r2, #0]
    3038:	07db      	lsls	r3, r3, #31
    303a:	d4fc      	bmi.n	3036 <SpicGetFlashStatusRtl8195A+0x46>
    303c:	4b07      	ldr	r3, [pc, #28]	; (305c <SpicGetFlashStatusRtl8195A+0x6c>)
    303e:	480b      	ldr	r0, [pc, #44]	; (306c <SpicGetFlashStatusRtl8195A+0x7c>)
    3040:	4a07      	ldr	r2, [pc, #28]	; (3060 <SpicGetFlashStatusRtl8195A+0x70>)
    3042:	2100      	movs	r1, #0
    3044:	7800      	ldrb	r0, [r0, #0]
    3046:	6019      	str	r1, [r3, #0]
    3048:	6813      	ldr	r3, [r2, #0]
    304a:	0c1b      	lsrs	r3, r3, #16
    304c:	041b      	lsls	r3, r3, #16
    304e:	432b      	orrs	r3, r5
    3050:	6013      	str	r3, [r2, #0]
    3052:	b002      	add	sp, #8
    3054:	bcf0      	pop	{r4, r5, r6, r7}
    3056:	4770      	bx	lr
    3058:	40006004 	.word	0x40006004
    305c:	40006008 	.word	0x40006008
    3060:	4000611c 	.word	0x4000611c
    3064:	40006000 	.word	0x40006000
    3068:	40006028 	.word	0x40006028
    306c:	40006060 	.word	0x40006060

00003070 <SpicWaitWipDoneRtl8195A>:
    3070:	b510      	push	{r4, lr}
    3072:	b082      	sub	sp, #8
    3074:	466c      	mov	r4, sp
    3076:	e88d 0003 	stmia.w	sp, {r0, r1}
    307a:	e894 0003 	ldmia.w	r4, {r0, r1}
    307e:	f7ff ffb7 	bl	2ff0 <SpicGetFlashStatusRtl8195A>
    3082:	07c3      	lsls	r3, r0, #31
    3084:	d4f9      	bmi.n	307a <SpicWaitWipDoneRtl8195A+0xa>
    3086:	b002      	add	sp, #8
    3088:	bd10      	pop	{r4, pc}
    308a:	bf00      	nop

0000308c <SpicTxCmdRtl8195A>:
    308c:	b5f0      	push	{r4, r5, r6, r7, lr}
    308e:	b085      	sub	sp, #20
    3090:	466d      	mov	r5, sp
    3092:	e88d 0006 	stmia.w	sp, {r1, r2}
    3096:	490f      	ldr	r1, [pc, #60]	; (30d4 <SpicTxCmdRtl8195A+0x48>)
    3098:	2300      	movs	r3, #0
    309a:	4c0f      	ldr	r4, [pc, #60]	; (30d8 <SpicTxCmdRtl8195A+0x4c>)
    309c:	600b      	str	r3, [r1, #0]
    309e:	6823      	ldr	r3, [r4, #0]
    30a0:	4f0e      	ldr	r7, [pc, #56]	; (30dc <SpicTxCmdRtl8195A+0x50>)
    30a2:	f423 2370 	bic.w	r3, r3, #983040	; 0xf0000
    30a6:	f423 7340 	bic.w	r3, r3, #768	; 0x300
    30aa:	2601      	movs	r6, #1
    30ac:	4a0c      	ldr	r2, [pc, #48]	; (30e0 <SpicTxCmdRtl8195A+0x54>)
    30ae:	6023      	str	r3, [r4, #0]
    30b0:	7038      	strb	r0, [r7, #0]
    30b2:	600e      	str	r6, [r1, #0]
    30b4:	6813      	ldr	r3, [r2, #0]
    30b6:	07d9      	lsls	r1, r3, #31
    30b8:	d4fc      	bmi.n	30b4 <SpicTxCmdRtl8195A+0x28>
    30ba:	ac02      	add	r4, sp, #8
    30bc:	e895 0003 	ldmia.w	r5, {r0, r1}
    30c0:	e884 0003 	stmia.w	r4, {r0, r1}
    30c4:	e894 0003 	ldmia.w	r4, {r0, r1}
    30c8:	f7ff ff92 	bl	2ff0 <SpicGetFlashStatusRtl8195A>
    30cc:	07c3      	lsls	r3, r0, #31
    30ce:	d4f9      	bmi.n	30c4 <SpicTxCmdRtl8195A+0x38>
    30d0:	b005      	add	sp, #20
    30d2:	bdf0      	pop	{r4, r5, r6, r7, pc}
    30d4:	40006008 	.word	0x40006008
    30d8:	40006000 	.word	0x40006000
    30dc:	40006060 	.word	0x40006060
    30e0:	40006028 	.word	0x40006028

000030e4 <SpicEraseFlashRtl8195A>:
    30e4:	e92d 41f0 	stmdb	sp!, {r4, r5, r6, r7, r8, lr}
    30e8:	f8df 80cc 	ldr.w	r8, [pc, #204]	; 31b8 <SpicEraseFlashRtl8195A+0xd4>
    30ec:	4b2c      	ldr	r3, [pc, #176]	; (31a0 <SpicEraseFlashRtl8195A+0xbc>)
    30ee:	f8d8 2000 	ldr.w	r2, [r8]
    30f2:	b084      	sub	sp, #16
    30f4:	0052      	lsls	r2, r2, #1
    30f6:	781d      	ldrb	r5, [r3, #0]
    30f8:	785e      	ldrb	r6, [r3, #1]
    30fa:	789f      	ldrb	r7, [r3, #2]
    30fc:	d439      	bmi.n	3172 <SpicEraseFlashRtl8195A+0x8e>
    30fe:	f88d 5008 	strb.w	r5, [sp, #8]
    3102:	f88d 6009 	strb.w	r6, [sp, #9]
    3106:	f88d 700a 	strb.w	r7, [sp, #10]
    310a:	ac02      	add	r4, sp, #8
    310c:	e894 0003 	ldmia.w	r4, {r0, r1}
    3110:	f7ff ff6e 	bl	2ff0 <SpicGetFlashStatusRtl8195A>
    3114:	07c1      	lsls	r1, r0, #31
    3116:	d4f9      	bmi.n	310c <SpicEraseFlashRtl8195A+0x28>
    3118:	466c      	mov	r4, sp
    311a:	e003      	b.n	3124 <SpicEraseFlashRtl8195A+0x40>
    311c:	e894 0006 	ldmia.w	r4, {r1, r2}
    3120:	f7ff ffb4 	bl	308c <SpicTxCmdRtl8195A>
    3124:	f88d 5000 	strb.w	r5, [sp]
    3128:	f88d 6001 	strb.w	r6, [sp, #1]
    312c:	f88d 7002 	strb.w	r7, [sp, #2]
    3130:	e894 0003 	ldmia.w	r4, {r0, r1}
    3134:	f7ff ff5c 	bl	2ff0 <SpicGetFlashStatusRtl8195A>
    3138:	f010 0f02 	tst.w	r0, #2
    313c:	f04f 0006 	mov.w	r0, #6
    3140:	d0ec      	beq.n	311c <SpicEraseFlashRtl8195A+0x38>
    3142:	f8d8 3000 	ldr.w	r3, [r8]
    3146:	005a      	lsls	r2, r3, #1
    3148:	d426      	bmi.n	3198 <SpicEraseFlashRtl8195A+0xb4>
    314a:	e894 0006 	ldmia.w	r4, {r1, r2}
    314e:	20c7      	movs	r0, #199	; 0xc7
    3150:	f7ff ff9c 	bl	308c <SpicTxCmdRtl8195A>
    3154:	f88d 5000 	strb.w	r5, [sp]
    3158:	f88d 6001 	strb.w	r6, [sp, #1]
    315c:	f88d 7002 	strb.w	r7, [sp, #2]
    3160:	e894 0003 	ldmia.w	r4, {r0, r1}
    3164:	f7ff ff44 	bl	2ff0 <SpicGetFlashStatusRtl8195A>
    3168:	0783      	lsls	r3, r0, #30
    316a:	d4f3      	bmi.n	3154 <SpicEraseFlashRtl8195A+0x70>
    316c:	b004      	add	sp, #16
    316e:	e8bd 81f0 	ldmia.w	sp!, {r4, r5, r6, r7, r8, pc}
    3172:	4629      	mov	r1, r5
    3174:	480b      	ldr	r0, [pc, #44]	; (31a4 <SpicEraseFlashRtl8195A+0xc0>)
    3176:	4c0c      	ldr	r4, [pc, #48]	; (31a8 <SpicEraseFlashRtl8195A+0xc4>)
    3178:	47a0      	blx	r4
    317a:	f8d8 3000 	ldr.w	r3, [r8]
    317e:	005b      	lsls	r3, r3, #1
    3180:	d5bd      	bpl.n	30fe <SpicEraseFlashRtl8195A+0x1a>
    3182:	4631      	mov	r1, r6
    3184:	4809      	ldr	r0, [pc, #36]	; (31ac <SpicEraseFlashRtl8195A+0xc8>)
    3186:	47a0      	blx	r4
    3188:	f8d8 3000 	ldr.w	r3, [r8]
    318c:	0058      	lsls	r0, r3, #1
    318e:	d5b6      	bpl.n	30fe <SpicEraseFlashRtl8195A+0x1a>
    3190:	4639      	mov	r1, r7
    3192:	4807      	ldr	r0, [pc, #28]	; (31b0 <SpicEraseFlashRtl8195A+0xcc>)
    3194:	47a0      	blx	r4
    3196:	e7b2      	b.n	30fe <SpicEraseFlashRtl8195A+0x1a>
    3198:	4b03      	ldr	r3, [pc, #12]	; (31a8 <SpicEraseFlashRtl8195A+0xc4>)
    319a:	4806      	ldr	r0, [pc, #24]	; (31b4 <SpicEraseFlashRtl8195A+0xd0>)
    319c:	4798      	blx	r3
    319e:	e7d4      	b.n	314a <SpicEraseFlashRtl8195A+0x66>
    31a0:	00006f80 	.word	0x00006f80
    31a4:	10015554 	.word	0x10015554
    31a8:	000064f1 	.word	0x000064f1
    31ac:	1001556c 	.word	0x1001556c
    31b0:	10015584 	.word	0x10015584
    31b4:	1001559c 	.word	0x1001559c
    31b8:	10000314 	.word	0x10000314

000031bc <SpicSetFlashStatusRtl8195A>:
    31bc:	b5f0      	push	{r4, r5, r6, r7, lr}
    31be:	4604      	mov	r4, r0
    31c0:	b085      	sub	sp, #20
    31c2:	466d      	mov	r5, sp
    31c4:	e88d 0006 	stmia.w	sp, {r1, r2}
    31c8:	4f15      	ldr	r7, [pc, #84]	; (3220 <SpicSetFlashStatusRtl8195A+0x64>)
    31ca:	e89d 0006 	ldmia.w	sp, {r1, r2}
    31ce:	2006      	movs	r0, #6
    31d0:	683e      	ldr	r6, [r7, #0]
    31d2:	f7ff ff5b 	bl	308c <SpicTxCmdRtl8195A>
    31d6:	4913      	ldr	r1, [pc, #76]	; (3224 <SpicSetFlashStatusRtl8195A+0x68>)
    31d8:	4a13      	ldr	r2, [pc, #76]	; (3228 <SpicSetFlashStatusRtl8195A+0x6c>)
    31da:	2300      	movs	r3, #0
    31dc:	600b      	str	r3, [r1, #0]
    31de:	6813      	ldr	r3, [r2, #0]
    31e0:	4812      	ldr	r0, [pc, #72]	; (322c <SpicSetFlashStatusRtl8195A+0x70>)
    31e2:	f423 7340 	bic.w	r3, r3, #768	; 0x300
    31e6:	6013      	str	r3, [r2, #0]
    31e8:	b2e4      	uxtb	r4, r4
    31ea:	2301      	movs	r3, #1
    31ec:	603b      	str	r3, [r7, #0]
    31ee:	3228      	adds	r2, #40	; 0x28
    31f0:	7003      	strb	r3, [r0, #0]
    31f2:	7004      	strb	r4, [r0, #0]
    31f4:	600b      	str	r3, [r1, #0]
    31f6:	6813      	ldr	r3, [r2, #0]
    31f8:	07d9      	lsls	r1, r3, #31
    31fa:	d4fc      	bmi.n	31f6 <SpicSetFlashStatusRtl8195A+0x3a>
    31fc:	4a09      	ldr	r2, [pc, #36]	; (3224 <SpicSetFlashStatusRtl8195A+0x68>)
    31fe:	4b08      	ldr	r3, [pc, #32]	; (3220 <SpicSetFlashStatusRtl8195A+0x64>)
    3200:	2100      	movs	r1, #0
    3202:	6011      	str	r1, [r2, #0]
    3204:	ac02      	add	r4, sp, #8
    3206:	601e      	str	r6, [r3, #0]
    3208:	e895 0003 	ldmia.w	r5, {r0, r1}
    320c:	e884 0003 	stmia.w	r4, {r0, r1}
    3210:	e894 0003 	ldmia.w	r4, {r0, r1}
    3214:	f7ff feec 	bl	2ff0 <SpicGetFlashStatusRtl8195A>
    3218:	07c3      	lsls	r3, r0, #31
    321a:	d4f9      	bmi.n	3210 <SpicSetFlashStatusRtl8195A+0x54>
    321c:	b005      	add	sp, #20
    321e:	bdf0      	pop	{r4, r5, r6, r7, pc}
    3220:	40006118 	.word	0x40006118
    3224:	40006008 	.word	0x40006008
    3228:	40006000 	.word	0x40006000
    322c:	40006060 	.word	0x40006060

00003230 <SpicCmpDataForCalibrationRtl8195A>:
    3230:	4b07      	ldr	r3, [pc, #28]	; (3250 <SpicCmpDataForCalibrationRtl8195A+0x20>)
    3232:	4808      	ldr	r0, [pc, #32]	; (3254 <SpicCmpDataForCalibrationRtl8195A+0x24>)
    3234:	4a08      	ldr	r2, [pc, #32]	; (3258 <SpicCmpDataForCalibrationRtl8195A+0x28>)
    3236:	6819      	ldr	r1, [r3, #0]
    3238:	441a      	add	r2, r3
    323a:	6812      	ldr	r2, [r2, #0]
    323c:	3304      	adds	r3, #4
    323e:	4291      	cmp	r1, r2
    3240:	d103      	bne.n	324a <SpicCmpDataForCalibrationRtl8195A+0x1a>
    3242:	4283      	cmp	r3, r0
    3244:	d1f6      	bne.n	3234 <SpicCmpDataForCalibrationRtl8195A+0x4>
    3246:	2001      	movs	r0, #1
    3248:	4770      	bx	lr
    324a:	2000      	movs	r0, #0
    324c:	4770      	bx	lr
    324e:	bf00      	nop
    3250:	1006ff00 	.word	0x1006ff00
    3254:	1006ff18 	.word	0x1006ff18
    3258:	8808fd00 	.word	0x8808fd00

0000325c <SpicProgFlashForCalibrationRtl8195A>:
    325c:	e92d 43f0 	stmdb	sp!, {r4, r5, r6, r7, r8, r9, lr}
    3260:	b085      	sub	sp, #20
    3262:	466f      	mov	r7, sp
    3264:	e88d 0003 	stmia.w	sp, {r0, r1}
    3268:	4e11      	ldr	r6, [pc, #68]	; (32b0 <SpicProgFlashForCalibrationRtl8195A+0x54>)
    326a:	4d12      	ldr	r5, [pc, #72]	; (32b4 <SpicProgFlashForCalibrationRtl8195A+0x58>)
    326c:	f8df 804c 	ldr.w	r8, [pc, #76]	; 32bc <SpicProgFlashForCalibrationRtl8195A+0x60>
    3270:	ac02      	add	r4, sp, #8
    3272:	f002 ffa5 	bl	61c0 <Rand>
    3276:	4681      	mov	r9, r0
    3278:	f002 ffa2 	bl	61c0 <Rand>
    327c:	4b0e      	ldr	r3, [pc, #56]	; (32b8 <SpicProgFlashForCalibrationRtl8195A+0x5c>)
    327e:	b280      	uxth	r0, r0
    3280:	ea40 4009 	orr.w	r0, r0, r9, lsl #16
    3284:	4433      	add	r3, r6
    3286:	6030      	str	r0, [r6, #0]
    3288:	6018      	str	r0, [r3, #0]
    328a:	682b      	ldr	r3, [r5, #0]
    328c:	07da      	lsls	r2, r3, #31
    328e:	d4fc      	bmi.n	328a <SpicProgFlashForCalibrationRtl8195A+0x2e>
    3290:	e897 0003 	ldmia.w	r7, {r0, r1}
    3294:	e884 0003 	stmia.w	r4, {r0, r1}
    3298:	e894 0003 	ldmia.w	r4, {r0, r1}
    329c:	f7ff fea8 	bl	2ff0 <SpicGetFlashStatusRtl8195A>
    32a0:	07c3      	lsls	r3, r0, #31
    32a2:	d4f9      	bmi.n	3298 <SpicProgFlashForCalibrationRtl8195A+0x3c>
    32a4:	3604      	adds	r6, #4
    32a6:	4546      	cmp	r6, r8
    32a8:	d1e3      	bne.n	3272 <SpicProgFlashForCalibrationRtl8195A+0x16>
    32aa:	b005      	add	sp, #20
    32ac:	e8bd 83f0 	ldmia.w	sp!, {r4, r5, r6, r7, r8, r9, pc}
    32b0:	1006ff00 	.word	0x1006ff00
    32b4:	40006028 	.word	0x40006028
    32b8:	8808fd00 	.word	0x8808fd00
    32bc:	1006ff18 	.word	0x1006ff18

000032c0 <SpicLoadInitParaFromClockRtl8195A>:
    32c0:	b470      	push	{r4, r5, r6}
    32c2:	4e14      	ldr	r6, [pc, #80]	; (3314 <SpicLoadInitParaFromClockRtl8195A+0x54>)
    32c4:	4b14      	ldr	r3, [pc, #80]	; (3318 <SpicLoadInitParaFromClockRtl8195A+0x58>)
    32c6:	6830      	ldr	r0, [r6, #0]
    32c8:	4c14      	ldr	r4, [pc, #80]	; (331c <SpicLoadInitParaFromClockRtl8195A+0x5c>)
    32ca:	f3c0 6081 	ubfx	r0, r0, #26, #2
    32ce:	681b      	ldr	r3, [r3, #0]
    32d0:	00c1      	lsls	r1, r0, #3
    32d2:	1865      	adds	r5, r4, r1
    32d4:	f013 0301 	ands.w	r3, r3, #1
    32d8:	78ad      	ldrb	r5, [r5, #2]
    32da:	d010      	beq.n	32fe <SpicLoadInitParaFromClockRtl8195A+0x3e>
    32dc:	4b10      	ldr	r3, [pc, #64]	; (3320 <SpicLoadInitParaFromClockRtl8195A+0x60>)
    32de:	681b      	ldr	r3, [r3, #0]
    32e0:	f013 0320 	ands.w	r3, r3, #32
    32e4:	d00b      	beq.n	32fe <SpicLoadInitParaFromClockRtl8195A+0x3e>
    32e6:	6833      	ldr	r3, [r6, #0]
    32e8:	f013 7380 	ands.w	r3, r3, #16777216	; 0x1000000
    32ec:	d007      	beq.n	32fe <SpicLoadInitParaFromClockRtl8195A+0x3e>
    32ee:	6833      	ldr	r3, [r6, #0]
    32f0:	f3c3 4307 	ubfx	r3, r3, #16, #8
    32f4:	f003 051f 	and.w	r5, r3, #31
    32f8:	eb05 0545 	add.w	r5, r5, r5, lsl #1
    32fc:	095b      	lsrs	r3, r3, #5
    32fe:	f814 0030 	ldrb.w	r0, [r4, r0, lsl #3]
    3302:	4421      	add	r1, r4
    3304:	7095      	strb	r5, [r2, #2]
    3306:	7010      	strb	r0, [r2, #0]
    3308:	7849      	ldrb	r1, [r1, #1]
    330a:	bc70      	pop	{r4, r5, r6}
    330c:	440b      	add	r3, r1
    330e:	7053      	strb	r3, [r2, #1]
    3310:	4770      	bx	lr
    3312:	bf00      	nop
    3314:	40000038 	.word	0x40000038
    3318:	400001f4 	.word	0x400001f4
    331c:	00006f88 	.word	0x00006f88
    3320:	400000e0 	.word	0x400000e0

00003324 <HalLogUartInit>:
    3324:	b470      	push	{r4, r5, r6}
    3326:	b085      	sub	sp, #20
    3328:	ac04      	add	r4, sp, #16
    332a:	e904 000f 	stmdb	r4, {r0, r1, r2, r3}
    332e:	491c      	ldr	r1, [pc, #112]	; (33a0 <HalLogUartInit+0x7c>)
    3330:	481c      	ldr	r0, [pc, #112]	; (33a4 <HalLogUartInit+0x80>)
    3332:	2500      	movs	r5, #0
    3334:	2380      	movs	r3, #128	; 0x80
    3336:	9c02      	ldr	r4, [sp, #8]
    3338:	600d      	str	r5, [r1, #0]
    333a:	6003      	str	r3, [r0, #0]
    333c:	9b00      	ldr	r3, [sp, #0]
    333e:	4a1a      	ldr	r2, [pc, #104]	; (33a8 <HalLogUartInit+0x84>)
    3340:	011b      	lsls	r3, r3, #4
    3342:	fbb2 f3f3 	udiv	r3, r2, r3
    3346:	4a19      	ldr	r2, [pc, #100]	; (33ac <HalLogUartInit+0x88>)
    3348:	b2de      	uxtb	r6, r3
    334a:	f3c3 2307 	ubfx	r3, r3, #8, #8
    334e:	6016      	str	r6, [r2, #0]
    3350:	600b      	str	r3, [r1, #0]
    3352:	6005      	str	r5, [r0, #0]
    3354:	f89d 500c 	ldrb.w	r5, [sp, #12]
    3358:	f89d 300d 	ldrb.w	r3, [sp, #13]
    335c:	f89d 200e 	ldrb.w	r2, [sp, #14]
    3360:	432b      	orrs	r3, r5
    3362:	4313      	orrs	r3, r2
    3364:	6003      	str	r3, [r0, #0]
    3366:	9a01      	ldr	r2, [sp, #4]
    3368:	4b11      	ldr	r3, [pc, #68]	; (33b0 <HalLogUartInit+0x8c>)
    336a:	601a      	str	r2, [r3, #0]
    336c:	600c      	str	r4, [r1, #0]
    336e:	b19c      	cbz	r4, 3398 <HalLogUartInit+0x74>
    3370:	f64f 02ff 	movw	r2, #63743	; 0xf8ff
    3374:	f2a3 73fc 	subw	r3, r3, #2044	; 0x7fc
    3378:	f04f 7180 	mov.w	r1, #16777216	; 0x1000000
    337c:	480d      	ldr	r0, [pc, #52]	; (33b4 <HalLogUartInit+0x90>)
    337e:	6019      	str	r1, [r3, #0]
    3380:	68c1      	ldr	r1, [r0, #12]
    3382:	4b0d      	ldr	r3, [pc, #52]	; (33b8 <HalLogUartInit+0x94>)
    3384:	400a      	ands	r2, r1
    3386:	490d      	ldr	r1, [pc, #52]	; (33bc <HalLogUartInit+0x98>)
    3388:	4313      	orrs	r3, r2
    338a:	24e0      	movs	r4, #224	; 0xe0
    338c:	f44f 2200 	mov.w	r2, #524288	; 0x80000
    3390:	60c3      	str	r3, [r0, #12]
    3392:	f881 4313 	strb.w	r4, [r1, #787]	; 0x313
    3396:	600a      	str	r2, [r1, #0]
    3398:	2000      	movs	r0, #0
    339a:	b005      	add	sp, #20
    339c:	bc70      	pop	{r4, r5, r6}
    339e:	4770      	bx	lr
    33a0:	40003004 	.word	0x40003004
    33a4:	4000300c 	.word	0x4000300c
    33a8:	013de435 	.word	0x013de435
    33ac:	40003000 	.word	0x40003000
    33b0:	40003008 	.word	0x40003008
    33b4:	e000ed00 	.word	0xe000ed00
    33b8:	05fa0300 	.word	0x05fa0300
    33bc:	e000e100 	.word	0xe000e100

000033c0 <HalSerialPutcRtl8195a>:
    33c0:	f641 138b 	movw	r3, #6539	; 0x198b
    33c4:	4907      	ldr	r1, [pc, #28]	; (33e4 <HalSerialPutcRtl8195a+0x24>)
    33c6:	e001      	b.n	33cc <HalSerialPutcRtl8195a+0xc>
    33c8:	3b01      	subs	r3, #1
    33ca:	d003      	beq.n	33d4 <HalSerialPutcRtl8195a+0x14>
    33cc:	780a      	ldrb	r2, [r1, #0]
    33ce:	f012 0f60 	tst.w	r2, #96	; 0x60
    33d2:	d0f9      	beq.n	33c8 <HalSerialPutcRtl8195a+0x8>
    33d4:	4b04      	ldr	r3, [pc, #16]	; (33e8 <HalSerialPutcRtl8195a+0x28>)
    33d6:	280a      	cmp	r0, #10
    33d8:	bf08      	it	eq
    33da:	220d      	moveq	r2, #13
    33dc:	7018      	strb	r0, [r3, #0]
    33de:	bf08      	it	eq
    33e0:	701a      	strbeq	r2, [r3, #0]
    33e2:	4770      	bx	lr
    33e4:	40003014 	.word	0x40003014
    33e8:	40003000 	.word	0x40003000

000033ec <HalSerialGetcRtl8195a>:
    33ec:	b118      	cbz	r0, 33f6 <HalSerialGetcRtl8195a+0xa>
    33ee:	4a04      	ldr	r2, [pc, #16]	; (3400 <HalSerialGetcRtl8195a+0x14>)
    33f0:	7813      	ldrb	r3, [r2, #0]
    33f2:	07db      	lsls	r3, r3, #31
    33f4:	d5fc      	bpl.n	33f0 <HalSerialGetcRtl8195a+0x4>
    33f6:	4b03      	ldr	r3, [pc, #12]	; (3404 <HalSerialGetcRtl8195a+0x18>)
    33f8:	7818      	ldrb	r0, [r3, #0]
    33fa:	b2c0      	uxtb	r0, r0
    33fc:	4770      	bx	lr
    33fe:	bf00      	nop
    3400:	40003014 	.word	0x40003014
    3404:	40003000 	.word	0x40003000

00003408 <HalSerialGetIsrEnRegRtl8195a>:
    3408:	4b01      	ldr	r3, [pc, #4]	; (3410 <HalSerialGetIsrEnRegRtl8195a+0x8>)
    340a:	6818      	ldr	r0, [r3, #0]
    340c:	4770      	bx	lr
    340e:	bf00      	nop
    3410:	40003004 	.word	0x40003004

00003414 <HalSerialSetIrqEnRegRtl8195a>:
    3414:	4b01      	ldr	r3, [pc, #4]	; (341c <HalSerialSetIrqEnRegRtl8195a+0x8>)
    3416:	6018      	str	r0, [r3, #0]
    3418:	4770      	bx	lr
    341a:	bf00      	nop
    341c:	40003004 	.word	0x40003004

00003420 <__rtl_memDump.part.6>:
    3420:	e92d 4ff0 	stmdb	sp!, {r4, r5, r6, r7, r8, r9, sl, fp, lr}
    3424:	4607      	mov	r7, r0
    3426:	b083      	sub	sp, #12
    3428:	460c      	mov	r4, r1
    342a:	2a00      	cmp	r2, #0
    342c:	d03b      	beq.n	34a6 <__rtl_memDump.part.6+0x86>
    342e:	4611      	mov	r1, r2
    3430:	4823      	ldr	r0, [pc, #140]	; (34c0 <__rtl_memDump.part.6+0xa0>)
    3432:	4d24      	ldr	r5, [pc, #144]	; (34c4 <__rtl_memDump.part.6+0xa4>)
    3434:	47a8      	blx	r5
    3436:	ea4f 1814 	mov.w	r8, r4, lsr #4
    343a:	f004 030f 	and.w	r3, r4, #15
    343e:	9301      	str	r3, [sp, #4]
    3440:	f108 0901 	add.w	r9, r8, #1
    3444:	2600      	movs	r6, #0
    3446:	45b0      	cmp	r8, r6
    3448:	bf18      	it	ne
    344a:	f04f 0a10 	movne.w	sl, #16
    344e:	d030      	beq.n	34b2 <__rtl_memDump.part.6+0x92>
    3450:	4639      	mov	r1, r7
    3452:	481d      	ldr	r0, [pc, #116]	; (34c8 <__rtl_memDump.part.6+0xa8>)
    3454:	47a8      	blx	r5
    3456:	f107 3bff 	add.w	fp, r7, #4294967295
    345a:	2400      	movs	r4, #0
    345c:	e001      	b.n	3462 <__rtl_memDump.part.6+0x42>
    345e:	2c08      	cmp	r4, #8
    3460:	d023      	beq.n	34aa <__rtl_memDump.part.6+0x8a>
    3462:	3401      	adds	r4, #1
    3464:	f81b 1f01 	ldrb.w	r1, [fp, #1]!
    3468:	4818      	ldr	r0, [pc, #96]	; (34cc <__rtl_memDump.part.6+0xac>)
    346a:	47a8      	blx	r5
    346c:	4554      	cmp	r4, sl
    346e:	dbf6      	blt.n	345e <__rtl_memDump.part.6+0x3e>
    3470:	f1ba 0f10 	cmp.w	sl, #16
    3474:	d008      	beq.n	3488 <__rtl_memDump.part.6+0x68>
    3476:	f1ba 0f07 	cmp.w	sl, #7
    347a:	dd10      	ble.n	349e <__rtl_memDump.part.6+0x7e>
    347c:	f1ca 0410 	rsb	r4, sl, #16
    3480:	4813      	ldr	r0, [pc, #76]	; (34d0 <__rtl_memDump.part.6+0xb0>)
    3482:	47a8      	blx	r5
    3484:	3c01      	subs	r4, #1
    3486:	d1fb      	bne.n	3480 <__rtl_memDump.part.6+0x60>
    3488:	3601      	adds	r6, #1
    348a:	45b1      	cmp	r9, r6
    348c:	f107 0710 	add.w	r7, r7, #16
    3490:	dcd9      	bgt.n	3446 <__rtl_memDump.part.6+0x26>
    3492:	462b      	mov	r3, r5
    3494:	480f      	ldr	r0, [pc, #60]	; (34d4 <__rtl_memDump.part.6+0xb4>)
    3496:	b003      	add	sp, #12
    3498:	e8bd 4ff0 	ldmia.w	sp!, {r4, r5, r6, r7, r8, r9, sl, fp, lr}
    349c:	4718      	bx	r3
    349e:	4b09      	ldr	r3, [pc, #36]	; (34c4 <__rtl_memDump.part.6+0xa4>)
    34a0:	480d      	ldr	r0, [pc, #52]	; (34d8 <__rtl_memDump.part.6+0xb8>)
    34a2:	4798      	blx	r3
    34a4:	e7ea      	b.n	347c <__rtl_memDump.part.6+0x5c>
    34a6:	4d07      	ldr	r5, [pc, #28]	; (34c4 <__rtl_memDump.part.6+0xa4>)
    34a8:	e7c5      	b.n	3436 <__rtl_memDump.part.6+0x16>
    34aa:	4b06      	ldr	r3, [pc, #24]	; (34c4 <__rtl_memDump.part.6+0xa4>)
    34ac:	480a      	ldr	r0, [pc, #40]	; (34d8 <__rtl_memDump.part.6+0xb8>)
    34ae:	4798      	blx	r3
    34b0:	e7d7      	b.n	3462 <__rtl_memDump.part.6+0x42>
    34b2:	9b01      	ldr	r3, [sp, #4]
    34b4:	2b00      	cmp	r3, #0
    34b6:	d0ec      	beq.n	3492 <__rtl_memDump.part.6+0x72>
    34b8:	f8dd a004 	ldr.w	sl, [sp, #4]
    34bc:	e7c8      	b.n	3450 <__rtl_memDump.part.6+0x30>
    34be:	bf00      	nop
    34c0:	100155f8 	.word	0x100155f8
    34c4:	000064f1 	.word	0x000064f1
    34c8:	100155fc 	.word	0x100155fc
    34cc:	10014e64 	.word	0x10014e64
    34d0:	10014e6c 	.word	0x10014e6c
    34d4:	10015bc8 	.word	0x10015bc8
    34d8:	10015608 	.word	0x10015608

000034dc <__rtl_memcmpb>:
    34dc:	2a00      	cmp	r2, #0
    34de:	dd17      	ble.n	3510 <__rtl_memcmpb+0x34>
    34e0:	b470      	push	{r4, r5, r6}
    34e2:	780b      	ldrb	r3, [r1, #0]
    34e4:	7804      	ldrb	r4, [r0, #0]
    34e6:	429c      	cmp	r4, r3
    34e8:	d114      	bne.n	3514 <__rtl_memcmpb+0x38>
    34ea:	4402      	add	r2, r0
    34ec:	1c43      	adds	r3, r0, #1
    34ee:	e005      	b.n	34fc <__rtl_memcmpb+0x20>
    34f0:	f813 4b01 	ldrb.w	r4, [r3], #1
    34f4:	f811 5f01 	ldrb.w	r5, [r1, #1]!
    34f8:	42a5      	cmp	r5, r4
    34fa:	d106      	bne.n	350a <__rtl_memcmpb+0x2e>
    34fc:	4293      	cmp	r3, r2
    34fe:	eba3 0600 	sub.w	r6, r3, r0
    3502:	d1f5      	bne.n	34f0 <__rtl_memcmpb+0x14>
    3504:	2000      	movs	r0, #0
    3506:	bc70      	pop	{r4, r5, r6}
    3508:	4770      	bx	lr
    350a:	1c70      	adds	r0, r6, #1
    350c:	bc70      	pop	{r4, r5, r6}
    350e:	4770      	bx	lr
    3510:	2000      	movs	r0, #0
    3512:	4770      	bx	lr
    3514:	2001      	movs	r0, #1
    3516:	e7f6      	b.n	3506 <__rtl_memcmpb+0x2a>

00003518 <__rtl_random>:
    3518:	b283      	uxth	r3, r0
    351a:	eb03 02c3 	add.w	r2, r3, r3, lsl #3
    351e:	0c00      	lsrs	r0, r0, #16
    3520:	eb03 0342 	add.w	r3, r3, r2, lsl #1
    3524:	eb00 02c0 	add.w	r2, r0, r0, lsl #3
    3528:	eb00 0042 	add.w	r0, r0, r2, lsl #1
    352c:	3325      	adds	r3, #37	; 0x25
    352e:	ea83 4300 	eor.w	r3, r3, r0, lsl #16
    3532:	4058      	eors	r0, r3
    3534:	4770      	bx	lr
    3536:	bf00      	nop

00003538 <__rtl_align_to_be32>:
    3538:	2900      	cmp	r1, #0
    353a:	dd07      	ble.n	354c <__rtl_align_to_be32+0x14>
    353c:	2200      	movs	r2, #0
    353e:	6803      	ldr	r3, [r0, #0]
    3540:	ba1b      	rev	r3, r3
    3542:	3201      	adds	r2, #1
    3544:	4291      	cmp	r1, r2
    3546:	f840 3b04 	str.w	r3, [r0], #4
    354a:	d1f8      	bne.n	353e <__rtl_align_to_be32+0x6>
    354c:	4770      	bx	lr
    354e:	bf00      	nop

00003550 <__rtl_memDump>:
    3550:	b108      	cbz	r0, 3556 <__rtl_memDump+0x6>
    3552:	b101      	cbz	r1, 3556 <__rtl_memDump+0x6>
    3554:	e764      	b.n	3420 <__rtl_memDump.part.6>
    3556:	4770      	bx	lr

00003558 <__rtl_cryptoEngine_info>:
    3558:	b570      	push	{r4, r5, r6, lr}
    355a:	4b2d      	ldr	r3, [pc, #180]	; (3610 <__rtl_cryptoEngine_info+0xb8>)
    355c:	4d2d      	ldr	r5, [pc, #180]	; (3614 <__rtl_cryptoEngine_info+0xbc>)
    355e:	4c2e      	ldr	r4, [pc, #184]	; (3618 <__rtl_cryptoEngine_info+0xc0>)
    3560:	6819      	ldr	r1, [r3, #0]
    3562:	482e      	ldr	r0, [pc, #184]	; (361c <__rtl_cryptoEngine_info+0xc4>)
    3564:	682a      	ldr	r2, [r5, #0]
    3566:	47a0      	blx	r4
    3568:	4b2d      	ldr	r3, [pc, #180]	; (3620 <__rtl_cryptoEngine_info+0xc8>)
    356a:	4a2e      	ldr	r2, [pc, #184]	; (3624 <__rtl_cryptoEngine_info+0xcc>)
    356c:	482e      	ldr	r0, [pc, #184]	; (3628 <__rtl_cryptoEngine_info+0xd0>)
    356e:	6811      	ldr	r1, [r2, #0]
    3570:	681a      	ldr	r2, [r3, #0]
    3572:	47a0      	blx	r4
    3574:	4b2d      	ldr	r3, [pc, #180]	; (362c <__rtl_cryptoEngine_info+0xd4>)
    3576:	4a2e      	ldr	r2, [pc, #184]	; (3630 <__rtl_cryptoEngine_info+0xd8>)
    3578:	482e      	ldr	r0, [pc, #184]	; (3634 <__rtl_cryptoEngine_info+0xdc>)
    357a:	6811      	ldr	r1, [r2, #0]
    357c:	681a      	ldr	r2, [r3, #0]
    357e:	47a0      	blx	r4
    3580:	4b2d      	ldr	r3, [pc, #180]	; (3638 <__rtl_cryptoEngine_info+0xe0>)
    3582:	4a2e      	ldr	r2, [pc, #184]	; (363c <__rtl_cryptoEngine_info+0xe4>)
    3584:	482e      	ldr	r0, [pc, #184]	; (3640 <__rtl_cryptoEngine_info+0xe8>)
    3586:	6811      	ldr	r1, [r2, #0]
    3588:	681a      	ldr	r2, [r3, #0]
    358a:	47a0      	blx	r4
    358c:	4b2d      	ldr	r3, [pc, #180]	; (3644 <__rtl_cryptoEngine_info+0xec>)
    358e:	4a2e      	ldr	r2, [pc, #184]	; (3648 <__rtl_cryptoEngine_info+0xf0>)
    3590:	482e      	ldr	r0, [pc, #184]	; (364c <__rtl_cryptoEngine_info+0xf4>)
    3592:	6811      	ldr	r1, [r2, #0]
    3594:	681a      	ldr	r2, [r3, #0]
    3596:	47a0      	blx	r4
    3598:	4b2d      	ldr	r3, [pc, #180]	; (3650 <__rtl_cryptoEngine_info+0xf8>)
    359a:	6829      	ldr	r1, [r5, #0]
    359c:	482d      	ldr	r0, [pc, #180]	; (3654 <__rtl_cryptoEngine_info+0xfc>)
    359e:	681a      	ldr	r2, [r3, #0]
    35a0:	47a0      	blx	r4
    35a2:	4b2d      	ldr	r3, [pc, #180]	; (3658 <__rtl_cryptoEngine_info+0x100>)
    35a4:	4a2d      	ldr	r2, [pc, #180]	; (365c <__rtl_cryptoEngine_info+0x104>)
    35a6:	482e      	ldr	r0, [pc, #184]	; (3660 <__rtl_cryptoEngine_info+0x108>)
    35a8:	6811      	ldr	r1, [r2, #0]
    35aa:	681a      	ldr	r2, [r3, #0]
    35ac:	47a0      	blx	r4
    35ae:	4b2d      	ldr	r3, [pc, #180]	; (3664 <__rtl_cryptoEngine_info+0x10c>)
    35b0:	4a2d      	ldr	r2, [pc, #180]	; (3668 <__rtl_cryptoEngine_info+0x110>)
    35b2:	482e      	ldr	r0, [pc, #184]	; (366c <__rtl_cryptoEngine_info+0x114>)
    35b4:	6811      	ldr	r1, [r2, #0]
    35b6:	681a      	ldr	r2, [r3, #0]
    35b8:	47a0      	blx	r4
    35ba:	4b2d      	ldr	r3, [pc, #180]	; (3670 <__rtl_cryptoEngine_info+0x118>)
    35bc:	4a2d      	ldr	r2, [pc, #180]	; (3674 <__rtl_cryptoEngine_info+0x11c>)
    35be:	482e      	ldr	r0, [pc, #184]	; (3678 <__rtl_cryptoEngine_info+0x120>)
    35c0:	6811      	ldr	r1, [r2, #0]
    35c2:	681a      	ldr	r2, [r3, #0]
    35c4:	47a0      	blx	r4
    35c6:	4b2d      	ldr	r3, [pc, #180]	; (367c <__rtl_cryptoEngine_info+0x124>)
    35c8:	4a2d      	ldr	r2, [pc, #180]	; (3680 <__rtl_cryptoEngine_info+0x128>)
    35ca:	482e      	ldr	r0, [pc, #184]	; (3684 <__rtl_cryptoEngine_info+0x12c>)
    35cc:	6811      	ldr	r1, [r2, #0]
    35ce:	681a      	ldr	r2, [r3, #0]
    35d0:	47a0      	blx	r4
    35d2:	4b2d      	ldr	r3, [pc, #180]	; (3688 <__rtl_cryptoEngine_info+0x130>)
    35d4:	4a2d      	ldr	r2, [pc, #180]	; (368c <__rtl_cryptoEngine_info+0x134>)
    35d6:	482e      	ldr	r0, [pc, #184]	; (3690 <__rtl_cryptoEngine_info+0x138>)
    35d8:	6811      	ldr	r1, [r2, #0]
    35da:	681a      	ldr	r2, [r3, #0]
    35dc:	47a0      	blx	r4
    35de:	4b2d      	ldr	r3, [pc, #180]	; (3694 <__rtl_cryptoEngine_info+0x13c>)
    35e0:	4a2d      	ldr	r2, [pc, #180]	; (3698 <__rtl_cryptoEngine_info+0x140>)
    35e2:	482e      	ldr	r0, [pc, #184]	; (369c <__rtl_cryptoEngine_info+0x144>)
    35e4:	6811      	ldr	r1, [r2, #0]
    35e6:	681a      	ldr	r2, [r3, #0]
    35e8:	47a0      	blx	r4
    35ea:	4b2d      	ldr	r3, [pc, #180]	; (36a0 <__rtl_cryptoEngine_info+0x148>)
    35ec:	4a2d      	ldr	r2, [pc, #180]	; (36a4 <__rtl_cryptoEngine_info+0x14c>)
    35ee:	482e      	ldr	r0, [pc, #184]	; (36a8 <__rtl_cryptoEngine_info+0x150>)
    35f0:	6811      	ldr	r1, [r2, #0]
    35f2:	681a      	ldr	r2, [r3, #0]
    35f4:	47a0      	blx	r4
    35f6:	4b2d      	ldr	r3, [pc, #180]	; (36ac <__rtl_cryptoEngine_info+0x154>)
    35f8:	4a2d      	ldr	r2, [pc, #180]	; (36b0 <__rtl_cryptoEngine_info+0x158>)
    35fa:	482e      	ldr	r0, [pc, #184]	; (36b4 <__rtl_cryptoEngine_info+0x15c>)
    35fc:	6811      	ldr	r1, [r2, #0]
    35fe:	681a      	ldr	r2, [r3, #0]
    3600:	47a0      	blx	r4
    3602:	4b2d      	ldr	r3, [pc, #180]	; (36b8 <__rtl_cryptoEngine_info+0x160>)
    3604:	482d      	ldr	r0, [pc, #180]	; (36bc <__rtl_cryptoEngine_info+0x164>)
    3606:	6819      	ldr	r1, [r3, #0]
    3608:	4623      	mov	r3, r4
    360a:	e8bd 4070 	ldmia.w	sp!, {r4, r5, r6, lr}
    360e:	4718      	bx	r3
    3610:	40070000 	.word	0x40070000
    3614:	40070004 	.word	0x40070004
    3618:	000064f1 	.word	0x000064f1
    361c:	10015728 	.word	0x10015728
    3620:	40071000 	.word	0x40071000
    3624:	40070008 	.word	0x40070008
    3628:	1001574c 	.word	0x1001574c
    362c:	40071008 	.word	0x40071008
    3630:	40071004 	.word	0x40071004
    3634:	10015770 	.word	0x10015770
    3638:	40070018 	.word	0x40070018
    363c:	40070010 	.word	0x40070010
    3640:	10015790 	.word	0x10015790
    3644:	40070030 	.word	0x40070030
    3648:	4007001c 	.word	0x4007001c
    364c:	100157c8 	.word	0x100157c8
    3650:	4007000c 	.word	0x4007000c
    3654:	10015800 	.word	0x10015800
    3658:	4007003c 	.word	0x4007003c
    365c:	40070038 	.word	0x40070038
    3660:	10015824 	.word	0x10015824
    3664:	40070024 	.word	0x40070024
    3668:	40070020 	.word	0x40070020
    366c:	10015854 	.word	0x10015854
    3670:	4007002c 	.word	0x4007002c
    3674:	40070028 	.word	0x40070028
    3678:	10015878 	.word	0x10015878
    367c:	40070044 	.word	0x40070044
    3680:	40070040 	.word	0x40070040
    3684:	100158a0 	.word	0x100158a0
    3688:	4007004c 	.word	0x4007004c
    368c:	40070048 	.word	0x40070048
    3690:	100158c8 	.word	0x100158c8
    3694:	40070054 	.word	0x40070054
    3698:	40070050 	.word	0x40070050
    369c:	100158f4 	.word	0x100158f4
    36a0:	4007005c 	.word	0x4007005c
    36a4:	40070058 	.word	0x40070058
    36a8:	10015920 	.word	0x10015920
    36ac:	40070064 	.word	0x40070064
    36b0:	40070060 	.word	0x40070060
    36b4:	10015950 	.word	0x10015950
    36b8:	40070068 	.word	0x40070068
    36bc:	10015980 	.word	0x10015980

000036c0 <__rtl_cryptoEngine_init>:
    36c0:	7883      	ldrb	r3, [r0, #2]
    36c2:	3b01      	subs	r3, #1
    36c4:	2b0f      	cmp	r3, #15
    36c6:	d82c      	bhi.n	3722 <__rtl_cryptoEngine_init+0x62>
    36c8:	4a17      	ldr	r2, [pc, #92]	; (3728 <__rtl_cryptoEngine_init+0x68>)
    36ca:	b570      	push	{r4, r5, r6, lr}
    36cc:	4604      	mov	r4, r0
    36ce:	6810      	ldr	r0, [r2, #0]
    36d0:	4b16      	ldr	r3, [pc, #88]	; (372c <__rtl_cryptoEngine_init+0x6c>)
    36d2:	f040 0004 	orr.w	r0, r0, #4
    36d6:	6010      	str	r0, [r2, #0]
    36d8:	6815      	ldr	r5, [r2, #0]
    36da:	4915      	ldr	r1, [pc, #84]	; (3730 <__rtl_cryptoEngine_init+0x70>)
    36dc:	f445 1580 	orr.w	r5, r5, #1048576	; 0x100000
    36e0:	6015      	str	r5, [r2, #0]
    36e2:	681a      	ldr	r2, [r3, #0]
    36e4:	4e13      	ldr	r6, [pc, #76]	; (3734 <__rtl_cryptoEngine_init+0x74>)
    36e6:	f042 0210 	orr.w	r2, r2, #16
    36ea:	601a      	str	r2, [r3, #0]
    36ec:	681a      	ldr	r2, [r3, #0]
    36ee:	4812      	ldr	r0, [pc, #72]	; (3738 <__rtl_cryptoEngine_init+0x78>)
    36f0:	f042 0220 	orr.w	r2, r2, #32
    36f4:	601a      	str	r2, [r3, #0]
    36f6:	680b      	ldr	r3, [r1, #0]
    36f8:	2501      	movs	r5, #1
    36fa:	f443 63c0 	orr.w	r3, r3, #1536	; 0x600
    36fe:	600b      	str	r3, [r1, #0]
    3700:	6809      	ldr	r1, [r1, #0]
    3702:	47b0      	blx	r6
    3704:	4b0d      	ldr	r3, [pc, #52]	; (373c <__rtl_cryptoEngine_init+0x7c>)
    3706:	2100      	movs	r1, #0
    3708:	601d      	str	r5, [r3, #0]
    370a:	480d      	ldr	r0, [pc, #52]	; (3740 <__rtl_cryptoEngine_init+0x80>)
    370c:	47b0      	blx	r6
    370e:	f240 601e 	movw	r0, #1566	; 0x61e
    3712:	490c      	ldr	r1, [pc, #48]	; (3744 <__rtl_cryptoEngine_init+0x84>)
    3714:	4b0c      	ldr	r3, [pc, #48]	; (3748 <__rtl_cryptoEngine_init+0x88>)
    3716:	4a0d      	ldr	r2, [pc, #52]	; (374c <__rtl_cryptoEngine_init+0x8c>)
    3718:	6008      	str	r0, [r1, #0]
    371a:	601a      	str	r2, [r3, #0]
    371c:	7025      	strb	r5, [r4, #0]
    371e:	2000      	movs	r0, #0
    3720:	bd70      	pop	{r4, r5, r6, pc}
    3722:	f06f 0001 	mvn.w	r0, #1
    3726:	4770      	bx	lr
    3728:	40000210 	.word	0x40000210
    372c:	40000244 	.word	0x40000244
    3730:	40000304 	.word	0x40000304
    3734:	000064f1 	.word	0x000064f1
    3738:	10015998 	.word	0x10015998
    373c:	40070010 	.word	0x40070010
    3740:	100159ac 	.word	0x100159ac
    3744:	40070030 	.word	0x40070030
