
Allocating common symbols
Common symbol       size              file

NetOurEther         0x6               net/libnet.o
gMiim_phyRevId      0x800             board/Realtek/rtl9300/librtl9300.o
NetState            0x4               net/libnet.o
patch_afe_conf_size
                    0x4               board/Realtek/rtl9300/librtl9300.o
gPhy8295rPI         0xb000            board/Realtek/rtl9300/librtl9300.o
rtk_hal_stack_ports
                    0x80              board/Realtek/rtl9300/librtl9300.o
patch_fwpr_conf_size
                    0x4               board/Realtek/rtl9300/librtl9300.o
NetServerEther      0x6               net/libnet.o
NetRxPacketLen      0x4               net/libnet.o
rtkDev              0x14              board/Realtek/rtl9300/librtl9300.o
NetArpWaitReplyIP   0x4               net/libnet.o
NetRxPacket         0x4               net/libnet.o
NetIPID             0x4               net/libnet.o
console_buffer      0x201             common/libcommon.o
NetArpWaitPacketIP  0x4               net/libnet.o
hal_ctrl            0x1340            board/Realtek/rtl9300/librtl9300.o
BootpTry            0x4               net/libnet.o
his_pad_char        0x1               common/libcommon.o
pTxPktHdr           0x4               board/Realtek/rtl9300/librtl9300.o
send_ptr            0x4               common/libcommon.o
pRxPktHdr           0x4               board/Realtek/rtl9300/librtl9300.o
hwp_unit_sem        0x4               board/Realtek/rtl9300/librtl9300.o
swDescpEmpty        0x668             board/Realtek/rtl9300/librtl9300.o
NetRxPackets        0x10              net/libnet.o
g_gpioDevConfig     0x14              board/Realtek/rtl9300/librtl9300.o
NetBootFileSize     0x2               net/libnet.o
NetArpWaitTxPacketSize
                    0x4               net/libnet.o
send_parms          0x14              common/libcommon.o
ioal_db             0x340             board/Realtek/rtl9300/librtl9300.o
NetArpWaitTry       0x4               net/libnet.o
save_addr           0x4               common/libcommon.o
g_extGPIODev_init   0x4               board/Realtek/rtl9300/librtl9300.o
NetOurGatewayIP     0x4               net/libnet.o
monitor_flash_len   0x4               arch/otto40/lib/libotto40.o
testLen             0x4               board/Realtek/rtl9300/librtl9300.o
NetArpWaitTimerStart
                    0x4               net/libnet.o
gcameoboardinfo     0x10              arch/otto40/lib/libotto40.o
pkt                 0x5fa             board/Realtek/rtl9300/librtl9300.o
save_size           0x4               common/libcommon.o
pkt_recv            0x5fa             board/Realtek/rtl9300/librtl9300.o
isFail              0x4               board/Realtek/rtl9300/librtl9300.o
NetRestartWrap      0x4               net/libnet.o
hwpEmpty            0x58              board/Realtek/rtl9300/librtl9300.o
PktBuf              0x1e20            net/libnet.o
his_eol             0x1               common/libcommon.o
patch_sds_conf_size
                    0x4               board/Realtek/rtl9300/librtl9300.o
pMgmt_node          0x40              board/Realtek/rtl9300/librtl9300.o
patch_top_conf_size
                    0x4               board/Realtek/rtl9300/librtl9300.o
scDescpEmpty        0x8               board/Realtek/rtl9300/librtl9300.o
patch_sds_conf      0x4               board/Realtek/rtl9300/librtl9300.o
BootFile            0x80              net/libnet.o
NetOurSubnetMask    0x4               net/libnet.o
unitInfoEmpty       0x830             board/Realtek/rtl9300/librtl9300.o
serdesDescpEmpty    0x2               board/Realtek/rtl9300/librtl9300.o
patch_fwpr_conf     0x4               board/Realtek/rtl9300/librtl9300.o
port_tapbin_field   0x1000            board/Realtek/rtl9300/librtl9300.o
NetArpWaitTxPacket  0x4               net/libnet.o
NetTxPacket         0x4               net/libnet.o
rcvLen              0x4               board/Realtek/rtl9300/librtl9300.o
parsedInfoEmpty     0x3134            board/Realtek/rtl9300/librtl9300.o
patch_afe_conf      0x4               board/Realtek/rtl9300/librtl9300.o
unitMapStruct       0x80              board/Realtek/rtl9300/librtl9300.o
force_link_up       0x100             board/Realtek/rtl9300/librtl9300.o
gI2C_dev            0x3400            board/Realtek/rtl9300/librtl9300.o
os_data_char        0x4               common/libcommon.o
his_pad_count       0x4               common/libcommon.o
portDescpEmpty      0x14              board/Realtek/rtl9300/librtl9300.o
NetPingIP           0x4               net/libnet.o
patch_top_conf      0x4               board/Realtek/rtl9300/librtl9300.o
hist_lines          0x2814            common/libcommon.o
patch_fwlm_conf_size
                    0x4               board/Realtek/rtl9300/librtl9300.o
patch_fwlm_conf     0x4               board/Realtek/rtl9300/librtl9300.o
NetOurIP            0x4               net/libnet.o
os_data_init        0x4               common/libcommon.o
___strtok           0x4               lib/libgeneric.o
NetArpWaitPacketMAC
                    0x4               net/libnet.o
NetArpWaitPacketBuf
                    0x620             net/libnet.o
gPhy82x4qfPI        0x1000            board/Realtek/rtl9300/librtl9300.o
port_tapbin_reg     0x1000            board/Realtek/rtl9300/librtl9300.o
NetOurDNSIP         0x4               net/libnet.o
NetServerIP         0x4               net/libnet.o
hist_list           0x50              common/libcommon.o
images              0x8c              common/libcommon.o
NetEtherNullAddr    0x6               net/libnet.o
his_quote           0x1               common/libcommon.o
NetBootFileXferSize
                    0x4               net/libnet.o
BootpID             0x4               net/libnet.o

Discarded input sections

 .pdr           0x0000000000000000      0xbc0 arch/otto40/cpu/mips34kc/libmips34kc.o
 .reginfo       0x0000000000000000       0x18 arch/otto40/lib/libotto40.o
 .text          0x0000000000000000       0x50 arch/otto40/lib/libotto40.o
 .text.__ashrdi3
                0x0000000000000000       0x40 arch/otto40/lib/libotto40.o
 .text.__serial_tstc
                0x0000000000000000       0x2c arch/otto40/lib/libotto40.o
 .text.serial_putc_raw
                0x0000000000000000       0x10 arch/otto40/lib/libotto40.o
 .text._otto_lx_timer_mdelay
                0x0000000000000000       0x68 arch/otto40/lib/libotto40.o
 .text.symb_retrive
                0x0000000000000000       0x38 arch/otto40/lib/libotto40.o
 .text.symb_retrive_list
                0x0000000000000000       0x94 arch/otto40/lib/libotto40.o
 .text.spi_disable_message
                0x0000000000000000        0xc arch/otto40/lib/libotto40.o
 .text.spi_enable_message
                0x0000000000000000       0x10 arch/otto40/lib/libotto40.o
 .text.norsf_chip_num_det
                0x0000000000000000        0x8 arch/otto40/lib/libotto40.o
 .data          0x0000000000000000        0x0 arch/otto40/lib/libotto40.o
 .data.mips_io_port_base
                0x0000000000000000        0x4 arch/otto40/lib/libotto40.o
 .data.norsf_w25q256jv_info_4b_cmd
                0x0000000000000000       0x28 arch/otto40/lib/libotto40.o
 .bss           0x0000000000000000        0x0 arch/otto40/lib/libotto40.o
 .pdr           0x0000000000000000      0xac0 arch/otto40/lib/libotto40.o
 .reginfo       0x0000000000000000       0x18 common/libcommon.o
 .text          0x0000000000000000        0x0 common/libcommon.o
 .text.setenv2  0x0000000000000000       0x58 common/libcommon.o
 .text.setenv_addr
                0x0000000000000000       0x40 common/libcommon.o
 .text.serial_printf
                0x0000000000000000       0x44 common/libcommon.o
 .text.fgetc    0x0000000000000000       0x34 common/libcommon.o
 .text.ftstc    0x0000000000000000       0x34 common/libcommon.o
 .text.fputc    0x0000000000000000       0x38 common/libcommon.o
 .text.disable_ctrlc
                0x0000000000000000       0x10 common/libcommon.o
 .text.dbg      0x0000000000000000       0x10 common/libcommon.o
 .text.stdio_print_current_devices
                0x0000000000000000        0x8 common/libcommon.o
 .text.cameo_get_board_hwversion
                0x0000000000000000        0xc common/libcommon.o
 .text.cameo_get_board_demoname
                0x0000000000000000        0xc common/libcommon.o
 .text.getenv_bootm_low
                0x0000000000000000       0x3c common/libcommon.o
 .text.getenv_bootm_size
                0x0000000000000000       0x74 common/libcommon.o
 .text.getenv_bootm_mapsize
                0x0000000000000000       0x44 common/libcommon.o
 .text.genimg_get_comp_name
                0x0000000000000000       0x1c common/libcommon.o
 .text.get_table_entry_id
                0x0000000000000000       0x58 common/libcommon.o
 .text.genimg_get_os_id
                0x0000000000000000       0x1c common/libcommon.o
 .text.genimg_get_arch_id
                0x0000000000000000       0x1c common/libcommon.o
 .text.genimg_get_type_id
                0x0000000000000000       0x1c common/libcommon.o
 .text.genimg_get_comp_id
                0x0000000000000000       0x1c common/libcommon.o
 .text.genimg_has_config
                0x0000000000000000        0x8 common/libcommon.o
 .text.board_prompt
                0x0000000000000000        0xc common/libcommon.o
 .text.get_ram_size
                0x0000000000000000      0x11c common/libcommon.o
 .text.CYGACC_COMM_IF_PUTC
                0x0000000000000000        0xc common/libcommon.o
 .text.realloc  0x0000000000000000      0x500 common/libcommon.o
 .text.memalign
                0x0000000000000000      0x16c common/libcommon.o
 .text.valloc   0x0000000000000000        0xc common/libcommon.o
 .text.pvalloc  0x0000000000000000       0x14 common/libcommon.o
 .text.cfree    0x0000000000000000        0x8 common/libcommon.o
 .text.malloc_usable_size
                0x0000000000000000       0x54 common/libcommon.o
 .text.mallopt  0x0000000000000000       0x84 common/libcommon.o
 .rodata.uimage_comp
                0x0000000000000000       0x48 common/libcommon.o
 .rodata.__func__.1
                0x0000000000000000       0x14 common/libcommon.o
 .rodata.__func__.0
                0x0000000000000000        0xc common/libcommon.o
 .data          0x0000000000000000        0x0 common/libcommon.o
 .data.n_mmaps_max
                0x0000000000000000        0x4 common/libcommon.o
 .data.mmap_threshold
                0x0000000000000000        0x4 common/libcommon.o
 .bss           0x0000000000000000        0x0 common/libcommon.o
 .pdr           0x0000000000000000     0x17e0 common/libcommon.o
 .reginfo       0x0000000000000000       0x18 disk/libdisk.o
 .text          0x0000000000000000        0x0 disk/libdisk.o
 .text.get_dev  0x0000000000000000        0x8 disk/libdisk.o
 .data          0x0000000000000000        0x0 disk/libdisk.o
 .bss           0x0000000000000000        0x0 disk/libdisk.o
 .comment       0x0000000000000000       0x44 disk/libdisk.o
 .pdr           0x0000000000000000       0x20 disk/libdisk.o
 .debug_aranges
                0x0000000000000000       0x20 disk/libdisk.o
 .debug_info    0x0000000000000000      0x29c disk/libdisk.o
 .debug_abbrev  0x0000000000000000       0xf5 disk/libdisk.o
 .debug_line    0x0000000000000000      0x1aa disk/libdisk.o
 .debug_frame   0x0000000000000000       0x20 disk/libdisk.o
 .debug_str     0x0000000000000000      0x2ce disk/libdisk.o
 .debug_ranges  0x0000000000000000       0x10 disk/libdisk.o
 .gnu.attributes
                0x0000000000000000       0x10 disk/libdisk.o
 .mdebug.abi32  0x0000000000000000        0x0 disk/libdisk.o
 .reginfo       0x0000000000000000       0x18 drivers/pcmcia/libpcmcia.o
 .text          0x0000000000000000        0x0 drivers/pcmcia/libpcmcia.o
 .data          0x0000000000000000        0x0 drivers/pcmcia/libpcmcia.o
 .bss           0x0000000000000000        0x0 drivers/pcmcia/libpcmcia.o
 .comment       0x0000000000000000       0x88 drivers/pcmcia/libpcmcia.o
 .pdr           0x0000000000000000        0x0 drivers/pcmcia/libpcmcia.o
 .debug_aranges
                0x0000000000000000       0x30 drivers/pcmcia/libpcmcia.o
 .debug_info    0x0000000000000000      0x1a8 drivers/pcmcia/libpcmcia.o
 .debug_abbrev  0x0000000000000000      0x108 drivers/pcmcia/libpcmcia.o
 .debug_line    0x0000000000000000      0x1b6 drivers/pcmcia/libpcmcia.o
 .debug_str     0x0000000000000000      0x479 drivers/pcmcia/libpcmcia.o
 .gnu.attributes
                0x0000000000000000       0x10 drivers/pcmcia/libpcmcia.o
 .mdebug.abi32  0x0000000000000000        0x0 drivers/pcmcia/libpcmcia.o
 .reginfo       0x0000000000000000       0x18 drivers/rtc/librtc.o
 .text          0x0000000000000000        0x0 drivers/rtc/librtc.o
 .text.GregorianDay
                0x0000000000000000      0x110 drivers/rtc/librtc.o
 .text.to_tm    0x0000000000000000       0xe0 drivers/rtc/librtc.o
 .text.mktime   0x0000000000000000       0xa4 drivers/rtc/librtc.o
 .rodata        0x0000000000000000       0x30 drivers/rtc/librtc.o
 .data          0x0000000000000000        0x0 drivers/rtc/librtc.o
 .data.month_days
                0x0000000000000000       0x30 drivers/rtc/librtc.o
 .bss           0x0000000000000000        0x0 drivers/rtc/librtc.o
 .comment       0x0000000000000000       0x44 drivers/rtc/librtc.o
 .pdr           0x0000000000000000       0x60 drivers/rtc/librtc.o
 .debug_aranges
                0x0000000000000000       0x30 drivers/rtc/librtc.o
 .debug_info    0x0000000000000000      0x2ae drivers/rtc/librtc.o
 .debug_abbrev  0x0000000000000000      0x156 drivers/rtc/librtc.o
 .debug_line    0x0000000000000000      0x1c6 drivers/rtc/librtc.o
 .debug_frame   0x0000000000000000       0x48 drivers/rtc/librtc.o
 .debug_str     0x0000000000000000      0x2c8 drivers/rtc/librtc.o
 .debug_loc     0x0000000000000000      0x1f8 drivers/rtc/librtc.o
 .debug_ranges  0x0000000000000000       0x20 drivers/rtc/librtc.o
 .gnu.attributes
                0x0000000000000000       0x10 drivers/rtc/librtc.o
 .mdebug.abi32  0x0000000000000000        0x0 drivers/rtc/librtc.o
 .reginfo       0x0000000000000000       0x18 lib/libgeneric.o
 .text          0x0000000000000000        0x0 lib/libgeneric.o
 .text.crc7     0x0000000000000000       0x38 lib/libgeneric.o
 .text.display_options
                0x0000000000000000       0x2c lib/libgeneric.o
 .text.hstrstr_r
                0x0000000000000000       0xd4 lib/libgeneric.o
 .text.hmatch_r
                0x0000000000000000       0xd4 lib/libgeneric.o
 .text.ldiv     0x0000000000000000       0x34 lib/libgeneric.o
 .text.strcmp_compar
                0x0000000000000000       0x10 lib/libgeneric.o
 .text.strmhz   0x0000000000000000       0x94 lib/libgeneric.o
 .text.strcat   0x0000000000000000       0x38 lib/libgeneric.o
 .text.strncat  0x0000000000000000       0x4c lib/libgeneric.o
 .text.strrchr  0x0000000000000000       0x58 lib/libgeneric.o
 .text.strspn   0x0000000000000000       0x38 lib/libgeneric.o
 .text.strpbrk  0x0000000000000000       0x3c lib/libgeneric.o
 .text.strtok   0x0000000000000000       0xa0 lib/libgeneric.o
 .text.strsep   0x0000000000000000       0x58 lib/libgeneric.o
 .text.strswab  0x0000000000000000       0x50 lib/libgeneric.o
 .text.bcopy    0x0000000000000000       0x30 lib/libgeneric.o
 .text.memscan  0x0000000000000000       0x2c lib/libgeneric.o
 .text.strstr   0x0000000000000000       0x9c lib/libgeneric.o
 .text.ustrtoul
                0x0000000000000000       0x9c lib/libgeneric.o
 .text.simple_strtoull
                0x0000000000000000       0xfc lib/libgeneric.o
 .text.panic    0x0000000000000000       0x50 lib/libgeneric.o
 .text.__assert_fail
                0x0000000000000000       0x18 lib/libgeneric.o
 .rodata.crc7_syndrome_table
                0x0000000000000000      0x100 lib/libgeneric.o
 .data          0x0000000000000000        0x0 lib/libgeneric.o
 .bss           0x0000000000000000        0x0 lib/libgeneric.o
 .pdr           0x0000000000000000      0x860 lib/libgeneric.o
 COMMON         0x0000000000000000        0x4 lib/libgeneric.o
 .reginfo       0x0000000000000000       0x18 lib/lzma/liblzma.o
 .text          0x0000000000000000        0x0 lib/lzma/liblzma.o
 .text.LzmaDec_InitDicAndState
                0x0000000000000000       0x38 lib/lzma/liblzma.o
 .text.LzmaDec_DecodeToBuf
                0x0000000000000000      0x140 lib/lzma/liblzma.o
 .text.LzmaDec_Free
                0x0000000000000000       0x44 lib/lzma/liblzma.o
 .text.LzmaDec_Allocate
                0x0000000000000000       0xd8 lib/lzma/liblzma.o
 .data          0x0000000000000000        0x0 lib/lzma/liblzma.o
 .bss           0x0000000000000000        0x0 lib/lzma/liblzma.o
 .pdr           0x0000000000000000      0x220 lib/lzma/liblzma.o
 .reginfo       0x0000000000000000       0x18 lib/zlib/libz.o
 .text          0x0000000000000000        0x0 lib/zlib/libz.o
 .text.inflateInit_
                0x0000000000000000       0x18 lib/zlib/libz.o
 .rodata.z_errmsg
                0x0000000000000000       0x28 lib/zlib/libz.o
 .data          0x0000000000000000        0x0 lib/zlib/libz.o
 .bss           0x0000000000000000        0x0 lib/zlib/libz.o
 .pdr           0x0000000000000000      0x140 lib/zlib/libz.o
 .reginfo       0x0000000000000000       0x18 net/libnet.o
 .text          0x0000000000000000        0x0 net/libnet.o
 .text.eth_setenv_enetaddr
                0x0000000000000000       0x40 net/libnet.o
 .text.eth_get_dev_by_name
                0x0000000000000000       0x9c net/libnet.o
 .text.eth_get_dev_by_index
                0x0000000000000000       0x38 net/libnet.o
 .text.eth_unregister
                0x0000000000000000       0x9c net/libnet.o
 .text.NetInit  0x0000000000000000        0xc net/libnet.o
 .text.VLAN_to_string
                0x0000000000000000       0x3c net/libnet.o
 .rodata.__FUNCTION__.3508
                0x0000000000000000       0x14 net/libnet.o
 .data          0x0000000000000000        0x0 net/libnet.o
 .data.TftpRRQTimeoutMSecs
                0x0000000000000000        0x4 net/libnet.o
 .bss           0x0000000000000000        0x0 net/libnet.o
 .pdr           0x0000000000000000      0x700 net/libnet.o
 .reginfo       0x0000000000000000       0x18 board/Realtek/rtl9300/librtl9300.o
 .text          0x0000000000000000        0x0 board/Realtek/rtl9300/librtl9300.o
 .text.do_mem_mtest_dtr
                0x0000000000000000      0x214 board/Realtek/rtl9300/librtl9300.o
 .text.setsys   0x0000000000000000       0x48 board/Realtek/rtl9300/librtl9300.o
 .text.getsys   0x0000000000000000       0xa8 board/Realtek/rtl9300/librtl9300.o
 .text.eraseFlash
                0x0000000000000000       0xc8 board/Realtek/rtl9300/librtl9300.o
 .text._rx_callback
                0x0000000000000000       0x8c board/Realtek/rtl9300/librtl9300.o
 .text._rtk_comboport_port_media_set
                0x0000000000000000        0x8 board/Realtek/rtl9300/librtl9300.o
 .text.rtk_comboport_portcopper
                0x0000000000000000        0x8 board/Realtek/rtl9300/librtl9300.o
 .text.rtk_comboport_portfiber
                0x0000000000000000       0x2c board/Realtek/rtl9300/librtl9300.o
 .text.rtk_sfp_speed_set
                0x0000000000000000       0x6c board/Realtek/rtl9300/librtl9300.o
 .text.rtk_sysEsd_set
                0x0000000000000000        0x8 board/Realtek/rtl9300/librtl9300.o
 .text.rtk_l2testmode_on
                0x0000000000000000       0x80 board/Realtek/rtl9300/librtl9300.o
 .text.rtk_l2testmode_off
                0x0000000000000000       0x48 board/Realtek/rtl9300/librtl9300.o
 .text._rtcore_ledSync_init
                0x0000000000000000       0x54 board/Realtek/rtl9300/librtl9300.o
 .text.rtcore_customer_init
                0x0000000000000000       0xa4 board/Realtek/rtl9300/librtl9300.o
 .text.rtcore_unit_attach
                0x0000000000000000        0x8 board/Realtek/rtl9300/librtl9300.o
 .text._hwp_unitInfo2unitIdx_get
                0x0000000000000000       0x34 board/Realtek/rtl9300/librtl9300.o
 .text._hwp_debug_portCnt_show
                0x0000000000000000       0x30 board/Realtek/rtl9300/librtl9300.o
 .text.hwp_unit_show
                0x0000000000000000       0x94 board/Realtek/rtl9300/librtl9300.o
 .text.hwp_parsedInfo_show
                0x0000000000000000      0x86c board/Realtek/rtl9300/librtl9300.o
 .text._phyType_name
                0x0000000000000000       0x74 board/Realtek/rtl9300/librtl9300.o
 .text._hwp_infoPortCntPortMask_show
                0x0000000000000000       0x78 board/Realtek/rtl9300/librtl9300.o
 .text.hwp_info_show
                0x0000000000000000      0x5c8 board/Realtek/rtl9300/librtl9300.o
 .text.hwp_unitID_allocate
                0x0000000000000000       0x68 board/Realtek/rtl9300/librtl9300.o
 .text.hwp_unit_detach
                0x0000000000000000       0x94 board/Realtek/rtl9300/librtl9300.o
 .text.hwp_portmaskEthTypeValid_Chk
                0x0000000000000000      0x188 board/Realtek/rtl9300/librtl9300.o
 .text.hwp_portmaskMediumValid_Chk
                0x0000000000000000      0x174 board/Realtek/rtl9300/librtl9300.o
 .text.hwp_unit_get_next
                0x0000000000000000       0x4c board/Realtek/rtl9300/librtl9300.o
 .text.hwp_defaultProfilePort_update
                0x0000000000000000       0x80 board/Realtek/rtl9300/librtl9300.o
 .text.hwp_identifier_get
                0x0000000000000000       0x68 board/Realtek/rtl9300/librtl9300.o
 .text.hwp_forceProfile
                0x0000000000000000       0x68 board/Realtek/rtl9300/librtl9300.o
 .text.ioal_debug_show
                0x0000000000000000       0xac board/Realtek/rtl9300/librtl9300.o
 .text.ioal_param_ledInitFlag_get
                0x0000000000000000        0xc board/Realtek/rtl9300/librtl9300.o
 .text.ioal_param_sysMac_get
                0x0000000000000000        0x8 board/Realtek/rtl9300/librtl9300.o
 .text.ioal_param_phyXfmrRj45Impd_get
                0x0000000000000000       0x10 board/Realtek/rtl9300/librtl9300.o
 .text.ioal_log_bootMsgLevel_get
                0x0000000000000000       0xcc board/Realtek/rtl9300/librtl9300.o
 .text.ioal_mem32_hraCb_register
                0x0000000000000000       0x48 board/Realtek/rtl9300/librtl9300.o
 .text.rt_bsp_pinFrcRstout_phy_reset
                0x0000000000000000       0xbc board/Realtek/rtl9300/librtl9300.o
 .text.rt_bsp_phy_reset
                0x0000000000000000      0x1d4 board/Realtek/rtl9300/librtl9300.o
 .text.ioal_phy_reset
                0x0000000000000000       0x34 board/Realtek/rtl9300/librtl9300.o
 .text.osal_time_sleep
                0x0000000000000000       0x10 board/Realtek/rtl9300/librtl9300.o
 .text.osal_sem_mutex_destroy
                0x0000000000000000        0x8 board/Realtek/rtl9300/librtl9300.o
 .text.osal_sem_create
                0x0000000000000000        0x8 board/Realtek/rtl9300/librtl9300.o
 .text.osal_sem_destroy
                0x0000000000000000        0x8 board/Realtek/rtl9300/librtl9300.o
 .text.osal_sem_take
                0x0000000000000000        0x8 board/Realtek/rtl9300/librtl9300.o
 .text.osal_sem_give
                0x0000000000000000        0x8 board/Realtek/rtl9300/librtl9300.o
 .text.osal_spl_spin_lock_create
                0x0000000000000000        0x8 board/Realtek/rtl9300/librtl9300.o
 .text.osal_spl_spin_lock_destroy
                0x0000000000000000        0x8 board/Realtek/rtl9300/librtl9300.o
 .text.osal_spl_spin_lock
                0x0000000000000000        0x8 board/Realtek/rtl9300/librtl9300.o
 .text.osal_spl_spin_unlock
                0x0000000000000000        0x8 board/Realtek/rtl9300/librtl9300.o
 .text.osal_spl_spin_lock_irqsave
                0x0000000000000000        0x8 board/Realtek/rtl9300/librtl9300.o
 .text.osal_spl_spin_unlock_irqrestore
                0x0000000000000000        0x8 board/Realtek/rtl9300/librtl9300.o
 .text.osal_thread_create
                0x0000000000000000        0x8 board/Realtek/rtl9300/librtl9300.o
 .text.osal_thread_destroy
                0x0000000000000000        0x8 board/Realtek/rtl9300/librtl9300.o
 .text.osal_thread_exit
                0x0000000000000000        0x8 board/Realtek/rtl9300/librtl9300.o
 .text.drv_swcore_jtag_intf_set
                0x0000000000000000       0x54 board/Realtek/rtl9300/librtl9300.o
 .text.drv_swcore_jtag_intf_get
                0x0000000000000000       0x70 board/Realtek/rtl9300/librtl9300.o
 .text.drv_swcore_family_cid_get
                0x0000000000000000       0x38 board/Realtek/rtl9300/librtl9300.o
 .text.drv_swcore_CPU_freq_get_8390
                0x0000000000000000       0xb0 board/Realtek/rtl9300/librtl9300.o
 .text.drv_swcore_CPU_freq_get_8380
                0x0000000000000000      0x10c board/Realtek/rtl9300/librtl9300.o
 .text.drv_swcore_CPU_freq_get_9310
                0x0000000000000000        0x8 board/Realtek/rtl9300/librtl9300.o
 .text.drv_swcore_CPU_freq_get_9300
                0x0000000000000000        0x8 board/Realtek/rtl9300/librtl9300.o
 .text.drv_swcore_CPU_freq_get
                0x0000000000000000        0x8 board/Realtek/rtl9300/librtl9300.o
 .text._drv_swcore_uart0RegBase_get
                0x0000000000000000       0x44 board/Realtek/rtl9300/librtl9300.o
 .text._drv_swcore_gpioRegBase_get
                0x0000000000000000       0x44 board/Realtek/rtl9300/librtl9300.o
 .text.drv_swcore_register_dump
                0x0000000000000000      0x2a4 board/Realtek/rtl9300/librtl9300.o
 .text.drv_swcore_reg32_write
                0x0000000000000000       0x10 board/Realtek/rtl9300/librtl9300.o
 .text.drv_swcore_earlyInit_start
                0x0000000000000000       0x10 board/Realtek/rtl9300/librtl9300.o
 .text.drv_swcore_cid_cmp
                0x0000000000000000       0x50 board/Realtek/rtl9300/librtl9300.o
 .text._nic_swNicRst_get
                0x0000000000000000       0x34 board/Realtek/rtl9300/librtl9300.o
 .text._nic_swNicRst_set
                0x0000000000000000       0x34 board/Realtek/rtl9300/librtl9300.o
 .text._nic_cpuL2FloodMask_remove
                0x0000000000000000       0x34 board/Realtek/rtl9300/librtl9300.o
 .text._nic_holRingCnt_get
                0x0000000000000000       0x34 board/Realtek/rtl9300/librtl9300.o
 .text._nic_holRingCnt_set
                0x0000000000000000       0x34 board/Realtek/rtl9300/librtl9300.o
 .text._nic_ringBaseAddr_get
                0x0000000000000000       0x34 board/Realtek/rtl9300/librtl9300.o
 .text._nic_rxTruncateLength_get
                0x0000000000000000       0x34 board/Realtek/rtl9300/librtl9300.o
 .text._nic_nicEnable_get
                0x0000000000000000       0x34 board/Realtek/rtl9300/librtl9300.o
 .text._nic_nicTxBusySts_get
                0x0000000000000000       0x34 board/Realtek/rtl9300/librtl9300.o
 .text._nic_cpuTagId_set
                0x0000000000000000       0x34 board/Realtek/rtl9300/librtl9300.o
 .text.drv_nic_rx_status_get
                0x0000000000000000       0x44 board/Realtek/rtl9300/librtl9300.o
 .text.drv_nic_rx_unregister
                0x0000000000000000       0x78 board/Realtek/rtl9300/librtl9300.o
 .text.drv_nic_pkt_alloc
                0x0000000000000000       0x4c board/Realtek/rtl9300/librtl9300.o
 .text.drv_nic_pkt_free
                0x0000000000000000       0x54 board/Realtek/rtl9300/librtl9300.o
 .text.drv_nic_reset
                0x0000000000000000      0x298 board/Realtek/rtl9300/librtl9300.o
 .text.drv_nic_dbg_get
                0x0000000000000000       0x44 board/Realtek/rtl9300/librtl9300.o
 .text.drv_nic_dbg_set
                0x0000000000000000       0x40 board/Realtek/rtl9300/librtl9300.o
 .text.drv_nic_cntr_dump
                0x0000000000000000       0x98 board/Realtek/rtl9300/librtl9300.o
 .text.drv_nic_cntr_clear
                0x0000000000000000       0x68 board/Realtek/rtl9300/librtl9300.o
 .text.drv_nic_ringbuf_dump
                0x0000000000000000      0x570 board/Realtek/rtl9300/librtl9300.o
 .text.drv_nic_pktHdrMBuf_dump
                0x0000000000000000      0x2f8 board/Realtek/rtl9300/librtl9300.o
 .text.osal_isr_unregister
                0x0000000000000000       0x48 board/Realtek/rtl9300/librtl9300.o
 .text.drv_extGpio_devReady_get
                0x0000000000000000      0x174 board/Realtek/rtl9300/librtl9300.o
 .text.drv_extGpio_dev_get
                0x0000000000000000       0x7c board/Realtek/rtl9300/librtl9300.o
 .text.drv_extGpio_devEnable_get
                0x0000000000000000      0x140 board/Realtek/rtl9300/librtl9300.o
 .text.drv_extGpio_syncEnable_get
                0x0000000000000000      0x140 board/Realtek/rtl9300/librtl9300.o
 .text.drv_extGpio_syncEnable_set
                0x0000000000000000      0x198 board/Realtek/rtl9300/librtl9300.o
 .text.drv_extGpio_syncStatus_get
                0x0000000000000000      0x140 board/Realtek/rtl9300/librtl9300.o
 .text.drv_extGpio_sync_start
                0x0000000000000000      0x174 board/Realtek/rtl9300/librtl9300.o
 .text.drv_extGpio_pin_get
                0x0000000000000000      0x320 board/Realtek/rtl9300/librtl9300.o
 .text.drv_extGpio_devRecovery_start
                0x0000000000000000      0x17c board/Realtek/rtl9300/librtl9300.o
 .text.drv_extGpio_direction_get
                0x0000000000000000      0x23c board/Realtek/rtl9300/librtl9300.o
 .text.drv_extGpio_i2c_init
                0x0000000000000000        0x8 board/Realtek/rtl9300/librtl9300.o
 .text.drv_extGpio_i2c_get
                0x0000000000000000        0x8 board/Realtek/rtl9300/librtl9300.o
 .text.drv_extGpio_i2c_read
                0x0000000000000000        0x8 board/Realtek/rtl9300/librtl9300.o
 .text.drv_extGpio_i2c_write
                0x0000000000000000        0x8 board/Realtek/rtl9300/librtl9300.o
 .text.drv_rtl8231_mdcSem_register
                0x0000000000000000       0x48 board/Realtek/rtl9300/librtl9300.o
 .text.drv_rtl8231_mdcSem_unregister
                0x0000000000000000       0x48 board/Realtek/rtl9300/librtl9300.o
 .text.drv_rtl8231_intrEnable_get
                0x0000000000000000       0x54 board/Realtek/rtl9300/librtl9300.o
 .text.drv_rtl8231_intrMode_get
                0x0000000000000000       0x54 board/Realtek/rtl9300/librtl9300.o
 .text.drv_rtl8231_intrStatus_get
                0x0000000000000000       0x54 board/Realtek/rtl9300/librtl9300.o
 .text.drv_rtl8231_intrStatus_clear
                0x0000000000000000       0x54 board/Realtek/rtl9300/librtl9300.o
 .text.drv_rtl8231_extGPIOIntrStatus_get
                0x0000000000000000       0x54 board/Realtek/rtl9300/librtl9300.o
 .text.drv_rtl8231_directAccess_set
                0x0000000000000000       0x54 board/Realtek/rtl9300/librtl9300.o
 .text.drv_gpio_isr_get
                0x0000000000000000       0x90 board/Realtek/rtl9300/librtl9300.o
 .text.drv_gpio_isr_clear
                0x0000000000000000       0x84 board/Realtek/rtl9300/librtl9300.o
 .text.drv_spiPin_init
                0x0000000000000000       0x24 board/Realtek/rtl9300/librtl9300.o
 .text.drv_spi_transfer_start
                0x0000000000000000       0x30 board/Realtek/rtl9300/librtl9300.o
 .text.drv_spi_transfer_stop
                0x0000000000000000       0x30 board/Realtek/rtl9300/librtl9300.o
 .text.drv_spi_raw_read
                0x0000000000000000        0x8 board/Realtek/rtl9300/librtl9300.o
 .text.drv_spi_raw_write
                0x0000000000000000        0x8 board/Realtek/rtl9300/librtl9300.o
 .text.drv_software_i2c_type_get
                0x0000000000000000       0x60 board/Realtek/rtl9300/librtl9300.o
 .text._general_sequential_nbits_dev_read
                0x0000000000000000      0x120 board/Realtek/rtl9300/librtl9300.o
 .text.drv_software_i2c_group_get
                0x0000000000000000       0x6c board/Realtek/rtl9300/librtl9300.o
 .text.drv_software_i2c_sequential_read
                0x0000000000000000       0xd0 board/Realtek/rtl9300/librtl9300.o
 .text.drv_software_i2c_list
                0x0000000000000000      0x134 board/Realtek/rtl9300/librtl9300.o
 .text.rt_util_crc32_cal
                0x0000000000000000      0x184 board/Realtek/rtl9300/librtl9300.o
 .text.rt_util_flashVar_get
                0x0000000000000000      0x1f8 board/Realtek/rtl9300/librtl9300.o
 .text.rt_util_ascii2hex
                0x0000000000000000       0x68 board/Realtek/rtl9300/librtl9300.o
 .text.rt_util_sysMac_get
                0x0000000000000000       0xf0 board/Realtek/rtl9300/librtl9300.o
 .text.rt_util_ledInitFlag_get
                0x0000000000000000       0xa4 board/Realtek/rtl9300/librtl9300.o
 .text.rt_util_macCmp
                0x0000000000000000       0x24 board/Realtek/rtl9300/librtl9300.o
 .text.rt_util_actListIndex_get
                0x0000000000000000       0x54 board/Realtek/rtl9300/librtl9300.o
 .text.rt_util_actListAction_get
                0x0000000000000000       0x44 board/Realtek/rtl9300/librtl9300.o
 .text.rt_util_ipLength2Mask_ret
                0x0000000000000000       0x2c board/Realtek/rtl9300/librtl9300.o
 .text.rt_util_ip6Length2Mask_ret
                0x0000000000000000       0xd8 board/Realtek/rtl9300/librtl9300.o
 .text.rt_util_ipMask2Length_ret
                0x0000000000000000       0x28 board/Realtek/rtl9300/librtl9300.o
 .text.rt_util_ip6Mask2Length_ret
                0x0000000000000000       0x48 board/Realtek/rtl9300/librtl9300.o
 .text.rt_util_ipMaxMatchLength_ret
                0x0000000000000000       0x44 board/Realtek/rtl9300/librtl9300.o
 .text.rt_util_ipv6MaxMatchLength_ret
                0x0000000000000000       0x60 board/Realtek/rtl9300/librtl9300.o
 .text.rt_util_ipv6IsZero_ret
                0x0000000000000000       0x34 board/Realtek/rtl9300/librtl9300.o
 .text.rt_util_ipv6IsAllOnes_ret
                0x0000000000000000       0x38 board/Realtek/rtl9300/librtl9300.o
 .text.rt_util_ipv6Cmp
                0x0000000000000000       0x3c board/Realtek/rtl9300/librtl9300.o
 .text.rt_util_grayToBinary
                0x0000000000000000       0x2c board/Realtek/rtl9300/librtl9300.o
 .text.rt_util_portmask_portReg2Portmask
                0x0000000000000000       0x88 board/Realtek/rtl9300/librtl9300.o
 .text.rt_util_portmask_portmask2PortReg
                0x0000000000000000       0x6c board/Realtek/rtl9300/librtl9300.o
 .text.rt_util_tblEntry2Field
                0x0000000000000000       0x1c board/Realtek/rtl9300/librtl9300.o
 .text.rt_util_field2TblEntry
                0x0000000000000000       0x1c board/Realtek/rtl9300/librtl9300.o
 .text.rtk_portmask2bitPortmask_get
                0x0000000000000000       0x74 board/Realtek/rtl9300/librtl9300.o
 .text.rt_bitop_findFirstBit
                0x0000000000000000       0x34 board/Realtek/rtl9300/librtl9300.o
 .text.rt_bitop_findFirstZeroBitInAaray
                0x0000000000000000       0x78 board/Realtek/rtl9300/librtl9300.o
 .text.rt_bitop_findIdxBitInAaray
                0x0000000000000000       0x78 board/Realtek/rtl9300/librtl9300.o
 .text.hal_clone_device
                0x0000000000000000      0x118 board/Realtek/rtl9300/librtl9300.o
 .text.hal_get_driver_id
                0x0000000000000000       0x64 board/Realtek/rtl9300/librtl9300.o
 .text.hal_show_portmask
                0x0000000000000000       0xd4 board/Realtek/rtl9300/librtl9300.o
 .text.hal_debug_show_info
                0x0000000000000000      0x2b0 board/Realtek/rtl9300/librtl9300.o
 .text.hal_portMaxBandwidth_ret
                0x0000000000000000       0xb8 board/Realtek/rtl9300/librtl9300.o
 .text.phy_speedStatus_get
                0x0000000000000000       0xf8 board/Realtek/rtl9300/librtl9300.o
 .text.phy_broadcastEnable_set
                0x0000000000000000       0xf8 board/Realtek/rtl9300/librtl9300.o
 .text.phy_broadcastID_set
                0x0000000000000000       0xf8 board/Realtek/rtl9300/librtl9300.o
 .text.phy_eeepEnable_get
                0x0000000000000000       0xf8 board/Realtek/rtl9300/librtl9300.o
 .text.phy_eeepEnable_set
                0x0000000000000000       0xf8 board/Realtek/rtl9300/librtl9300.o
 .text.phy_patch_set
                0x0000000000000000       0xe8 board/Realtek/rtl9300/librtl9300.o
 .text._phy_serdes_linkdown_chk
                0x0000000000000000       0x60 board/Realtek/rtl9300/librtl9300.o
 .text._phy_chk_rst_status
                0x0000000000000000      0x1d8 board/Realtek/rtl9300/librtl9300.o
 .text.phy_chk_rst_status
                0x0000000000000000      0x1b4 board/Realtek/rtl9300/librtl9300.o
 .text.phy_drv_chk
                0x0000000000000000       0x7c board/Realtek/rtl9300/librtl9300.o
 .text.phy_fiberOAMLoopBackEnable_set
                0x0000000000000000       0xf8 board/Realtek/rtl9300/librtl9300.o
 .text.phy_ptpInterruptStatus_get
                0x0000000000000000      0x108 board/Realtek/rtl9300/librtl9300.o
 .text.phy_reg_park_get
                0x0000000000000000      0x164 board/Realtek/rtl9300/librtl9300.o
 .text.phy_reg_park_set
                0x0000000000000000      0x164 board/Realtek/rtl9300/librtl9300.o
 .text.phy_reg_broadcast_set
                0x0000000000000000       0xbc board/Realtek/rtl9300/librtl9300.o
 .text.phy_fiberRx_check
                0x0000000000000000      0x1a4 board/Realtek/rtl9300/librtl9300.o
 .text.phy_fiberRx_reset
                0x0000000000000000      0x194 board/Realtek/rtl9300/librtl9300.o
 .text.phy_serdesFiberRx_check
                0x0000000000000000      0x1a4 board/Realtek/rtl9300/librtl9300.o
 .text.phy_serdesFiberRx_reset
                0x0000000000000000      0x194 board/Realtek/rtl9300/librtl9300.o
 .text.phy_fiberLinkUp_handler1
                0x0000000000000000      0x194 board/Realtek/rtl9300/librtl9300.o
 .text.phy_cableESD_recover
                0x0000000000000000      0x4f8 board/Realtek/rtl9300/librtl9300.o
 .text.phy_serdes_linkdown_check
                0x0000000000000000      0x194 board/Realtek/rtl9300/librtl9300.o
 .text.phy_construct_enable_set
                0x0000000000000000      0x108 board/Realtek/rtl9300/librtl9300.o
 .text.phy_chipRevId_get
                0x0000000000000000      0x118 board/Realtek/rtl9300/librtl9300.o
 .text.phy_id_get
                0x0000000000000000      0x160 board/Realtek/rtl9300/librtl9300.o
 .text._phy_swMacPollPhyStatus_get
                0x0000000000000000       0xdc board/Realtek/rtl9300/librtl9300.o
 .text._phy_resolutionResult2Speed_get
                0x0000000000000000       0x70 board/Realtek/rtl9300/librtl9300.o
 .text.phy_modelId_get
                0x0000000000000000       0x30 board/Realtek/rtl9300/librtl9300.o
 .text.phy_fiberRemoteFault_handle
                0x0000000000000000       0xe8 board/Realtek/rtl9300/librtl9300.o
 .text.phy_waMon_phyReconfig_register
                0x0000000000000000       0x34 board/Realtek/rtl9300/librtl9300.o
 .text.phy_waMon_phyReconfig_unregister
                0x0000000000000000       0x28 board/Realtek/rtl9300/librtl9300.o
 .text.reg_idx2Addr_get
                0x0000000000000000       0x64 board/Realtek/rtl9300/librtl9300.o
 .text.reg_idxMax_get
                0x0000000000000000       0x38 board/Realtek/rtl9300/librtl9300.o
 .text.reg_array_field_write_unproct
                0x0000000000000000      0x1ec board/Realtek/rtl9300/librtl9300.o
 .text.reg_array_field_write1toClear
                0x0000000000000000      0x234 board/Realtek/rtl9300/librtl9300.o
 .text.reg_info_get
                0x0000000000000000       0xdc board/Realtek/rtl9300/librtl9300.o
 .text.hal_miim_parkBits_read
                0x0000000000000000       0x70 board/Realtek/rtl9300/librtl9300.o
 .text.hal_miim_parkBits_write
                0x0000000000000000       0xd4 board/Realtek/rtl9300/librtl9300.o
 .text.hal_miim_broadcast_write
                0x0000000000000000       0x68 board/Realtek/rtl9300/librtl9300.o
 .text.table_field_mac_get
                0x0000000000000000       0x64 board/Realtek/rtl9300/librtl9300.o
 .text.table_field_mac_set
                0x0000000000000000       0x64 board/Realtek/rtl9300/librtl9300.o
 .text.table_field_byte_get
                0x0000000000000000      0x180 board/Realtek/rtl9300/librtl9300.o
 .text.table_field_byte_set
                0x0000000000000000      0x194 board/Realtek/rtl9300/librtl9300.o
 .text.hal_mac_serdes_rst
                0x0000000000000000       0xe4 board/Realtek/rtl9300/librtl9300.o
 .text.hal_rtl8295_reg_read
                0x0000000000000000       0xdc board/Realtek/rtl9300/librtl9300.o
 .text.hal_rtl8295_reg_write
                0x0000000000000000       0xdc board/Realtek/rtl9300/librtl9300.o
 .text.hal_rtl8295_mdxMacId_get
                0x0000000000000000       0xf4 board/Realtek/rtl9300/librtl9300.o
 .text.rtl8208_config
                0x0000000000000000       0xe8 board/Realtek/rtl9300/librtl9300.o
 .text.rtl8214fb_config
                0x0000000000000000      0x448 board/Realtek/rtl9300/librtl9300.o
 .text.phy_construct_field_read
                0x0000000000000000       0x94 board/Realtek/rtl9300/librtl9300.o
 .text.phy_construct_field_write
                0x0000000000000000       0xec board/Realtek/rtl9300/librtl9300.o
 .text.phy_construct_confcodeRv_write
                0x0000000000000000       0x84 board/Realtek/rtl9300/librtl9300.o
 .text.phy_construct_confcodePrv_write
                0x0000000000000000       0x90 board/Realtek/rtl9300/librtl9300.o
 .text.rtl8208_rtl8380_config
                0x0000000000000000       0x10 board/Realtek/rtl9300/librtl9300.o
 .text.rtl8208_rtl8390_config
                0x0000000000000000       0x10 board/Realtek/rtl9300/librtl9300.o
 .text.rtl8214fb_rtl8380_config
                0x0000000000000000       0x10 board/Realtek/rtl9300/librtl9300.o
 .text.rtl8214fb_rtl8390_config
                0x0000000000000000       0x10 board/Realtek/rtl9300/librtl9300.o
 .text.construct_rtl8214fb_phyPowerOn
                0x0000000000000000      0x15c board/Realtek/rtl9300/librtl9300.o
 .text.construct_rtl8214fb_phyPowerOff
                0x0000000000000000      0x148 board/Realtek/rtl9300/librtl9300.o
 .text._rtl8214c_indirect_read
                0x0000000000000000      0x178 board/Realtek/rtl9300/librtl9300.o
 .text.phy_identify_int_find
                0x0000000000000000       0x3c board/Realtek/rtl9300/librtl9300.o
 .text.phy_identify_10GeSerdesDrv_find
                0x0000000000000000       0xac board/Realtek/rtl9300/librtl9300.o
 .text.debug_regShow_set
                0x0000000000000000       0x10 board/Realtek/rtl9300/librtl9300.o
 .text.debug_regShow_get
                0x0000000000000000        0xc board/Realtek/rtl9300/librtl9300.o
 .text.dal_mgmt_mapper_remap
                0x0000000000000000       0xe4 board/Realtek/rtl9300/librtl9300.o
 .text.dal_mgmt_misc_init
                0x0000000000000000       0x1c board/Realtek/rtl9300/librtl9300.o
 .text.dal_phy_portEeepEnable_get
                0x0000000000000000      0x144 board/Realtek/rtl9300/librtl9300.o
 .text.dal_phy_portEeepEnable_set
                0x0000000000000000      0x148 board/Realtek/rtl9300/librtl9300.o
 .text.dal_phy_portLinkChange_process
                0x0000000000000000       0xd4 board/Realtek/rtl9300/librtl9300.o
 .text.dal_phy_portSpeed_get
                0x0000000000000000       0xc8 board/Realtek/rtl9300/librtl9300.o
 .text.dal_phy_portSpeed_set
                0x0000000000000000       0xc8 board/Realtek/rtl9300/librtl9300.o
 .text.dal_phy_portDuplex_get
                0x0000000000000000       0xc8 board/Realtek/rtl9300/librtl9300.o
 .text.dal_phy_portDuplex_set
                0x0000000000000000       0xc8 board/Realtek/rtl9300/librtl9300.o
 .text.dal_phy_portFiberOAMLoopBackEnable_set
                0x0000000000000000       0xc8 board/Realtek/rtl9300/librtl9300.o
 .text._dal_phy_portSwMacPollPhyStatus_get
                0x0000000000000000       0xc8 board/Realtek/rtl9300/librtl9300.o
 .text._dal_phy_debugCmd_set
                0x0000000000000000      0x114 board/Realtek/rtl9300/librtl9300.o
 .text._dal_phy_debug_cmd
                0x0000000000000000        0x8 board/Realtek/rtl9300/librtl9300.o
 .text.rtk_unit_attach
                0x0000000000000000       0xf0 board/Realtek/rtl9300/librtl9300.o
 .text.rtk_unit_detach
                0x0000000000000000       0x50 board/Realtek/rtl9300/librtl9300.o
 .text.rtk_port_init
                0x0000000000000000       0x48 board/Realtek/rtl9300/librtl9300.o
 .text.rtk_port_link_get
                0x0000000000000000       0x48 board/Realtek/rtl9300/librtl9300.o
 .text.rtk_port_flowctrl_get
                0x0000000000000000       0x48 board/Realtek/rtl9300/librtl9300.o
 .text.rtk_port_cpuPortId_get
                0x0000000000000000       0x48 board/Realtek/rtl9300/librtl9300.o
 .text.rtk_port_isolation_get
                0x0000000000000000       0x48 board/Realtek/rtl9300/librtl9300.o
 .text.rtk_port_isolationExt_get
                0x0000000000000000       0x48 board/Realtek/rtl9300/librtl9300.o
 .text.rtk_port_isolationExt_set
                0x0000000000000000       0x48 board/Realtek/rtl9300/librtl9300.o
 .text.rtk_port_isolation_add
                0x0000000000000000       0x48 board/Realtek/rtl9300/librtl9300.o
 .text.rtk_port_isolation_del
                0x0000000000000000       0x48 board/Realtek/rtl9300/librtl9300.o
 .text.rtk_port_isolationRestrictRoute_get
                0x0000000000000000       0x48 board/Realtek/rtl9300/librtl9300.o
 .text.rtk_port_isolationRestrictRoute_set
                0x0000000000000000       0x48 board/Realtek/rtl9300/librtl9300.o
 .text.rtk_port_backpressureEnable_get
                0x0000000000000000       0x48 board/Realtek/rtl9300/librtl9300.o
 .text.rtk_port_backpressureEnable_set
                0x0000000000000000       0x48 board/Realtek/rtl9300/librtl9300.o
 .text.rtk_port_linkMon_enable
                0x0000000000000000        0x8 board/Realtek/rtl9300/librtl9300.o
 .text.rtk_port_linkMon_disable
                0x0000000000000000        0x8 board/Realtek/rtl9300/librtl9300.o
 .text.rtk_port_linkMon_register
                0x0000000000000000        0x8 board/Realtek/rtl9300/librtl9300.o
 .text.rtk_port_linkMon_unregister
                0x0000000000000000        0x8 board/Realtek/rtl9300/librtl9300.o
 .text.rtk_port_linkMon_swScanPorts_set
                0x0000000000000000       0x38 board/Realtek/rtl9300/librtl9300.o
 .text.rtk_port_linkMon_swScanPorts_get
                0x0000000000000000       0x38 board/Realtek/rtl9300/librtl9300.o
 .text.rtk_port_txEnable_get
                0x0000000000000000       0x48 board/Realtek/rtl9300/librtl9300.o
 .text.rtk_port_txEnable_set
                0x0000000000000000       0x48 board/Realtek/rtl9300/librtl9300.o
 .text.rtk_port_rxEnable_get
                0x0000000000000000       0x48 board/Realtek/rtl9300/librtl9300.o
 .text.rtk_port_rxEnable_set
                0x0000000000000000       0x48 board/Realtek/rtl9300/librtl9300.o
 .text.rtk_port_specialCongest_get
                0x0000000000000000       0x48 board/Realtek/rtl9300/librtl9300.o
 .text.rtk_port_specialCongest_set
                0x0000000000000000       0x48 board/Realtek/rtl9300/librtl9300.o
 .text.rtk_port_flowCtrlEnable_get
                0x0000000000000000       0x48 board/Realtek/rtl9300/librtl9300.o
 .text.rtk_port_flowCtrlEnable_set
                0x0000000000000000       0x48 board/Realtek/rtl9300/librtl9300.o
 .text.rtk_port_vlanBasedIsolationEntry_get
                0x0000000000000000       0x48 board/Realtek/rtl9300/librtl9300.o
 .text.rtk_port_vlanBasedIsolationEntry_set
                0x0000000000000000       0x48 board/Realtek/rtl9300/librtl9300.o
 .text.rtk_port_vlanBasedIsolation_vlanSource_get
                0x0000000000000000       0x48 board/Realtek/rtl9300/librtl9300.o
 .text.rtk_port_vlanBasedIsolation_vlanSource_set
                0x0000000000000000       0x48 board/Realtek/rtl9300/librtl9300.o
 .text.rtk_port_vlanBasedIsolationEgrBypass_get
                0x0000000000000000       0x48 board/Realtek/rtl9300/librtl9300.o
 .text.rtk_port_vlanBasedIsolationEgrBypass_set
                0x0000000000000000       0x48 board/Realtek/rtl9300/librtl9300.o
 .text.rtk_port_fiberUnidirEnable_get
                0x0000000000000000       0x48 board/Realtek/rtl9300/librtl9300.o
 .text.rtk_port_fiberUnidirEnable_set
                0x0000000000000000       0x48 board/Realtek/rtl9300/librtl9300.o
 .text.rtk_port_fiberOAMLoopBackEnable_set
                0x0000000000000000       0x48 board/Realtek/rtl9300/librtl9300.o
 .text.rtk_port_macForceFc_set
                0x0000000000000000       0x40 board/Realtek/rtl9300/librtl9300.o
 .text.rtk_port_macForceFc_get
                0x0000000000000000       0x40 board/Realtek/rtl9300/librtl9300.o
 .text.rtk_port_fiberDownSpeedEnable_get
                0x0000000000000000       0x48 board/Realtek/rtl9300/librtl9300.o
 .text.rtk_port_fiberDownSpeedEnable_set
                0x0000000000000000       0x48 board/Realtek/rtl9300/librtl9300.o
 .text.rtk_port_miscCtrl_get
                0x0000000000000000       0x48 board/Realtek/rtl9300/librtl9300.o
 .text.rtk_port_miscCtrl_set
                0x0000000000000000       0x48 board/Realtek/rtl9300/librtl9300.o
 .text.rtk_phy_init
                0x0000000000000000       0x48 board/Realtek/rtl9300/librtl9300.o
 .text.rtk_port_linkMedia_get
                0x0000000000000000       0x48 board/Realtek/rtl9300/librtl9300.o
 .text.rtk_port_speedDuplex_get
                0x0000000000000000       0x48 board/Realtek/rtl9300/librtl9300.o
 .text.rtk_port_adminEnable_get
                0x0000000000000000       0x48 board/Realtek/rtl9300/librtl9300.o
 .text.rtk_port_phyAutoNegoEnable_get
                0x0000000000000000       0x48 board/Realtek/rtl9300/librtl9300.o
 .text.rtk_port_phyAutoNegoEnable_set
                0x0000000000000000       0x48 board/Realtek/rtl9300/librtl9300.o
 .text.rtk_port_phyAutoNegoAbilityLocal_get
                0x0000000000000000       0x48 board/Realtek/rtl9300/librtl9300.o
 .text.rtk_port_phyAutoNegoAbility_get
                0x0000000000000000       0x48 board/Realtek/rtl9300/librtl9300.o
 .text.rtk_port_phyAutoNegoAbility_set
                0x0000000000000000       0x48 board/Realtek/rtl9300/librtl9300.o
 .text.rtk_port_phyForceModeAbility_get
                0x0000000000000000       0x48 board/Realtek/rtl9300/librtl9300.o
 .text.rtk_port_phyForceModeAbility_set
                0x0000000000000000       0x48 board/Realtek/rtl9300/librtl9300.o
 .text.rtk_port_phyForceFlowctrlMode_get
                0x0000000000000000       0x48 board/Realtek/rtl9300/librtl9300.o
 .text.rtk_port_phyForceFlowctrlMode_set
                0x0000000000000000       0x48 board/Realtek/rtl9300/librtl9300.o
 .text.rtk_port_phyMasterSlave_get
                0x0000000000000000       0x48 board/Realtek/rtl9300/librtl9300.o
 .text.rtk_port_phyMasterSlave_set
                0x0000000000000000       0x48 board/Realtek/rtl9300/librtl9300.o
 .text.rtk_port_phyReg_get
                0x0000000000000000       0x48 board/Realtek/rtl9300/librtl9300.o
 .text.rtk_port_phyReg_set
                0x0000000000000000       0x48 board/Realtek/rtl9300/librtl9300.o
 .text.rtk_port_phyExtParkPageReg_get
                0x0000000000000000       0x48 board/Realtek/rtl9300/librtl9300.o
 .text.rtk_port_phyExtParkPageReg_set
                0x0000000000000000       0x48 board/Realtek/rtl9300/librtl9300.o
 .text.rtk_port_phymaskExtParkPageReg_set
                0x0000000000000000       0x48 board/Realtek/rtl9300/librtl9300.o
 .text.rtk_port_phyMmdReg_get
                0x0000000000000000       0x48 board/Realtek/rtl9300/librtl9300.o
 .text.rtk_port_phyMmdReg_set
                0x0000000000000000       0x48 board/Realtek/rtl9300/librtl9300.o
 .text.rtk_port_phymaskMmdReg_set
                0x0000000000000000       0x48 board/Realtek/rtl9300/librtl9300.o
 .text.rtk_port_phyComboPortMedia_get
                0x0000000000000000       0x48 board/Realtek/rtl9300/librtl9300.o
 .text.rtk_port_phyComboPortMedia_set
                0x0000000000000000       0x54 board/Realtek/rtl9300/librtl9300.o
 .text.rtk_port_greenEnable_get
                0x0000000000000000       0x48 board/Realtek/rtl9300/librtl9300.o
 .text.rtk_port_greenEnable_set
                0x0000000000000000       0x48 board/Realtek/rtl9300/librtl9300.o
 .text.rtk_port_phyCrossOverMode_get
                0x0000000000000000       0x48 board/Realtek/rtl9300/librtl9300.o
 .text.rtk_port_phyCrossOverMode_set
                0x0000000000000000       0x48 board/Realtek/rtl9300/librtl9300.o
 .text.rtk_port_phyCrossOverStatus_get
                0x0000000000000000       0x48 board/Realtek/rtl9300/librtl9300.o
 .text.rtk_port_phyComboPortFiberMedia_get
                0x0000000000000000       0x48 board/Realtek/rtl9300/librtl9300.o
 .text.rtk_port_phyComboPortFiberMedia_set
                0x0000000000000000       0x54 board/Realtek/rtl9300/librtl9300.o
 .text.rtk_port_linkDownPowerSavingEnable_get
                0x0000000000000000       0x48 board/Realtek/rtl9300/librtl9300.o
 .text.rtk_port_linkDownPowerSavingEnable_set
                0x0000000000000000       0x48 board/Realtek/rtl9300/librtl9300.o
 .text.rtk_port_gigaLiteEnable_get
                0x0000000000000000       0x48 board/Realtek/rtl9300/librtl9300.o
 .text.rtk_port_gigaLiteEnable_set
                0x0000000000000000       0x48 board/Realtek/rtl9300/librtl9300.o
 .text.rtk_port_2pt5gLiteEnable_get
                0x0000000000000000       0x40 board/Realtek/rtl9300/librtl9300.o
 .text.rtk_port_2pt5gLiteEnable_set
                0x0000000000000000       0x40 board/Realtek/rtl9300/librtl9300.o
 .text.rtk_port_phyReconfig_register
                0x0000000000000000        0x8 board/Realtek/rtl9300/librtl9300.o
 .text.rtk_port_phyReconfig_unregister
                0x0000000000000000        0x8 board/Realtek/rtl9300/librtl9300.o
 .text.rtk_port_downSpeedEnable_get
                0x0000000000000000       0x48 board/Realtek/rtl9300/librtl9300.o
 .text.rtk_port_downSpeedEnable_set
                0x0000000000000000       0x48 board/Realtek/rtl9300/librtl9300.o
 .text.rtk_port_downSpeedStatus_get
                0x0000000000000000       0x40 board/Realtek/rtl9300/librtl9300.o
 .text.rtk_port_fiberNwayForceLinkEnable_get
                0x0000000000000000       0x48 board/Realtek/rtl9300/librtl9300.o
 .text.rtk_port_fiberNwayForceLinkEnable_set
                0x0000000000000000       0x48 board/Realtek/rtl9300/librtl9300.o
 .text.rtk_port_phyLoopBackEnable_get
                0x0000000000000000       0x48 board/Realtek/rtl9300/librtl9300.o
 .text.rtk_port_phyLoopBackEnable_set
                0x0000000000000000       0x48 board/Realtek/rtl9300/librtl9300.o
 .text.rtk_port_10gMedia_get
                0x0000000000000000       0x48 board/Realtek/rtl9300/librtl9300.o
 .text.rtk_port_phyFiberTxDis_set
                0x0000000000000000       0x48 board/Realtek/rtl9300/librtl9300.o
 .text.rtk_port_phyFiberTxDisPin_set
                0x0000000000000000       0x48 board/Realtek/rtl9300/librtl9300.o
 .text.rtk_port_fiberRxEnable_get
                0x0000000000000000       0x48 board/Realtek/rtl9300/librtl9300.o
 .text.rtk_port_fiberRxEnable_set
                0x0000000000000000       0x48 board/Realtek/rtl9300/librtl9300.o
 .text.rtk_port_phyPolar_get
                0x0000000000000000       0x48 board/Realtek/rtl9300/librtl9300.o
 .text.rtk_port_phyPolar_set
                0x0000000000000000       0x48 board/Realtek/rtl9300/librtl9300.o
 .text.rtk_port_phyEyeMonitor_start
                0x0000000000000000       0x48 board/Realtek/rtl9300/librtl9300.o
 .text.rtk_port_phyEyeMonitorInfo_get
                0x0000000000000000       0x48 board/Realtek/rtl9300/librtl9300.o
 .text.rtk_port_imageFlash_load
                0x0000000000000000       0x48 board/Realtek/rtl9300/librtl9300.o
 .text.rtk_port_phySdsRxCaliStatus_get
                0x0000000000000000       0x48 board/Realtek/rtl9300/librtl9300.o
 .text.rtk_port_phyReset_set
                0x0000000000000000       0x48 board/Realtek/rtl9300/librtl9300.o
 .text.rtk_port_phyLinkStatus_get
                0x0000000000000000       0x48 board/Realtek/rtl9300/librtl9300.o
 .text.rtk_port_phyPeerAutoNegoAbility_get
                0x0000000000000000       0x48 board/Realtek/rtl9300/librtl9300.o
 .text.rtk_port_phyMacIntfSerdesMode_get
                0x0000000000000000       0x48 board/Realtek/rtl9300/librtl9300.o
 .text.rtk_port_phyLedMode_set
                0x0000000000000000       0x48 board/Realtek/rtl9300/librtl9300.o
 .text.rtk_port_phyLedCtrl_get
                0x0000000000000000       0x48 board/Realtek/rtl9300/librtl9300.o
 .text.rtk_port_phyLedCtrl_set
                0x0000000000000000       0x48 board/Realtek/rtl9300/librtl9300.o
 .text.rtk_port_phyMacIntfSerdesLinkStatus_get
                0x0000000000000000       0x48 board/Realtek/rtl9300/librtl9300.o
 .text.rtk_port_phySdsEyeParam_get
                0x0000000000000000       0x48 board/Realtek/rtl9300/librtl9300.o
 .text.rtk_port_phySdsEyeParam_set
                0x0000000000000000       0x48 board/Realtek/rtl9300/librtl9300.o
 .text.rtk_port_phyMdiLoopbackEnable_get
                0x0000000000000000       0x40 board/Realtek/rtl9300/librtl9300.o
 .text.rtk_port_phyMdiLoopbackEnable_set
                0x0000000000000000       0x40 board/Realtek/rtl9300/librtl9300.o
 .text.rtk_port_phyIntr_init
                0x0000000000000000       0x40 board/Realtek/rtl9300/librtl9300.o
 .text.rtk_port_phyIntrEnable_get
                0x0000000000000000       0x40 board/Realtek/rtl9300/librtl9300.o
 .text.rtk_port_phyIntrEnable_set
                0x0000000000000000       0x40 board/Realtek/rtl9300/librtl9300.o
 .text.rtk_port_phyIntrStatus_get
                0x0000000000000000       0x48 board/Realtek/rtl9300/librtl9300.o
 .text.rtk_port_phyIntrMask_get
                0x0000000000000000       0x40 board/Realtek/rtl9300/librtl9300.o
 .text.rtk_port_phyIntrMask_set
                0x0000000000000000       0x40 board/Realtek/rtl9300/librtl9300.o
 .text.rtk_port_phySdsTestMode_set
                0x0000000000000000       0x40 board/Realtek/rtl9300/librtl9300.o
 .text.rtk_port_phySdsTestModeCnt_get
                0x0000000000000000       0x40 board/Realtek/rtl9300/librtl9300.o
 .text.rtk_port_phySdsLeq_get
                0x0000000000000000       0x48 board/Realtek/rtl9300/librtl9300.o
 .text.rtk_port_phySdsLeq_set
                0x0000000000000000       0x48 board/Realtek/rtl9300/librtl9300.o
 .text.rtk_port_phySds_get
                0x0000000000000000       0x48 board/Realtek/rtl9300/librtl9300.o
 .text.rtk_port_phySds_set
                0x0000000000000000       0x48 board/Realtek/rtl9300/librtl9300.o
 .text.rtk_port_phyCtrl_get
                0x0000000000000000       0x48 board/Realtek/rtl9300/librtl9300.o
 .text.rtk_port_phyCtrl_set
                0x0000000000000000       0x48 board/Realtek/rtl9300/librtl9300.o
 .text.rtk_port_phyLiteEnable_get
                0x0000000000000000       0x48 board/Realtek/rtl9300/librtl9300.o
 .text.rtk_port_phyLiteEnable_set
                0x0000000000000000       0x48 board/Realtek/rtl9300/librtl9300.o
 .text.rtk_port_phyDbgCounter_get
                0x0000000000000000       0x48 board/Realtek/rtl9300/librtl9300.o
 .text.rtk_eee_portEnable_get
                0x0000000000000000       0x48 board/Realtek/rtl9300/librtl9300.o
 .text.rtk_eee_portEnable_set
                0x0000000000000000       0x48 board/Realtek/rtl9300/librtl9300.o
 .text.rtk_diag_portRtctResult_get
                0x0000000000000000       0x48 board/Realtek/rtl9300/librtl9300.o
 .text.rtk_diag_rtctEnable_set
                0x0000000000000000       0x48 board/Realtek/rtl9300/librtl9300.o
 .text.rtk_phy_debug_get
                0x0000000000000000       0x48 board/Realtek/rtl9300/librtl9300.o
 .text.rtk_phy_debug_batch_port_set
                0x0000000000000000       0x48 board/Realtek/rtl9300/librtl9300.o
 .text.rtk_phy_debug_batch_op_set
                0x0000000000000000       0x48 board/Realtek/rtl9300/librtl9300.o
 .text.rtk_time_portPtpEnable_get
                0x0000000000000000       0x48 board/Realtek/rtl9300/librtl9300.o
 .text.rtk_time_portPtpEnable_set
                0x0000000000000000       0x48 board/Realtek/rtl9300/librtl9300.o
 .text.rtk_time_portPtpRxTimestamp_get
                0x0000000000000000       0x4c board/Realtek/rtl9300/librtl9300.o
 .text.rtk_time_portPtpTxTimestamp_get
                0x0000000000000000       0x4c board/Realtek/rtl9300/librtl9300.o
 .text.rtk_time_portRefTime_get
                0x0000000000000000       0x48 board/Realtek/rtl9300/librtl9300.o
 .text.rtk_time_portRefTime_set
                0x0000000000000000       0x4c board/Realtek/rtl9300/librtl9300.o
 .text.rtk_time_portRefTimeAdjust_set
                0x0000000000000000       0x4c board/Realtek/rtl9300/librtl9300.o
 .text.rtk_time_portRefTimeEnable_get
                0x0000000000000000       0x48 board/Realtek/rtl9300/librtl9300.o
 .text.rtk_time_portRefTimeEnable_set
                0x0000000000000000       0x4c board/Realtek/rtl9300/librtl9300.o
 .text.rtk_time_portRefTimeFreq_get
                0x0000000000000000       0x48 board/Realtek/rtl9300/librtl9300.o
 .text.rtk_time_portRefTimeFreq_set
                0x0000000000000000       0x4c board/Realtek/rtl9300/librtl9300.o
 .text.rtk_time_correctionFieldTransparentValue_get
                0x0000000000000000      0x1b4 board/Realtek/rtl9300/librtl9300.o
 .text.rtk_time_portPtpMacAddr_get
                0x0000000000000000       0x40 board/Realtek/rtl9300/librtl9300.o
 .text.rtk_time_portPtpMacAddr_set
                0x0000000000000000       0x40 board/Realtek/rtl9300/librtl9300.o
 .text.rtk_time_portPtpMacAddrRange_get
                0x0000000000000000       0x40 board/Realtek/rtl9300/librtl9300.o
 .text.rtk_time_portPtpMacAddrRange_set
                0x0000000000000000       0x40 board/Realtek/rtl9300/librtl9300.o
 .text.rtk_time_portPtpVlanTpid_get
                0x0000000000000000       0x40 board/Realtek/rtl9300/librtl9300.o
 .text.rtk_time_portPtpVlanTpid_set
                0x0000000000000000       0x40 board/Realtek/rtl9300/librtl9300.o
 .text.rtk_time_portPtpOper_get
                0x0000000000000000       0x40 board/Realtek/rtl9300/librtl9300.o
 .text.rtk_time_portPtpOper_set
                0x0000000000000000       0x40 board/Realtek/rtl9300/librtl9300.o
 .text.rtk_time_portPtpLatchTime_get
                0x0000000000000000       0x40 board/Realtek/rtl9300/librtl9300.o
 .text.rtk_time_portPtpRefTimeFreqCfg_get
                0x0000000000000000       0x48 board/Realtek/rtl9300/librtl9300.o
 .text.rtk_time_portPtpRefTimeFreqCfg_set
                0x0000000000000000       0x48 board/Realtek/rtl9300/librtl9300.o
 .text.rtk_time_portPtpTxInterruptStatus_get
                0x0000000000000000       0x48 board/Realtek/rtl9300/librtl9300.o
 .text.rtk_time_portPtpInterruptEnable_get
                0x0000000000000000       0x48 board/Realtek/rtl9300/librtl9300.o
 .text.rtk_time_portPtpInterruptEnable_set
                0x0000000000000000       0x48 board/Realtek/rtl9300/librtl9300.o
 .text.rtk_time_portPtpTxTimestampFifo_get
                0x0000000000000000       0x48 board/Realtek/rtl9300/librtl9300.o
 .text.rtk_time_portPtp1PPSOutput_get
                0x0000000000000000       0x48 board/Realtek/rtl9300/librtl9300.o
 .text.rtk_time_portPtp1PPSOutput_set
                0x0000000000000000       0x48 board/Realtek/rtl9300/librtl9300.o
 .text.rtk_time_portPtpClockOutput_get
                0x0000000000000000       0x48 board/Realtek/rtl9300/librtl9300.o
 .text.rtk_time_portPtpClockOutput_set
                0x0000000000000000       0x48 board/Realtek/rtl9300/librtl9300.o
 .text.rtk_time_portPtpOutputSigSel_get
                0x0000000000000000       0x48 board/Realtek/rtl9300/librtl9300.o
 .text.rtk_time_portPtpOutputSigSel_set
                0x0000000000000000       0x48 board/Realtek/rtl9300/librtl9300.o
 .text.rtk_time_portPtpTransEnable_get
                0x0000000000000000       0x48 board/Realtek/rtl9300/librtl9300.o
 .text.rtk_time_portPtpTransEnable_set
                0x0000000000000000       0x48 board/Realtek/rtl9300/librtl9300.o
 .text.rtk_time_portPtpLinkDelay_get
                0x0000000000000000       0x48 board/Realtek/rtl9300/librtl9300.o
 .text.rtk_time_portPtpLinkDelay_set
                0x0000000000000000       0x48 board/Realtek/rtl9300/librtl9300.o
 .text.rtk_port_macsecReg_get
                0x0000000000000000       0x48 board/Realtek/rtl9300/librtl9300.o
 .text.rtk_port_macsecReg_set
                0x0000000000000000       0x48 board/Realtek/rtl9300/librtl9300.o
 .text.rtk_macsec_port_cfg_set
                0x0000000000000000       0x40 board/Realtek/rtl9300/librtl9300.o
 .text.rtk_macsec_port_cfg_get
                0x0000000000000000       0x40 board/Realtek/rtl9300/librtl9300.o
 .text.rtk_macsec_sc_create
                0x0000000000000000       0x40 board/Realtek/rtl9300/librtl9300.o
 .text.rtk_macsec_sc_get
                0x0000000000000000       0x40 board/Realtek/rtl9300/librtl9300.o
 .text.rtk_macsec_sc_del
                0x0000000000000000       0x40 board/Realtek/rtl9300/librtl9300.o
 .text.rtk_macsec_sc_status_get
                0x0000000000000000       0x40 board/Realtek/rtl9300/librtl9300.o
 .text.rtk_macsec_sa_create
                0x0000000000000000       0x40 board/Realtek/rtl9300/librtl9300.o
 .text.rtk_macsec_sa_get
                0x0000000000000000       0x40 board/Realtek/rtl9300/librtl9300.o
 .text.rtk_macsec_sa_del
                0x0000000000000000       0x40 board/Realtek/rtl9300/librtl9300.o
 .text.rtk_macsec_sa_activate
                0x0000000000000000       0x40 board/Realtek/rtl9300/librtl9300.o
 .text.rtk_macsec_rxsa_disable
                0x0000000000000000       0x40 board/Realtek/rtl9300/librtl9300.o
 .text.rtk_macsec_txsa_disable
                0x0000000000000000       0x40 board/Realtek/rtl9300/librtl9300.o
 .text.rtk_macsec_stat_clear
                0x0000000000000000       0x40 board/Realtek/rtl9300/librtl9300.o
 .text.rtk_macsec_stat_port_get
                0x0000000000000000       0x40 board/Realtek/rtl9300/librtl9300.o
 .text.rtk_macsec_stat_txsa_get
                0x0000000000000000       0x40 board/Realtek/rtl9300/librtl9300.o
 .text.rtk_macsec_stat_rxsa_get
                0x0000000000000000       0x40 board/Realtek/rtl9300/librtl9300.o
 .text.rtk_macsec_intr_status_get
                0x0000000000000000       0x40 board/Realtek/rtl9300/librtl9300.o
 .text.rtk_port_phySdsReg_get
                0x0000000000000000       0x48 board/Realtek/rtl9300/librtl9300.o
 .text.rtk_port_phySdsReg_set
                0x0000000000000000       0x48 board/Realtek/rtl9300/librtl9300.o
 .text.rtk_time_portPtpFullSec_get
                0x0000000000000000       0x40 board/Realtek/rtl9300/librtl9300.o
 .text.rtk_l2_init
                0x0000000000000000       0x48 board/Realtek/rtl9300/librtl9300.o
 .text.rtk_l2_flushLinkDownPortAddrEnable_get
                0x0000000000000000       0x48 board/Realtek/rtl9300/librtl9300.o
 .text.rtk_l2_flushLinkDownPortAddrEnable_set
                0x0000000000000000       0x48 board/Realtek/rtl9300/librtl9300.o
 .text.rtk_l2_ucastAddr_flush
                0x0000000000000000       0x48 board/Realtek/rtl9300/librtl9300.o
 .text.rtk_l2_macLearningCnt_get
                0x0000000000000000       0x48 board/Realtek/rtl9300/librtl9300.o
 .text.rtk_l2_limitLearningNum_get
                0x0000000000000000       0x48 board/Realtek/rtl9300/librtl9300.o
 .text.rtk_l2_limitLearningNum_set
                0x0000000000000000       0x48 board/Realtek/rtl9300/librtl9300.o
 .text.rtk_l2_limitLearningAction_get
                0x0000000000000000       0x48 board/Realtek/rtl9300/librtl9300.o
 .text.rtk_l2_limitLearningAction_set
                0x0000000000000000       0x48 board/Realtek/rtl9300/librtl9300.o
 .text.rtk_l2_fidLimitLearningEntry_get
                0x0000000000000000       0x48 board/Realtek/rtl9300/librtl9300.o
 .text.rtk_l2_fidLimitLearningEntry_set
                0x0000000000000000       0x48 board/Realtek/rtl9300/librtl9300.o
 .text.rtk_l2_fidLearningCnt_reset
                0x0000000000000000       0x48 board/Realtek/rtl9300/librtl9300.o
 .text.rtk_l2_agingTime_get
                0x0000000000000000       0x48 board/Realtek/rtl9300/librtl9300.o
 .text.rtk_l2_agingTime_set
                0x0000000000000000       0x48 board/Realtek/rtl9300/librtl9300.o
 .text.rtk_l2_portAgingEnable_get
                0x0000000000000000       0x48 board/Realtek/rtl9300/librtl9300.o
 .text.rtk_l2_portAgingEnable_set
                0x0000000000000000       0x48 board/Realtek/rtl9300/librtl9300.o
 .text.rtk_l2_trkAgingEnable_get
                0x0000000000000000       0x48 board/Realtek/rtl9300/librtl9300.o
 .text.rtk_l2_trkAgingEnable_set
                0x0000000000000000       0x48 board/Realtek/rtl9300/librtl9300.o
 .text.rtk_l2_bucketHashAlgo_get
                0x0000000000000000       0x48 board/Realtek/rtl9300/librtl9300.o
 .text.rtk_l2_bucketHashAlgo_set
                0x0000000000000000       0x48 board/Realtek/rtl9300/librtl9300.o
 .text.rtk_l2_vlanMode_get
                0x0000000000000000       0x48 board/Realtek/rtl9300/librtl9300.o
 .text.rtk_l2_vlanMode_set
                0x0000000000000000       0x48 board/Realtek/rtl9300/librtl9300.o
 .text.rtk_l2_learningFullAction_get
                0x0000000000000000       0x48 board/Realtek/rtl9300/librtl9300.o
 .text.rtk_l2_learningFullAction_set
                0x0000000000000000       0x48 board/Realtek/rtl9300/librtl9300.o
 .text.rtk_l2_portNewMacOp_get
                0x0000000000000000       0x48 board/Realtek/rtl9300/librtl9300.o
 .text.rtk_l2_addr_init
                0x0000000000000000       0x48 board/Realtek/rtl9300/librtl9300.o
 .text.rtk_l2_addr_add
                0x0000000000000000       0x48 board/Realtek/rtl9300/librtl9300.o
 .text.rtk_l2_addr_del
                0x0000000000000000       0x48 board/Realtek/rtl9300/librtl9300.o
 .text.rtk_l2_addr_get
                0x0000000000000000       0x48 board/Realtek/rtl9300/librtl9300.o
 .text.rtk_l2_addr_set
                0x0000000000000000       0x48 board/Realtek/rtl9300/librtl9300.o
 .text.rtk_l2_addr_delAll
                0x0000000000000000       0x48 board/Realtek/rtl9300/librtl9300.o
 .text.rtk_l2_nextValidAddr_get
                0x0000000000000000       0x48 board/Realtek/rtl9300/librtl9300.o
 .text.rtk_l2_mcastAddr_init
                0x0000000000000000       0x48 board/Realtek/rtl9300/librtl9300.o
 .text.rtk_l2_mcastAddr_add
                0x0000000000000000       0x48 board/Realtek/rtl9300/librtl9300.o
 .text.rtk_l2_mcastAddr_del
                0x0000000000000000       0x48 board/Realtek/rtl9300/librtl9300.o
 .text.rtk_l2_mcastAddr_get
                0x0000000000000000       0x48 board/Realtek/rtl9300/librtl9300.o
 .text.rtk_l2_mcastAddr_set
                0x0000000000000000       0x48 board/Realtek/rtl9300/librtl9300.o
 .text.rtk_l2_mcastAddr_addByIndex
                0x0000000000000000       0x48 board/Realtek/rtl9300/librtl9300.o
 .text.rtk_l2_mcastAddr_setByIndex
                0x0000000000000000       0x48 board/Realtek/rtl9300/librtl9300.o
 .text.rtk_l2_mcastAddr_delIgnoreIndex
                0x0000000000000000       0x48 board/Realtek/rtl9300/librtl9300.o
 .text.rtk_l2_nextValidMcastAddr_get
                0x0000000000000000       0x48 board/Realtek/rtl9300/librtl9300.o
 .text.rtk_l2_ipmcMode_get
                0x0000000000000000       0x48 board/Realtek/rtl9300/librtl9300.o
 .text.rtk_l2_ipmcMode_set
                0x0000000000000000       0x48 board/Realtek/rtl9300/librtl9300.o
 .text.rtk_l2_ipMcastAddrExt_init
                0x0000000000000000       0x48 board/Realtek/rtl9300/librtl9300.o
 .text.rtk_l2_ipMcastAddr_add
                0x0000000000000000       0x48 board/Realtek/rtl9300/librtl9300.o
 .text.rtk_l2_ipMcastAddr_del
                0x0000000000000000       0x48 board/Realtek/rtl9300/librtl9300.o
 .text.rtk_l2_ipMcastAddr_get
                0x0000000000000000       0x48 board/Realtek/rtl9300/librtl9300.o
 .text.rtk_l2_ipMcastAddr_set
                0x0000000000000000       0x48 board/Realtek/rtl9300/librtl9300.o
 .text.rtk_l2_ipMcastAddr_addByIndex
                0x0000000000000000       0x48 board/Realtek/rtl9300/librtl9300.o
 .text.rtk_l2_ipMcastAddr_setByIndex
                0x0000000000000000       0x48 board/Realtek/rtl9300/librtl9300.o
 .text.rtk_l2_ipMcastAddr_delIgnoreIndex
                0x0000000000000000       0x48 board/Realtek/rtl9300/librtl9300.o
 .text.rtk_l2_nextValidIpMcastAddr_get
                0x0000000000000000       0x48 board/Realtek/rtl9300/librtl9300.o
 .text.rtk_l2_ipMcastAddrChkEnable_get
                0x0000000000000000       0x48 board/Realtek/rtl9300/librtl9300.o
 .text.rtk_l2_ipMcastAddrChkEnable_set
                0x0000000000000000       0x48 board/Realtek/rtl9300/librtl9300.o
 .text.rtk_l2_ipMcstFidVidCompareEnable_get
                0x0000000000000000       0x48 board/Realtek/rtl9300/librtl9300.o
 .text.rtk_l2_ipMcstFidVidCompareEnable_set
                0x0000000000000000       0x48 board/Realtek/rtl9300/librtl9300.o
 .text.rtk_l2_ip6mcMode_get
                0x0000000000000000       0x48 board/Realtek/rtl9300/librtl9300.o
 .text.rtk_l2_ip6mcMode_set
                0x0000000000000000       0x48 board/Realtek/rtl9300/librtl9300.o
 .text.rtk_l2_ip6CareByte_get
                0x0000000000000000       0x48 board/Realtek/rtl9300/librtl9300.o
 .text.rtk_l2_ip6CareByte_set
                0x0000000000000000       0x48 board/Realtek/rtl9300/librtl9300.o
 .text.rtk_l2_ip6McastAddrExt_init
                0x0000000000000000       0x48 board/Realtek/rtl9300/librtl9300.o
 .text.rtk_l2_ip6McastAddr_add
                0x0000000000000000       0x48 board/Realtek/rtl9300/librtl9300.o
 .text.rtk_l2_ip6McastAddr_del
                0x0000000000000000       0x50 board/Realtek/rtl9300/librtl9300.o
 .text.rtk_l2_ip6McastAddr_get
                0x0000000000000000       0x48 board/Realtek/rtl9300/librtl9300.o
 .text.rtk_l2_ip6McastAddr_set
                0x0000000000000000       0x48 board/Realtek/rtl9300/librtl9300.o
 .text.rtk_l2_ip6McastAddr_addByIndex
                0x0000000000000000       0x48 board/Realtek/rtl9300/librtl9300.o
 .text.rtk_l2_ip6McastAddr_setByIndex
                0x0000000000000000       0x48 board/Realtek/rtl9300/librtl9300.o
 .text.rtk_l2_ip6McastAddr_delIgnoreIndex
                0x0000000000000000       0x50 board/Realtek/rtl9300/librtl9300.o
 .text.rtk_l2_nextValidIp6McastAddr_get
                0x0000000000000000       0x48 board/Realtek/rtl9300/librtl9300.o
 .text.rtk_l2_mcastFwdIndex_alloc
                0x0000000000000000       0x48 board/Realtek/rtl9300/librtl9300.o
 .text.rtk_l2_mcastFwdIndex_free
                0x0000000000000000       0x48 board/Realtek/rtl9300/librtl9300.o
 .text.rtk_l2_mcastFwdIndexFreeCount_get
                0x0000000000000000       0x48 board/Realtek/rtl9300/librtl9300.o
 .text.rtk_l2_mcastFwdPortmaskEntry_get
                0x0000000000000000       0x48 board/Realtek/rtl9300/librtl9300.o
 .text.rtk_l2_mcastFwdPortmaskEntry_set
                0x0000000000000000       0x48 board/Realtek/rtl9300/librtl9300.o
 .text.rtk_l2_cpuMacAddr_add
                0x0000000000000000       0x48 board/Realtek/rtl9300/librtl9300.o
 .text.rtk_l2_cpuMacAddr_del
                0x0000000000000000       0x48 board/Realtek/rtl9300/librtl9300.o
 .text.rtk_l2_portMoveAction_get
                0x0000000000000000       0x48 board/Realtek/rtl9300/librtl9300.o
 .text.rtk_l2_portMoveAction_set
                0x0000000000000000       0x48 board/Realtek/rtl9300/librtl9300.o
 .text.rtk_l2_portMoveLearn_get
                0x0000000000000000       0x48 board/Realtek/rtl9300/librtl9300.o
 .text.rtk_l2_portMoveLearn_set
                0x0000000000000000       0x48 board/Realtek/rtl9300/librtl9300.o
 .text.rtk_l2_legalPortMoveFlushAddrEnable_get
                0x0000000000000000       0x48 board/Realtek/rtl9300/librtl9300.o
 .text.rtk_l2_legalPortMoveFlushAddrEnable_set
                0x0000000000000000       0x48 board/Realtek/rtl9300/librtl9300.o
 .text.rtk_l2_staticPortMoveAction_get
                0x0000000000000000       0x48 board/Realtek/rtl9300/librtl9300.o
 .text.rtk_l2_staticPortMoveAction_set
                0x0000000000000000       0x48 board/Realtek/rtl9300/librtl9300.o
 .text.rtk_l2_lookupMissFloodPortMask_get
                0x0000000000000000       0x48 board/Realtek/rtl9300/librtl9300.o
 .text.rtk_l2_lookupMissFloodPortMask_set
                0x0000000000000000       0x48 board/Realtek/rtl9300/librtl9300.o
 .text.rtk_l2_lookupMissFloodPortMask_add
                0x0000000000000000       0x48 board/Realtek/rtl9300/librtl9300.o
 .text.rtk_l2_lookupMissFloodPortMask_del
                0x0000000000000000       0x48 board/Realtek/rtl9300/librtl9300.o
 .text.rtk_l2_lookupMissFloodPortMask_setByIndex
                0x0000000000000000       0x48 board/Realtek/rtl9300/librtl9300.o
 .text.rtk_l2_lookupMissFloodPortMaskIdx_get
                0x0000000000000000       0x48 board/Realtek/rtl9300/librtl9300.o
 .text.rtk_l2_lookupMissFloodPortMaskIdx_set
                0x0000000000000000       0x48 board/Realtek/rtl9300/librtl9300.o
 .text.rtk_l2_portLookupMissAction_get
                0x0000000000000000       0x48 board/Realtek/rtl9300/librtl9300.o
 .text.rtk_l2_portLookupMissAction_set
                0x0000000000000000       0x48 board/Realtek/rtl9300/librtl9300.o
 .text.rtk_l2_portUcastLookupMissAction_get
                0x0000000000000000       0x48 board/Realtek/rtl9300/librtl9300.o
 .text.rtk_l2_portUcastLookupMissAction_set
                0x0000000000000000       0x48 board/Realtek/rtl9300/librtl9300.o
 .text.rtk_l2_srcPortEgrFilterMask_get
                0x0000000000000000       0x48 board/Realtek/rtl9300/librtl9300.o
 .text.rtk_l2_srcPortEgrFilterMask_set
                0x0000000000000000       0x48 board/Realtek/rtl9300/librtl9300.o
 .text.rtk_l2_srcPortEgrFilterMask_add
                0x0000000000000000       0x48 board/Realtek/rtl9300/librtl9300.o
 .text.rtk_l2_srcPortEgrFilterMask_del
                0x0000000000000000       0x48 board/Realtek/rtl9300/librtl9300.o
 .text.rtk_l2_exceptionAddrAction_get
                0x0000000000000000       0x48 board/Realtek/rtl9300/librtl9300.o
 .text.rtk_l2_exceptionAddrAction_set
                0x0000000000000000       0x48 board/Realtek/rtl9300/librtl9300.o
 .text.rtk_l2_addrEntry_get
                0x0000000000000000       0x48 board/Realtek/rtl9300/librtl9300.o
 .text.rtk_l2_conflictAddr_get
                0x0000000000000000       0x48 board/Realtek/rtl9300/librtl9300.o
 .text.rtk_l2_zeroSALearningEnable_get
                0x0000000000000000       0x48 board/Realtek/rtl9300/librtl9300.o
 .text.rtk_l2_zeroSALearningEnable_set
                0x0000000000000000       0x48 board/Realtek/rtl9300/librtl9300.o
 .text.rtk_l2_secureMacMode_get
                0x0000000000000000       0x48 board/Realtek/rtl9300/librtl9300.o
 .text.rtk_l2_secureMacMode_set
                0x0000000000000000       0x48 board/Realtek/rtl9300/librtl9300.o
 .text.rtk_l2_portDynamicPortMoveForbidEnable_get
                0x0000000000000000       0x48 board/Realtek/rtl9300/librtl9300.o
 .text.rtk_l2_portDynamicPortMoveForbidEnable_set
                0x0000000000000000       0x48 board/Realtek/rtl9300/librtl9300.o
 .text.rtk_l2_trkDynamicPortMoveForbidEnable_get
                0x0000000000000000       0x48 board/Realtek/rtl9300/librtl9300.o
 .text.rtk_l2_trkDynamicPortMoveForbidEnable_set
                0x0000000000000000       0x48 board/Realtek/rtl9300/librtl9300.o
 .text.rtk_l2_portMacFilterEnable_get
                0x0000000000000000       0x48 board/Realtek/rtl9300/librtl9300.o
 .text.rtk_l2_portMacFilterEnable_set
                0x0000000000000000       0x48 board/Realtek/rtl9300/librtl9300.o
 .text.rtk_l2_hwNextValidAddr_get
                0x0000000000000000       0x48 board/Realtek/rtl9300/librtl9300.o
 .text.rtk_l2_portCtrl_get
                0x0000000000000000       0x48 board/Realtek/rtl9300/librtl9300.o
 .text.rtk_l2_portCtrl_set
                0x0000000000000000       0x48 board/Realtek/rtl9300/librtl9300.o
 .text.rtk_l2_status_get
                0x0000000000000000       0x48 board/Realtek/rtl9300/librtl9300.o
 .text.rtk_l2_stkLearningEnable_get
                0x0000000000000000       0x48 board/Realtek/rtl9300/librtl9300.o
 .text.rtk_l2_stkLearningEnable_set
                0x0000000000000000       0x48 board/Realtek/rtl9300/librtl9300.o
 .text.rtk_l2_stkKeepUcastEntryValid_get
                0x0000000000000000       0x48 board/Realtek/rtl9300/librtl9300.o
 .text.rtk_l2_stkKeepUcastEntryValid_set
                0x0000000000000000       0x48 board/Realtek/rtl9300/librtl9300.o
 .text.rtk_l2_entryCnt_get
                0x0000000000000000       0x48 board/Realtek/rtl9300/librtl9300.o
 .text.rtk_l2_hashIdx_get
                0x0000000000000000       0x48 board/Realtek/rtl9300/librtl9300.o
 .text.rtk_l2_addr_delByMac
                0x0000000000000000       0x48 board/Realtek/rtl9300/librtl9300.o
 .text.rtk_trunk_init
                0x0000000000000000       0x48 board/Realtek/rtl9300/librtl9300.o
 .text.rtk_trunk_mode_get
                0x0000000000000000       0x48 board/Realtek/rtl9300/librtl9300.o
 .text.rtk_trunk_mode_set
                0x0000000000000000       0x48 board/Realtek/rtl9300/librtl9300.o
 .text.rtk_trunk_port_get
                0x0000000000000000       0x48 board/Realtek/rtl9300/librtl9300.o
 .text.rtk_trunk_port_set
                0x0000000000000000       0x48 board/Realtek/rtl9300/librtl9300.o
 .text.rtk_trunk_localPort_get
                0x0000000000000000       0x48 board/Realtek/rtl9300/librtl9300.o
 .text.rtk_trunk_localPort_set
                0x0000000000000000       0x48 board/Realtek/rtl9300/librtl9300.o
 .text.rtk_trunk_egrPort_get
                0x0000000000000000       0x48 board/Realtek/rtl9300/librtl9300.o
 .text.rtk_trunk_egrPort_set
                0x0000000000000000       0x48 board/Realtek/rtl9300/librtl9300.o
 .text.rtk_trunk_tunnelHashSrc_get
                0x0000000000000000       0x48 board/Realtek/rtl9300/librtl9300.o
 .text.rtk_trunk_tunnelHashSrc_set
                0x0000000000000000       0x48 board/Realtek/rtl9300/librtl9300.o
 .text.rtk_trunk_distributionAlgorithmBind_get
                0x0000000000000000       0x48 board/Realtek/rtl9300/librtl9300.o
 .text.rtk_trunk_distributionAlgorithmBind_set
                0x0000000000000000       0x48 board/Realtek/rtl9300/librtl9300.o
 .text.rtk_trunk_distributionAlgorithmTypeBind_get
                0x0000000000000000       0x48 board/Realtek/rtl9300/librtl9300.o
 .text.rtk_trunk_distributionAlgorithmTypeBind_set
                0x0000000000000000       0x48 board/Realtek/rtl9300/librtl9300.o
 .text.rtk_trunk_distributionAlgorithmParam_get
                0x0000000000000000       0x48 board/Realtek/rtl9300/librtl9300.o
 .text.rtk_trunk_distributionAlgorithmParam_set
                0x0000000000000000       0x48 board/Realtek/rtl9300/librtl9300.o
 .text.rtk_trunk_distributionAlgorithmTypeParam_get
                0x0000000000000000       0x48 board/Realtek/rtl9300/librtl9300.o
 .text.rtk_trunk_distributionAlgorithmTypeParam_set
                0x0000000000000000       0x48 board/Realtek/rtl9300/librtl9300.o
 .text.rtk_trunk_distributionAlgorithmShift_get
                0x0000000000000000       0x48 board/Realtek/rtl9300/librtl9300.o
 .text.rtk_trunk_distributionAlgorithmShift_set
                0x0000000000000000       0x48 board/Realtek/rtl9300/librtl9300.o
 .text.rtk_trunk_distributionAlgorithmShiftGbl_get
                0x0000000000000000       0x48 board/Realtek/rtl9300/librtl9300.o
 .text.rtk_trunk_distributionAlgorithmShiftGbl_set
                0x0000000000000000       0x48 board/Realtek/rtl9300/librtl9300.o
 .text.rtk_trunk_trafficSeparate_get
                0x0000000000000000       0x48 board/Realtek/rtl9300/librtl9300.o
 .text.rtk_trunk_trafficSeparate_set
                0x0000000000000000       0x48 board/Realtek/rtl9300/librtl9300.o
 .text.rtk_trunk_trafficSeparateEnable_get
                0x0000000000000000       0x48 board/Realtek/rtl9300/librtl9300.o
 .text.rtk_trunk_trafficSeparateEnable_set
                0x0000000000000000       0x48 board/Realtek/rtl9300/librtl9300.o
 .text.rtk_trunk_trafficSeparateDivision_get
                0x0000000000000000       0x48 board/Realtek/rtl9300/librtl9300.o
 .text.rtk_trunk_trafficSeparateDivision_set
                0x0000000000000000       0x48 board/Realtek/rtl9300/librtl9300.o
 .text.rtk_trunk_stkTrkPort_get
                0x0000000000000000       0x48 board/Realtek/rtl9300/librtl9300.o
 .text.rtk_trunk_stkTrkPort_set
                0x0000000000000000       0x48 board/Realtek/rtl9300/librtl9300.o
 .text.rtk_trunk_stkTrkHash_get
                0x0000000000000000       0x48 board/Realtek/rtl9300/librtl9300.o
 .text.rtk_trunk_stkTrkHash_set
                0x0000000000000000       0x48 board/Realtek/rtl9300/librtl9300.o
 .text.rtk_trunk_stkDistributionAlgorithmTypeBind_get
                0x0000000000000000       0x48 board/Realtek/rtl9300/librtl9300.o
 .text.rtk_trunk_stkDistributionAlgorithmTypeBind_set
                0x0000000000000000       0x48 board/Realtek/rtl9300/librtl9300.o
 .text.rtk_trunk_localFirst_get
                0x0000000000000000       0x48 board/Realtek/rtl9300/librtl9300.o
 .text.rtk_trunk_localFirst_set
                0x0000000000000000       0x48 board/Realtek/rtl9300/librtl9300.o
 .text.rtk_trunk_localFirstFailOver_get
                0x0000000000000000       0x48 board/Realtek/rtl9300/librtl9300.o
 .text.rtk_trunk_localFirstFailOver_set
                0x0000000000000000       0x48 board/Realtek/rtl9300/librtl9300.o
 .text.rtk_trunk_srcPortMap_get
                0x0000000000000000       0x4c board/Realtek/rtl9300/librtl9300.o
 .text.rtk_trunk_srcPortMap_set
                0x0000000000000000       0x4c board/Realtek/rtl9300/librtl9300.o
 .text.phy_common_speed_get
                0x0000000000000000      0x378 board/Realtek/rtl9300/librtl9300.o
 .text.phy_common_masterSlave_get
                0x0000000000000000       0xc0 board/Realtek/rtl9300/librtl9300.o
 .text.phy_common_masterSlave_set
                0x0000000000000000       0xb0 board/Realtek/rtl9300/librtl9300.o
 .text.phy_common_masterSlaveMmd_get
                0x0000000000000000       0xc0 board/Realtek/rtl9300/librtl9300.o
 .text.phy_common_masterSlaveMmd_set
                0x0000000000000000       0xb4 board/Realtek/rtl9300/librtl9300.o
 .text.phy_common_copperPeerAutoNegoAbility_get
                0x0000000000000000      0x184 board/Realtek/rtl9300/librtl9300.o
 .text.phy_field_read
                0x0000000000000000       0x8c board/Realtek/rtl9300/librtl9300.o
 .text.phy_field_write
                0x0000000000000000       0xe0 board/Realtek/rtl9300/librtl9300.o
 .text.phy_common_c45_autoNegoAbility_set
                0x0000000000000000      0x208 board/Realtek/rtl9300/librtl9300.o
 .text.phy_common_c45_linkStatus_get
                0x0000000000000000       0x48 board/Realtek/rtl9300/librtl9300.o
 .text.phy_common_c45_eeeEnable_get
                0x0000000000000000       0xac board/Realtek/rtl9300/librtl9300.o
 .text.phy_common_c45_eeeEnable_set
                0x0000000000000000      0x174 board/Realtek/rtl9300/librtl9300.o
 .text.phy_common_c45_crossOverStatus_get
                0x0000000000000000       0x5c board/Realtek/rtl9300/librtl9300.o
 .text.phy_common_c45_speedDuplexStatus_get
                0x0000000000000000      0x42c board/Realtek/rtl9300/librtl9300.o
 .text.phy_common_c45_ieeeTestMode_set
                0x0000000000000000      0x200 board/Realtek/rtl9300/librtl9300.o
 .text.phy_common_autoNegoAbility_get
                0x0000000000000000       0xd4 board/Realtek/rtl9300/librtl9300.o
 .text.phy_common_autoNegoAbility_set
                0x0000000000000000      0x1d4 board/Realtek/rtl9300/librtl9300.o
 .text.phy_common_speed_set
                0x0000000000000000       0x98 board/Realtek/rtl9300/librtl9300.o
 .text.phy_826x_media_get
                0x0000000000000000        0xc board/Realtek/rtl9300/librtl9300.o
 .text.phy_826x_duplex_get
                0x0000000000000000       0x48 board/Realtek/rtl9300/librtl9300.o
 .text.phy_826x_linkStatus_get
                0x0000000000000000       0x48 board/Realtek/rtl9300/librtl9300.o
 .text.phy_826x_crossOverMode_get
                0x0000000000000000       0x60 board/Realtek/rtl9300/librtl9300.o
 .text.phy_826x_downSpeedEnable_get
                0x0000000000000000       0x48 board/Realtek/rtl9300/librtl9300.o
 .text.phy_826x_downSpeedStatus_get
                0x0000000000000000       0x48 board/Realtek/rtl9300/librtl9300.o
 .text.phy_826x_eeeEnable_get
                0x0000000000000000       0xac board/Realtek/rtl9300/librtl9300.o
 .text.phy_826x_eeepEnable_get
                0x0000000000000000       0x48 board/Realtek/rtl9300/librtl9300.o
 .text.phy_826x_linkDownPowerSavingEnable_get
                0x0000000000000000       0x48 board/Realtek/rtl9300/librtl9300.o
 .text.phy_826x_mdiLoopbackEnable_get
                0x0000000000000000       0x48 board/Realtek/rtl9300/librtl9300.o
 .text.phy_826x_duplex_set
                0x0000000000000000       0x90 board/Realtek/rtl9300/librtl9300.o
 .text.phy_826x_crossOverMode_set
                0x0000000000000000       0xb4 board/Realtek/rtl9300/librtl9300.o
 .text.phy_826x_downSpeedEnable_set
                0x0000000000000000       0x88 board/Realtek/rtl9300/librtl9300.o
 .text.phy_826x_linkDownPowerSavingEnable_set
                0x0000000000000000       0x88 board/Realtek/rtl9300/librtl9300.o
 .text.phy_826x_mdiLoopbackEnable_set
                0x0000000000000000       0x88 board/Realtek/rtl9300/librtl9300.o
 .text.phy_826x_dbgCounter_get
                0x0000000000000000      0x370 board/Realtek/rtl9300/librtl9300.o
 .text.phy_826x_autoNegoAbilityPeer_get
                0x0000000000000000       0x7c board/Realtek/rtl9300/librtl9300.o
 .text.phy_826x_rtct_start
                0x0000000000000000      0x220 board/Realtek/rtl9300/librtl9300.o
 .text._phy_826x_chip_ver_get
                0x0000000000000000       0x4c board/Realtek/rtl9300/librtl9300.o
 .text._phy_826x_chip_type_get
                0x0000000000000000       0x98 board/Realtek/rtl9300/librtl9300.o
 .text.phy_826x_autoNegoAbilityLocal_get
                0x0000000000000000       0x90 board/Realtek/rtl9300/librtl9300.o
 .text.phy_826x_autoNegoAbility_get
                0x0000000000000000       0xcc board/Realtek/rtl9300/librtl9300.o
 .text.phy_826x_liteEnable_get
                0x0000000000000000      0x168 board/Realtek/rtl9300/librtl9300.o
 .text._phy_826x_is_single_port
                0x0000000000000000       0x44 board/Realtek/rtl9300/librtl9300.o
 .text._phy_826x_indirect_read
                0x0000000000000000       0x78 board/Realtek/rtl9300/librtl9300.o
 .text.phy_826x_greenEnable_get
                0x0000000000000000       0x40 board/Realtek/rtl9300/librtl9300.o
 .text._phy_826x_indirect_write
                0x0000000000000000       0x68 board/Realtek/rtl9300/librtl9300.o
 .text.phy_826x_greenEnable_set
                0x0000000000000000       0x78 board/Realtek/rtl9300/librtl9300.o
 .text._phy_826x_serdes_reg_write
                0x0000000000000000       0xa0 board/Realtek/rtl9300/librtl9300.o
 .text._phy_826x_serdes_reg_read
                0x0000000000000000       0xe4 board/Realtek/rtl9300/librtl9300.o
 .text._phy_826x_an_restart
                0x0000000000000000       0x78 board/Realtek/rtl9300/librtl9300.o
 .text.phy_826x_autoNegoAbility_set
                0x0000000000000000      0x254 board/Realtek/rtl9300/librtl9300.o
 .text.phy_826x_liteEnable_set
                0x0000000000000000      0x544 board/Realtek/rtl9300/librtl9300.o
 .text.phy_826x_eeeEnable_set
                0x0000000000000000      0x16c board/Realtek/rtl9300/librtl9300.o
 .text.phy_826x_eeepEnable_set
                0x0000000000000000       0xa4 board/Realtek/rtl9300/librtl9300.o
 .text._phy_826x_interrupt_enable_set
                0x0000000000000000      0x2e0 board/Realtek/rtl9300/librtl9300.o
 .text._phy_826x_interrupt_enable_get
                0x0000000000000000      0x11c board/Realtek/rtl9300/librtl9300.o
 .text.phy_826x_intrEnable_get
                0x0000000000000000       0x54 board/Realtek/rtl9300/librtl9300.o
 .text.phy_826x_intrEnable_set
                0x0000000000000000       0x88 board/Realtek/rtl9300/librtl9300.o
 .text._phy_826x_interrupt_mask_set
                0x0000000000000000       0xa8 board/Realtek/rtl9300/librtl9300.o
 .text._phy_826x_interrupt_mask_get
                0x0000000000000000       0x60 board/Realtek/rtl9300/librtl9300.o
 .text.phy_826x_intrMask_get
                0x0000000000000000       0x54 board/Realtek/rtl9300/librtl9300.o
 .text.phy_826x_intrMask_set
                0x0000000000000000       0x88 board/Realtek/rtl9300/librtl9300.o
 .text._phy_826x_interrupt_status_get
                0x0000000000000000       0xf4 board/Realtek/rtl9300/librtl9300.o
 .text.phy_826x_intrStatus_get
                0x0000000000000000       0x44 board/Realtek/rtl9300/librtl9300.o
 .text._phy_826x_synce_init
                0x0000000000000000      0x2ac board/Realtek/rtl9300/librtl9300.o
 .text._phy_826x_synce_clock_freq_set
                0x0000000000000000      0x274 board/Realtek/rtl9300/librtl9300.o
 .text._phy_826x_synce_clock_freq_get
                0x0000000000000000      0x128 board/Realtek/rtl9300/librtl9300.o
 .text._phy_826x_synce_recovery_phy_set
                0x0000000000000000      0x214 board/Realtek/rtl9300/librtl9300.o
 .text._phy_826x_synce_recovery_phy_get
                0x0000000000000000       0xf0 board/Realtek/rtl9300/librtl9300.o
 .text._phy_826x_synce_idle_mode_set
                0x0000000000000000      0x2e4 board/Realtek/rtl9300/librtl9300.o
 .text._phy_826x_synce_idle_mode_get
                0x0000000000000000      0x130 board/Realtek/rtl9300/librtl9300.o
 .text._phy_826x_synce_enable_set
                0x0000000000000000      0x378 board/Realtek/rtl9300/librtl9300.o
 .text._phy_826x_synce_pll_set
                0x0000000000000000      0x468 board/Realtek/rtl9300/librtl9300.o
 .text._phy_826x_synce_enable_get
                0x0000000000000000       0x6c board/Realtek/rtl9300/librtl9300.o
 .text._phy_826x_skew_get
                0x0000000000000000      0x1a0 board/Realtek/rtl9300/librtl9300.o
 .text._phy_826x_temperature_get
                0x0000000000000000       0x94 board/Realtek/rtl9300/librtl9300.o
 .text._phy_826x_temperature_threshold_set
                0x0000000000000000      0x33c board/Realtek/rtl9300/librtl9300.o
 .text._phy_826x_temperature_threshold_get
                0x0000000000000000      0x19c board/Realtek/rtl9300/librtl9300.o
 .text._phy_826x_serdes_mode_init
                0x0000000000000000       0x80 board/Realtek/rtl9300/librtl9300.o
 .text._phy_826x_realTime_linkStatus_get
                0x0000000000000000       0x48 board/Realtek/rtl9300/librtl9300.o
 .text.phy_826x_macIntfSerdesMode_get
                0x0000000000000000      0x260 board/Realtek/rtl9300/librtl9300.o
 .text.phy_826x_macIntfSerdesLinkStatus_get
                0x0000000000000000       0xd8 board/Realtek/rtl9300/librtl9300.o
 .text.phy_826x_sdsTestModeCnt_get
                0x0000000000000000      0x158 board/Realtek/rtl9300/librtl9300.o
 .text._phy_826x_rtct_cable_set
                0x0000000000000000      0x840 board/Realtek/rtl9300/librtl9300.o
 .text._phy_826x_rtctStatus_convert
                0x0000000000000000       0x78 board/Realtek/rtl9300/librtl9300.o
 .text.phy_826x_rtctResult_get
                0x0000000000000000      0x2c8 board/Realtek/rtl9300/librtl9300.o
 .text._phy_826x_serdes_mode_usxgmii_set
                0x0000000000000000      0x17c board/Realtek/rtl9300/librtl9300.o
 .text._phy_826x_serdes_mode_10gr_set
                0x0000000000000000      0x170 board/Realtek/rtl9300/librtl9300.o
 .text._phy_826x_serdes_mode_5gx_set
                0x0000000000000000      0x1cc board/Realtek/rtl9300/librtl9300.o
 .text._phy_826x_serdes_mode_5gr_set
                0x0000000000000000      0x1d0 board/Realtek/rtl9300/librtl9300.o
 .text._phy_826x_serdes_mode_xfi_5g_adapt_set
                0x0000000000000000      0x1c0 board/Realtek/rtl9300/librtl9300.o
 .text._phy_826x_serdes_mode_xfi_5g_cpri_set
                0x0000000000000000      0x1cc board/Realtek/rtl9300/librtl9300.o
 .text._phy_826x_serdes_mode_5g_off_set
                0x0000000000000000       0xcc board/Realtek/rtl9300/librtl9300.o
 .text._phy_826x_serdes_mode_2p5gx_set
                0x0000000000000000      0x1cc board/Realtek/rtl9300/librtl9300.o
 .text._phy_826x_serdes_mode_xfi_2p5g_adapt_set
                0x0000000000000000      0x1c0 board/Realtek/rtl9300/librtl9300.o
 .text._phy_826x_serdes_mode_sgmii_set
                0x0000000000000000      0x170 board/Realtek/rtl9300/librtl9300.o
 .text._phy_826x_serdes_mode_set
                0x0000000000000000      0x158 board/Realtek/rtl9300/librtl9300.o
 .text._phy_826x_serdes_mode_get
                0x0000000000000000       0x3c board/Realtek/rtl9300/librtl9300.o
 .text._phy_826x_serdes_mode_update
                0x0000000000000000      0x16c board/Realtek/rtl9300/librtl9300.o
 .text._phy_826x_debug_dump_addr_get
                0x0000000000000000       0x78 board/Realtek/rtl9300/librtl9300.o
 .text._phy_826x_debug_dump_field_get
                0x0000000000000000       0x3c board/Realtek/rtl9300/librtl9300.o
 .text._phy_826x_debug_dump_field_set
                0x0000000000000000       0x48 board/Realtek/rtl9300/librtl9300.o
 .text._phy_826x_debug_dump_mmd_set
                0x0000000000000000       0xa4 board/Realtek/rtl9300/librtl9300.o
 .text._phy_826x_debug_dump_mmd_get
                0x0000000000000000       0x74 board/Realtek/rtl9300/librtl9300.o
 .text._phy_826x_debug_dump_set
                0x0000000000000000       0xb4 board/Realtek/rtl9300/librtl9300.o
 .text._phy_826x_debug_dump_get
                0x0000000000000000       0xa0 board/Realtek/rtl9300/librtl9300.o
 .text._phy_826x_debug_dump_u2sr_get
                0x0000000000000000       0xb4 board/Realtek/rtl9300/librtl9300.o
 .text._phy_826x_debug_dump_dsp_init
                0x0000000000000000      0x29c board/Realtek/rtl9300/librtl9300.o
 .text._phy_826x_debug_dump_s_sel_get
                0x0000000000000000       0x4c board/Realtek/rtl9300/librtl9300.o
 .text._phy_826x_debug_dump_dsp
                0x0000000000000000     0x4474 board/Realtek/rtl9300/librtl9300.o
 .text._phy_826x_debug_coupling_dump
                0x0000000000000000      0x790 board/Realtek/rtl9300/librtl9300.o
 .text._phy_826x_PRBS_TGR_set
                0x0000000000000000      0x10c board/Realtek/rtl9300/librtl9300.o
 .text._phy_826x_PRBS_set
                0x0000000000000000      0x154 board/Realtek/rtl9300/librtl9300.o
 .text.phy_826x_sdsTestMode_set
                0x0000000000000000       0xac board/Realtek/rtl9300/librtl9300.o
 .text._phy_826x_preemphasis_set
                0x0000000000000000      0x13c board/Realtek/rtl9300/librtl9300.o
 .text.phy_826x_sdsEyeParam_set
                0x0000000000000000       0x80 board/Realtek/rtl9300/librtl9300.o
 .text._phy_826x_preemphasis_get
                0x0000000000000000       0xec board/Realtek/rtl9300/librtl9300.o
 .text.phy_826x_sdsEyeParam_get
                0x0000000000000000       0x78 board/Realtek/rtl9300/librtl9300.o
 .text._phy_826x_led_mode_set
                0x0000000000000000      0x160 board/Realtek/rtl9300/librtl9300.o
 .text._phy_826x_led_mode_get
                0x0000000000000000      0x130 board/Realtek/rtl9300/librtl9300.o
 .text._phy_826x_led_config_flash_rate_set
                0x0000000000000000       0xc0 board/Realtek/rtl9300/librtl9300.o
 .text._phy_826x_led_config_flash_rate_get
                0x0000000000000000       0x6c board/Realtek/rtl9300/librtl9300.o
 .text._phy_826x_led_config_blink_rate_set
                0x0000000000000000       0xc0 board/Realtek/rtl9300/librtl9300.o
 .text._phy_826x_led_config_blink_rate_get
                0x0000000000000000       0x6c board/Realtek/rtl9300/librtl9300.o
 .text._phy_826x_led_config_active_low_set
                0x0000000000000000       0xa8 board/Realtek/rtl9300/librtl9300.o
 .text._phy_826x_led_config_active_low_get
                0x0000000000000000       0x6c board/Realtek/rtl9300/librtl9300.o
 .text._phy_826x_led_config_force_set
                0x0000000000000000      0x158 board/Realtek/rtl9300/librtl9300.o
 .text._phy_826x_led_config_force_get
                0x0000000000000000       0xf4 board/Realtek/rtl9300/librtl9300.o
 .text._phy_826x_loopback_remote_set
                0x0000000000000000      0x4f0 board/Realtek/rtl9300/librtl9300.o
 .text._phy_826x_serdes_loopback_set
                0x0000000000000000      0x170 board/Realtek/rtl9300/librtl9300.o
 .text._phy_826x_serdes_loopback_get
                0x0000000000000000       0xd4 board/Realtek/rtl9300/librtl9300.o
 .text.phy_826x_ctrl_get
                0x0000000000000000      0x528 board/Realtek/rtl9300/librtl9300.o
 .text.phy_826x_broadcastEnable_set
                0x0000000000000000       0x7c board/Realtek/rtl9300/librtl9300.o
 .text.phy_826x_broadcastID_set
                0x0000000000000000       0x90 board/Realtek/rtl9300/librtl9300.o
 .text.phy_826x_ctrl_set
                0x0000000000000000      0xa00 board/Realtek/rtl9300/librtl9300.o
 .text._phy_826x_dbgCount_init
                0x0000000000000000      0x10c board/Realtek/rtl9300/librtl9300.o
 .text._phy_826x_interrupt_init
                0x0000000000000000      0x1ac board/Realtek/rtl9300/librtl9300.o
 .text.phy_826x_init
                0x0000000000000000      0x100 board/Realtek/rtl9300/librtl9300.o
 .text._phy_826x_reinit
                0x0000000000000000       0xd8 board/Realtek/rtl9300/librtl9300.o
 .text.phy_826x_speed_set
                0x0000000000000000       0xe4 board/Realtek/rtl9300/librtl9300.o
 .text._phy_826x_eyeMon_scan_en
                0x0000000000000000       0xcc board/Realtek/rtl9300/librtl9300.o
 .text._phy_826x_eyeMon_pi_set
                0x0000000000000000       0x88 board/Realtek/rtl9300/librtl9300.o
 .text._phy_826x_eyeMon_ref_set
                0x0000000000000000       0x88 board/Realtek/rtl9300/librtl9300.o
 .text._phy_826x_eyeMon_DBGOUT
                0x0000000000000000       0xac board/Realtek/rtl9300/librtl9300.o
 .text._phy_826x_eyeMon_MDIOCLK
                0x0000000000000000       0xd0 board/Realtek/rtl9300/librtl9300.o
 .text._phy_826x_eyeMon_readOut
                0x0000000000000000       0x24 board/Realtek/rtl9300/librtl9300.o
 .text._phy_826x_eyeMon_eyePointRead
                0x0000000000000000       0xbc board/Realtek/rtl9300/librtl9300.o
 .text._phy_826x_eyeMon_proc
                0x0000000000000000      0x170 board/Realtek/rtl9300/librtl9300.o
 .text.phy_826x_eyeMonitor_start
                0x0000000000000000      0x13c board/Realtek/rtl9300/librtl9300.o
 .text.phy_826x_eyeMonitorInfo_get
                0x0000000000000000      0x1e8 board/Realtek/rtl9300/librtl9300.o
 .text.phy_826Xdrv_mapperInit
                0x0000000000000000      0x2d0 board/Realtek/rtl9300/librtl9300.o
 .text.phy_825XLdrv_mapperInit
                0x0000000000000000      0x2e8 board/Realtek/rtl9300/librtl9300.o
 .text._phy_rtl826x_patch_mask
                0x0000000000000000       0x34 board/Realtek/rtl9300/librtl9300.o
 .text._phy_rtl826x_patch_mask_get
                0x0000000000000000       0x5c board/Realtek/rtl9300/librtl9300.o
 .text._phy_rtl826x_patch_wait
                0x0000000000000000      0x2c4 board/Realtek/rtl9300/librtl9300.o
 .text._phy_rtl826x_patch_wait_not_equal
                0x0000000000000000      0x2c4 board/Realtek/rtl9300/librtl9300.o
 .text._phy_rtl826x_patch_top_get
                0x0000000000000000       0x44 board/Realtek/rtl9300/librtl9300.o
 .text._phy_rtl826x_patch_top_set
                0x0000000000000000       0x18 board/Realtek/rtl9300/librtl9300.o
 .text._phy_rtl826x_patch_sds_get
                0x0000000000000000       0xb0 board/Realtek/rtl9300/librtl9300.o
 .text._phy_rtl826x_patch_sds_set
                0x0000000000000000       0xb4 board/Realtek/rtl9300/librtl9300.o
 .text._phy_rtl826x_patch_sds_bcast_set
                0x0000000000000000       0xb8 board/Realtek/rtl9300/librtl9300.o
 .text._phy_rtl826x_patch_data_ram_write
                0x0000000000000000       0xcc board/Realtek/rtl9300/librtl9300.o
 .text.phy_rtl826x_patch_process_op
                0x0000000000000000      0x354 board/Realtek/rtl9300/librtl9300.o
 .text.phy_rtl826x_patch_op
                0x0000000000000000       0x5c board/Realtek/rtl9300/librtl9300.o
 .text._phy_rtl826x_patch_process
                0x0000000000000000       0xe8 board/Realtek/rtl9300/librtl9300.o
 .text._phy_rtl826x_patch
                0x0000000000000000      0x4c4 board/Realtek/rtl9300/librtl9300.o
 .text.phy_rtl826x_patch
                0x0000000000000000       0x64 board/Realtek/rtl9300/librtl9300.o
 .text.phy_rtl826x_broadcast_patch
                0x0000000000000000       0x6c board/Realtek/rtl9300/librtl9300.o
 .text.phy_rtl826xI_broadcast_patch
                0x0000000000000000       0x14 board/Realtek/rtl9300/librtl9300.o
 .text.sub_phy_8214c_patch_set
                0x0000000000000000       0xac board/Realtek/rtl9300/librtl9300.o
 .text.phy_8224_ptp_portRefTime_set
                0x0000000000000000      0x23c board/Realtek/rtl9300/librtl9300.o
 .text.phy_8224_ptp_portRefTime_get
                0x0000000000000000      0x250 board/Realtek/rtl9300/librtl9300.o
 .text.phy_8224_ptp_portRefTimeAdjust_set
                0x0000000000000000      0x230 board/Realtek/rtl9300/librtl9300.o
 .text.phy_8224_ptp_portRefTimeFreq_set
                0x0000000000000000      0x16c board/Realtek/rtl9300/librtl9300.o
 .text.phy_8224_ptp_portRefTimeFreq_get
                0x0000000000000000      0x11c board/Realtek/rtl9300/librtl9300.o
 .text.phy_8224_ptp_portPtpEnable_set
                0x0000000000000000      0x108 board/Realtek/rtl9300/librtl9300.o
 .text.phy_8224_ptp_portPtpEnable_get
                0x0000000000000000      0x144 board/Realtek/rtl9300/librtl9300.o
 .text.phy_8224_ptp_portPtpTxInterruptStatus_get
                0x0000000000000000       0x48 board/Realtek/rtl9300/librtl9300.o
 .text.phy_8224_ptp_portPtpInterruptEnable_set
                0x0000000000000000       0x30 board/Realtek/rtl9300/librtl9300.o
 .text.phy_8224_ptp_portPtpInterruptEnable_get
                0x0000000000000000       0x50 board/Realtek/rtl9300/librtl9300.o
 .text.phy_8224_ptp_portPtpVlanTpid_set
                0x0000000000000000       0xb4 board/Realtek/rtl9300/librtl9300.o
 .text.phy_8224_ptp_portPtpVlanTpid_get
                0x0000000000000000       0xd8 board/Realtek/rtl9300/librtl9300.o
 .text.phy_8224_ptp_portPtpOper_set
                0x0000000000000000      0x114 board/Realtek/rtl9300/librtl9300.o
 .text.phy_8224_ptp_portPtpOper_get
                0x0000000000000000      0x134 board/Realtek/rtl9300/librtl9300.o
 .text.phy_8224_ptp_portPtpLatchTime_get
                0x0000000000000000      0x150 board/Realtek/rtl9300/librtl9300.o
 .text.phy_8224_ptp_ptpTxTimestampFifo_get
                0x0000000000000000      0x264 board/Realtek/rtl9300/librtl9300.o
 .text.phy_8224_ptp_ptp1PPSOutput_set
                0x0000000000000000       0x90 board/Realtek/rtl9300/librtl9300.o
 .text.phy_8224_ptp_ptp1PPSOutput_get
                0x0000000000000000       0xb0 board/Realtek/rtl9300/librtl9300.o
 .text.phy_8224_ptp_ptpClockOutput_set
                0x0000000000000000      0x1d8 board/Realtek/rtl9300/librtl9300.o
 .text.phy_8224_ptp_ptpClockOutput_get
                0x0000000000000000      0x26c board/Realtek/rtl9300/librtl9300.o
 .text.phy_8224_ptp_portPtpLinkDelay_set
                0x0000000000000000       0xdc board/Realtek/rtl9300/librtl9300.o
 .text.phy_8224_ptp_portPtpLinkDelay_get
                0x0000000000000000       0xfc board/Realtek/rtl9300/librtl9300.o
 .text.phy_8224_ptp_portPtpOutputSigSel_set
                0x0000000000000000       0xbc board/Realtek/rtl9300/librtl9300.o
 .text.phy_8224_ptp_portPtpOutputSigSel_get
                0x0000000000000000       0xb4 board/Realtek/rtl9300/librtl9300.o
 .text.phy_rtl8224_broadcast_patch
                0x0000000000000000       0x24 board/Realtek/rtl9300/librtl9300.o
 .text._phy_8295_ptpSXP0RegNPageReg_get
                0x0000000000000000      0x55c board/Realtek/rtl9300/librtl9300.o
 .text._phy_8295_PtpSXP0RegN_read
                0x0000000000000000       0xd8 board/Realtek/rtl9300/librtl9300.o
 .text._phy_8295_PtpSXP0RegN_write
                0x0000000000000000       0xe4 board/Realtek/rtl9300/librtl9300.o
 .text._phy_8295_serdesMode_get
                0x0000000000000000       0xbc board/Realtek/rtl9300/librtl9300.o
 .text.phy_8295_8214_ptpSwitchMacAddr_get
                0x0000000000000000      0x194 board/Realtek/rtl9300/librtl9300.o
 .text.phy_8295_8214_ptpSwitchMacAddr_set
                0x0000000000000000      0x1a0 board/Realtek/rtl9300/librtl9300.o
 .text.phy_8295_8214_ptpRefTime_get
                0x0000000000000000      0x3cc board/Realtek/rtl9300/librtl9300.o
 .text.phy_8295_8214_ptpRefTime_set
                0x0000000000000000      0x380 board/Realtek/rtl9300/librtl9300.o
 .text.phy_8295_8214_ptpRefTimeAdjust_set
                0x0000000000000000      0x390 board/Realtek/rtl9300/librtl9300.o
 .text.phy_8295_8214_ptpRefTimeEnable_get
                0x0000000000000000      0x120 board/Realtek/rtl9300/librtl9300.o
 .text.phy_8295_8214_ptpRefTimeEnable_set
                0x0000000000000000      0x17c board/Realtek/rtl9300/librtl9300.o
 .text.phy_8214qf_ptpEnable_get
                0x0000000000000000      0x10c board/Realtek/rtl9300/librtl9300.o
 .text.phy_8214qf_ptpEnable_set
                0x0000000000000000      0x164 board/Realtek/rtl9300/librtl9300.o
 .text.phy_8214qf_ptpRxTimestamp_get
                0x0000000000000000      0x434 board/Realtek/rtl9300/librtl9300.o
 .text.phy_8214qf_ptpTxTimestamp_get
                0x0000000000000000      0x3fc board/Realtek/rtl9300/librtl9300.o
 .text.phy_8295_8214_ptpRefTimeFreq_get
                0x0000000000000000      0x138 board/Realtek/rtl9300/librtl9300.o
 .text.phy_8295_8214_ptpRefTimeFreq_set
                0x0000000000000000      0x118 board/Realtek/rtl9300/librtl9300.o
 .text.phy_8214qf_ptpInterruptStatus_get
                0x0000000000000000      0x1e0 board/Realtek/rtl9300/librtl9300.o
 .text.phy_8295_8214_ptpInterruptEnable_get
                0x0000000000000000       0xe0 board/Realtek/rtl9300/librtl9300.o
 .text.phy_8295_8214_ptpInterruptEnable_set
                0x0000000000000000      0x138 board/Realtek/rtl9300/librtl9300.o
 .text._phy_8295_8214_ptpIgrTpidPageReg_get
                0x0000000000000000       0xc0 board/Realtek/rtl9300/librtl9300.o
 .text.phy_8295_8214_ptpIgrTpid_get
                0x0000000000000000      0x100 board/Realtek/rtl9300/librtl9300.o
 .text.phy_8295_8214_ptpIgrTpid_set
                0x0000000000000000       0xfc board/Realtek/rtl9300/librtl9300.o
 .text.phy_8295_8214_ptpSwitchMacRange_get
                0x0000000000000000       0xd8 board/Realtek/rtl9300/librtl9300.o
 .text.phy_8295_8214_ptpSwitchMacRange_set
                0x0000000000000000      0x13c board/Realtek/rtl9300/librtl9300.o
 .text.phy_8214qf_fiberRx_check
                0x0000000000000000      0x4b4 board/Realtek/rtl9300/librtl9300.o
 .text.phy_82x4qf_sdsSgmiiStatus_get
                0x0000000000000000      0x1c4 board/Realtek/rtl9300/librtl9300.o
 .text.phy_8295_8214_sdsTestMode_set
                0x0000000000000000      0x1f8 board/Realtek/rtl9300/librtl9300.o
 .text.phy_8295_8214_sdsTestModeCnt_get
                0x0000000000000000       0xb4 board/Realtek/rtl9300/librtl9300.o
 .text.phy_8295r_portEyeMonitor_start
                0x0000000000000000        0x8 board/Realtek/rtl9300/librtl9300.o
 .text.phy_8214qf_macIntfSdsRxCali_start
                0x0000000000000000       0x54 board/Realtek/rtl9300/librtl9300.o
 .text.phy_8295_diag_set
                0x0000000000000000      0x300 board/Realtek/rtl9300/librtl9300.o
 .text._phy_8295_s0s1Diag_dump
                0x0000000000000000       0xec board/Realtek/rtl9300/librtl9300.o
 .text._phy_8214qf_diag_dump
                0x0000000000000000       0x78 board/Realtek/rtl9300/librtl9300.o
 .text._phy_8295_patch_bT_servo
                0x0000000000000000      0x3ec board/Realtek/rtl9300/librtl9300.o
 .text._phy_8295_patch_bT_init_sfp
                0x0000000000000000      0x750 board/Realtek/rtl9300/librtl9300.o
 .text._phy_8295_rxCali_a_servo
                0x0000000000000000      0x3e8 board/Realtek/rtl9300/librtl9300.o
 .text.phy_8295_patch_debugEnable_set
                0x0000000000000000       0x2c board/Realtek/rtl9300/librtl9300.o
 .text.phy_9300_linkChange_process
                0x0000000000000000      0x168 board/Realtek/rtl9300/librtl9300.o
 .text.drv_reg_fieled_set
                0x0000000000000000       0xc0 board/Realtek/rtl9300/librtl9300.o
 .text.drv_rtl9300_sdsCmuPage_get
                0x0000000000000000       0xcc board/Realtek/rtl9300/librtl9300.o
 .text.dal_longan_port_linkDownPowerSavingEnable_get
                0x0000000000000000      0x134 board/Realtek/rtl9300/librtl9300.o
 .text.dal_longan_port_linkDownPowerSavingEnable_set
                0x0000000000000000      0x134 board/Realtek/rtl9300/librtl9300.o
 .text._dal_longan_port_macForceMode_set
                0x0000000000000000      0x260 board/Realtek/rtl9300/librtl9300.o
 .text._dal_longan_port_swMacPollPhyEnable_get
                0x0000000000000000        0xc board/Realtek/rtl9300/librtl9300.o
 .text._dal_longan_port_swMacPollPhy
                0x0000000000000000       0xe8 board/Realtek/rtl9300/librtl9300.o
 .text._dal_longan_port_swChgSerdesModeEnable_get
                0x0000000000000000        0xc board/Realtek/rtl9300/librtl9300.o
 .text._dal_longan_port_swChgSerdesMode
                0x0000000000000000       0xe8 board/Realtek/rtl9300/librtl9300.o
 .text.dal_longan_port_init_check
                0x0000000000000000       0x28 board/Realtek/rtl9300/librtl9300.o
 .text._dal_longan_l2_nexthop_add
                0x0000000000000000      0x2b8 board/Realtek/rtl9300/librtl9300.o
 .text._dal_longan_l2_nexthop_del
                0x0000000000000000      0x264 board/Realtek/rtl9300/librtl9300.o
 .text._dal_longan_l2_mcastNexthop_add
                0x0000000000000000      0x30c board/Realtek/rtl9300/librtl9300.o
 .text._dal_longan_l2_mcastNexthop_del
                0x0000000000000000      0x21c board/Realtek/rtl9300/librtl9300.o
 .text.dal_longan_flowctrl_portPauseOnAllowedPageNum_set
                0x0000000000000000      0x178 board/Realtek/rtl9300/librtl9300.o
 .text.dal_longan_flowctrl_portIgrPortThreshGroupSel_set
                0x0000000000000000      0x178 board/Realtek/rtl9300/librtl9300.o
 .text.dal_longan_flowctrl_portEgrDropThreshGroupSel_set
                0x0000000000000000      0x18c board/Realtek/rtl9300/librtl9300.o
 .text.dal_longan_flowctrl_portE2eRemotePortThreshGroupSel_set
                0x0000000000000000      0x18c board/Realtek/rtl9300/librtl9300.o
 .text.dal_longan_flowctrl_halfConsecutiveRetryEnable_get
                0x0000000000000000      0x108 board/Realtek/rtl9300/librtl9300.o
 .text.dal_longan_flowctrl_jumboModeLength_set
                0x0000000000000000      0x118 board/Realtek/rtl9300/librtl9300.o
 .text.dal_longan_flowctrl_igrSystemPauseThresh_set
                0x0000000000000000      0x2e0 board/Realtek/rtl9300/librtl9300.o
 .text.dal_longan_flowctrl_igrJumboSystemPauseThresh_set
                0x0000000000000000      0x2e0 board/Realtek/rtl9300/librtl9300.o
 .text.dal_longan_flowctrl_igrSystemCongestThresh_set
                0x0000000000000000      0x2e0 board/Realtek/rtl9300/librtl9300.o
 .text.dal_longan_flowctrl_igrJumboSystemCongestThresh_set
                0x0000000000000000      0x2e0 board/Realtek/rtl9300/librtl9300.o
 .text.dal_longan_flowctrl_portPauseOnAction_get
                0x0000000000000000      0x17c board/Realtek/rtl9300/librtl9300.o
 .text.dal_longan_flowctrl_portPauseOnAllowedPageNum_get
                0x0000000000000000      0x158 board/Realtek/rtl9300/librtl9300.o
 .text.dal_longan_flowctrl_igrPauseThreshGroup_get
                0x0000000000000000      0x230 board/Realtek/rtl9300/librtl9300.o
 .text.dal_longan_flowctrl_portIgrPortThreshGroupSel_get
                0x0000000000000000      0x158 board/Realtek/rtl9300/librtl9300.o
 .text.dal_longan_flowctrl_igrCongestThreshGroup_get
                0x0000000000000000      0x204 board/Realtek/rtl9300/librtl9300.o
 .text.dal_longan_flowctrl_egrCpuQueueDropThresh_get
                0x0000000000000000      0x1a4 board/Realtek/rtl9300/librtl9300.o
 .text.dal_longan_flowctrl_portEgrDropRefCongestEnable_get
                0x0000000000000000      0x17c board/Realtek/rtl9300/librtl9300.o
 .text.dal_longan_flowctrl_egrQueueDropThreshGroup_get
                0x0000000000000000      0x1c0 board/Realtek/rtl9300/librtl9300.o
 .text.dal_longan_flowctrl_egrQueueDropThresh_get
                0x0000000000000000       0x18 board/Realtek/rtl9300/librtl9300.o
 .text.dal_longan_flowctrl_portEgrDropThreshGroupSel_get
                0x0000000000000000      0x16c board/Realtek/rtl9300/librtl9300.o
 .text.dal_longan_flowctrl_portEgrQueueDropForceEnable_get
                0x0000000000000000      0x294 board/Realtek/rtl9300/librtl9300.o
 .text.dal_longan_flowctrl_portHolTrafficDropEnable_get
                0x0000000000000000      0x17c board/Realtek/rtl9300/librtl9300.o
 .text.dal_longan_flowctrl_e2eRemotePortPauseThreshGroup_get
                0x0000000000000000      0x19c board/Realtek/rtl9300/librtl9300.o
 .text.dal_longan_flowctrl_e2eRemotePortCongestThreshGroup_get
                0x0000000000000000      0x19c board/Realtek/rtl9300/librtl9300.o
 .text.dal_longan_flowctrl_portE2eRemotePortThreshGroupSel_get
                0x0000000000000000      0x16c board/Realtek/rtl9300/librtl9300.o
 .text.dal_longan_flowctrl_portPauseOnAction_set
                0x0000000000000000      0x160 board/Realtek/rtl9300/librtl9300.o
 .text.dal_longan_flowctrl_igrPauseThreshGroup_set
                0x0000000000000000      0x298 board/Realtek/rtl9300/librtl9300.o
 .text.dal_longan_flowctrl_igrCongestThreshGroup_set
                0x0000000000000000      0x264 board/Realtek/rtl9300/librtl9300.o
 .text.dal_longan_flowctrl_egrCpuQueueDropThresh_set
                0x0000000000000000      0x1c8 board/Realtek/rtl9300/librtl9300.o
 .text.dal_longan_flowctrl_portEgrDropRefCongestEnable_set
                0x0000000000000000      0x160 board/Realtek/rtl9300/librtl9300.o
 .text.dal_longan_flowctrl_egrQueueDropThreshGroup_set
                0x0000000000000000      0x1e4 board/Realtek/rtl9300/librtl9300.o
 .text.dal_longan_flowctrl_egrQueueDropThresh_set
                0x0000000000000000       0x74 board/Realtek/rtl9300/librtl9300.o
 .text.dal_longan_flowctrl_portEgrQueueDropForceEnable_set
                0x0000000000000000      0x27c board/Realtek/rtl9300/librtl9300.o
 .text.dal_longan_flowctrl_portHolTrafficDropEnable_set
                0x0000000000000000      0x160 board/Realtek/rtl9300/librtl9300.o
 .text.dal_longan_flowctrl_e2eRemotePortPauseThreshGroup_set
                0x0000000000000000      0x1c8 board/Realtek/rtl9300/librtl9300.o
 .text.dal_longan_flowctrl_e2eRemotePortCongestThreshGroup_set
                0x0000000000000000      0x1c8 board/Realtek/rtl9300/librtl9300.o
 .text.dal_longan_flowctrl_igrGuarEnable_get
                0x0000000000000000      0x108 board/Realtek/rtl9300/librtl9300.o
 .text.dal_longan_flowctrl_igrSystemPauseThresh_get
                0x0000000000000000      0x188 board/Realtek/rtl9300/librtl9300.o
 .text.dal_longan_flowctrl_igrJumboSystemPauseThresh_get
                0x0000000000000000      0x188 board/Realtek/rtl9300/librtl9300.o
 .text.dal_longan_flowctrl_igrSystemCongestThresh_get
                0x0000000000000000      0x188 board/Realtek/rtl9300/librtl9300.o
 .text.dal_longan_flowctrl_igrJumboSystemCongestThresh_get
                0x0000000000000000      0x188 board/Realtek/rtl9300/librtl9300.o
 .text.dal_longan_flowctrl_jumboModeStatus_get
                0x0000000000000000       0xfc board/Realtek/rtl9300/librtl9300.o
 .text.dal_longan_flowctrl_jumboModeEnable_get
                0x0000000000000000      0x108 board/Realtek/rtl9300/librtl9300.o
 .text.dal_longan_flowctrl_jumboModeLength_get
                0x0000000000000000       0xfc board/Realtek/rtl9300/librtl9300.o
 .text.dal_longan_flowctrl_egrSystemUtilThresh_get
                0x0000000000000000       0xfc board/Realtek/rtl9300/librtl9300.o
 .text.dal_longan_flowctrl_egrSystemDropThresh_get
                0x0000000000000000      0x100 board/Realtek/rtl9300/librtl9300.o
 .text.dal_longan_flowctrl_holTrafficTypeDropEnable_get
                0x0000000000000000      0x160 board/Realtek/rtl9300/librtl9300.o
 .text.dal_longan_flowctrl_e2eCascadePortThresh_get
                0x0000000000000000      0x148 board/Realtek/rtl9300/librtl9300.o
 .text.dal_longan_flowctrl_igrGuarEnable_set
                0x0000000000000000      0x100 board/Realtek/rtl9300/librtl9300.o
 .text.dal_longan_flowctrl_jumboModeEnable_set
                0x0000000000000000      0x100 board/Realtek/rtl9300/librtl9300.o
 .text.dal_longan_flowctrl_egrSystemUtilThresh_set
                0x0000000000000000      0x134 board/Realtek/rtl9300/librtl9300.o
 .text.dal_longan_flowctrl_egrSystemDropThresh_set
                0x0000000000000000      0x134 board/Realtek/rtl9300/librtl9300.o
 .text.dal_longan_flowctrl_holTrafficTypeDropEnable_set
                0x0000000000000000      0x144 board/Realtek/rtl9300/librtl9300.o
 .text.dal_longan_flowctrl_e2eCascadePortThresh_set
                0x0000000000000000      0x190 board/Realtek/rtl9300/librtl9300.o
 .text.dal_longan_flowctrl_halfConsecutiveRetryEnable_set
                0x0000000000000000      0x108 board/Realtek/rtl9300/librtl9300.o
 .text.dal_longan_flowctrlMapper_init
                0x0000000000000000      0x2a8 board/Realtek/rtl9300/librtl9300.o
 .text.dal_longan_trunk_mon_register
                0x0000000000000000       0x6c board/Realtek/rtl9300/librtl9300.o
 .text.dal_longan_eee_portEnable_get
                0x0000000000000000      0x104 board/Realtek/rtl9300/librtl9300.o
 .text.dal_longan_eee_portPowerState_get
                0x0000000000000000      0x18c board/Realtek/rtl9300/librtl9300.o
 .text.dal_longan_eee_portState_get
                0x0000000000000000      0x118 board/Realtek/rtl9300/librtl9300.o
 .text.dal_longan_eeeMapper_init
                0x0000000000000000       0x44 board/Realtek/rtl9300/librtl9300.o
 .text.dal_longan_sds_rxCaliConf_get
                0x0000000000000000       0xec board/Realtek/rtl9300/librtl9300.o
 .text._dal_longan_sds_rxCali_Vth_Manual.part.17
                0x0000000000000000       0xac board/Realtek/rtl9300/librtl9300.o
 .text.dal_longan_sds_eyeParam_get
                0x0000000000000000      0x834 board/Realtek/rtl9300/librtl9300.o
 .text.dal_longan_sds_loopback_get
                0x0000000000000000      0x1f4 board/Realtek/rtl9300/librtl9300.o
 .text.dal_longan_sds_ctrl_get
                0x0000000000000000      0x17c board/Realtek/rtl9300/librtl9300.o
 .text.dal_longan_sds_cmuBand_get
                0x0000000000000000      0x24c board/Realtek/rtl9300/librtl9300.o
 .text.dal_longan_sds_cmuBand_set
                0x0000000000000000      0x214 board/Realtek/rtl9300/librtl9300.o
 .text.dal_longan_sds_ctrl_set
                0x0000000000000000      0x140 board/Realtek/rtl9300/librtl9300.o
 .text.dal_longan_sds_xsgNwayEn_set
                0x0000000000000000      0x134 board/Realtek/rtl9300/librtl9300.o
 .text._dal_longan_sds_txParam_config_save
                0x0000000000000000      0x1b8 board/Realtek/rtl9300/librtl9300.o
 .text.dal_longan_sds_eyeParam_set
                0x0000000000000000      0x8c0 board/Realtek/rtl9300/librtl9300.o
 .text.dal_longan_sds_10gEyeParam_load
                0x0000000000000000      0x244 board/Realtek/rtl9300/librtl9300.o
 .text.dal_longan_sds_testMode_set
                0x0000000000000000      0x6e8 board/Realtek/rtl9300/librtl9300.o
 .text._dal_longan_sds_rxCali_Vth_Manual
                0x0000000000000000       0x44 board/Realtek/rtl9300/librtl9300.o
 .text._dal_longan_sds_rxCali_Vth_Read
                0x0000000000000000      0x1ec board/Realtek/rtl9300/librtl9300.o
 .text._dal_longan_sds_rxCali_TAP_Manual
                0x0000000000000000       0x50 board/Realtek/rtl9300/librtl9300.o
 .text._dal_longan_sds_rxCali_TAP_Read
                0x0000000000000000      0x498 board/Realtek/rtl9300/librtl9300.o
 .text._dal_longan_sds_rxCali_a_start_1d2d4
                0x0000000000000000      0x114 board/Realtek/rtl9300/librtl9300.o
 .text._dal_longan_sds_rxCali_a_start_1d2d5
                0x0000000000000000        0x8 board/Realtek/rtl9300/librtl9300.o
 .text.dal_longan_sds_leq_adapt
                0x0000000000000000      0x198 board/Realtek/rtl9300/librtl9300.o
 .text._dal_longan_sds_rxCali_a_start_1d4d1
                0x0000000000000000       0xb8 board/Realtek/rtl9300/librtl9300.o
 .text._dal_longan_sds_rxCali_a_start_1d4d2
                0x0000000000000000       0xe0 board/Realtek/rtl9300/librtl9300.o
 .text._dal_longan_sds_rxCali_a_start_1d4
                0x0000000000000000       0x40 board/Realtek/rtl9300/librtl9300.o
 .text.dal_longan_sds_rxCaliStatus_get
                0x0000000000000000      0x12c board/Realtek/rtl9300/librtl9300.o
 .text.dal_longan_sds_rxCaliEnable_get
                0x0000000000000000      0x12c board/Realtek/rtl9300/librtl9300.o
 .text.dal_longan_sds_rxCaliEnable_set
                0x0000000000000000      0x140 board/Realtek/rtl9300/librtl9300.o
 .text.dal_longan_sds_loopback_set
                0x0000000000000000      0x208 board/Realtek/rtl9300/librtl9300.o
 .text.dal_longan_sds_rxCali_debugEnable_set
                0x0000000000000000       0x20 board/Realtek/rtl9300/librtl9300.o
 .text._dal_longan_sds_eye_scan_enable
                0x0000000000000000      0x1ac board/Realtek/rtl9300/librtl9300.o
 .text._dal_longan_sds_eye_pi_set
                0x0000000000000000      0x108 board/Realtek/rtl9300/librtl9300.o
 .text._dal_longan_sds_eye_ref_set
                0x0000000000000000       0x30 board/Realtek/rtl9300/librtl9300.o
 .text._dal_longan_sds_eye_dbgOut
                0x0000000000000000       0x40 board/Realtek/rtl9300/librtl9300.o
 .text._dal_longan_sds_eye_mdio_clk
                0x0000000000000000       0x70 board/Realtek/rtl9300/librtl9300.o
 .text._dal_longan_sds_eye_pointRead
                0x0000000000000000       0x5c board/Realtek/rtl9300/librtl9300.o
 .text.dal_longan_sds_eyeMonitor_start
                0x0000000000000000      0x2e8 board/Realtek/rtl9300/librtl9300.o
 .text.dal_longan_sdsMapper_init
                0x0000000000000000      0x11c board/Realtek/rtl9300/librtl9300.o
 .rodata.__FUNCTION__.3676
                0x0000000000000000       0x18 board/Realtek/rtl9300/librtl9300.o
 .rodata.crc_table
                0x0000000000000000      0x400 board/Realtek/rtl9300/librtl9300.o
 .rodata.__FUNCTION__.7416
                0x0000000000000000       0x14 board/Realtek/rtl9300/librtl9300.o
 .rodata.phy_826x_macIntfSerdesMode_get
                0x0000000000000000       0x28 board/Realtek/rtl9300/librtl9300.o
 .rodata._phy_826x_serdes_mode_update
                0x0000000000000000       0x50 board/Realtek/rtl9300/librtl9300.o
 .rodata._phy_826x_debug_dump_dsp_init
                0x0000000000000000       0x3c board/Realtek/rtl9300/librtl9300.o
 .rodata._phy_826x_debug_dump_dsp
                0x0000000000000000       0xbc board/Realtek/rtl9300/librtl9300.o
 .rodata._phy_826x_PRBS_TGR_set
                0x0000000000000000       0x1c board/Realtek/rtl9300/librtl9300.o
 .rodata._phy_826x_PRBS_set
                0x0000000000000000       0x14 board/Realtek/rtl9300/librtl9300.o
 .rodata._phy_826x_led_config_force_set
                0x0000000000000000       0x14 board/Realtek/rtl9300/librtl9300.o
 .rodata.phy_826x_ctrl_get
                0x0000000000000000      0x130 board/Realtek/rtl9300/librtl9300.o
 .rodata.phy_826x_ctrl_set
                0x0000000000000000      0x18c board/Realtek/rtl9300/librtl9300.o
 .rodata.CSWTCH.752
                0x0000000000000000       0x20 board/Realtek/rtl9300/librtl9300.o
 .rodata.CSWTCH.720
                0x0000000000000000       0x20 board/Realtek/rtl9300/librtl9300.o
 .rodata.CSWTCH.717
                0x0000000000000000       0x20 board/Realtek/rtl9300/librtl9300.o
 .rodata.phy_rtl826x_patch_process_op
                0x0000000000000000       0x1c board/Realtek/rtl9300/librtl9300.o
 .rodata.phy_8224_ptp_portPtpOper_set
                0x0000000000000000       0x14 board/Realtek/rtl9300/librtl9300.o
 .rodata.phy_8224_ptp_portPtpOper_get
                0x0000000000000000       0x14 board/Realtek/rtl9300/librtl9300.o
 .rodata._phy_8295_ptpSXP0RegNPageReg_get
                0x0000000000000000      0x188 board/Realtek/rtl9300/librtl9300.o
 .rodata.phy_8295_8214_sdsTestMode_set
                0x0000000000000000       0x20 board/Realtek/rtl9300/librtl9300.o
 .rodata.drv_rtl9300_sdsCmuPage_get
                0x0000000000000000       0x74 board/Realtek/rtl9300/librtl9300.o
 .rodata._dal_longan_port_macForceMode_set
                0x0000000000000000       0x20 board/Realtek/rtl9300/librtl9300.o
 .rodata.dal_longan_sds_eyeParam_get
                0x0000000000000000       0x74 board/Realtek/rtl9300/librtl9300.o
 .rodata._dal_longan_sds_txParam_config_save
                0x0000000000000000       0x20 board/Realtek/rtl9300/librtl9300.o
 .rodata.dal_longan_sds_eyeParam_set
                0x0000000000000000       0x74 board/Realtek/rtl9300/librtl9300.o
 .rodata.dal_longan_sds_10gEyeParam_load
                0x0000000000000000       0x20 board/Realtek/rtl9300/librtl9300.o
 .data          0x0000000000000000        0x0 board/Realtek/rtl9300/librtl9300.o
 .data.ledModeInitSkip_value
                0x0000000000000000        0x1 board/Realtek/rtl9300/librtl9300.o
 .data.construct_rtl8218b_0455A_mode3_perchip
                0x0000000000000000       0xd8 board/Realtek/rtl9300/librtl9300.o
 .data.construct_rtl8218b_0455A_mode3_perport
                0x0000000000000000      0xf58 board/Realtek/rtl9300/librtl9300.o
 .data.construct_rtl8218b_0455A_mode2_perchip
                0x0000000000000000       0xd8 board/Realtek/rtl9300/librtl9300.o
 .data.construct_rtl8218b_0455A_mode2_perport
                0x0000000000000000      0xf44 board/Realtek/rtl9300/librtl9300.o
 .data.construct_rtl8214fc_6276B_rtl9300_perchip_savpow_3
                0x0000000000000000       0x28 board/Realtek/rtl9300/librtl9300.o
 .data.construct_rtl8214fc_6276B_rtl9300_perchip_savpow_2
                0x0000000000000000        0x8 board/Realtek/rtl9300/librtl9300.o
 .data.construct_rtl8214fc_6276B_rtl9300_perchip_savpow
                0x0000000000000000       0x3c board/Realtek/rtl9300/librtl9300.o
 .data.construct_rtl8214fc_6276B_rtl9300_perport
                0x0000000000000000       0x74 board/Realtek/rtl9300/librtl9300.o
 .data.construct_rtl8214fc_6276B_rtl9300_perchip
                0x0000000000000000      0x178 board/Realtek/rtl9300/librtl9300.o
 .data.rtl8214fb_perchip_revB
                0x0000000000000000      0xae0 board/Realtek/rtl9300/librtl9300.o
 .data.rtl8208_perchip
                0x0000000000000000      0x16c board/Realtek/rtl9300/librtl9300.o
 .data.phy_8254_info
                0x0000000000000000       0x48 board/Realtek/rtl9300/librtl9300.o
 .data.phy_8251_info
                0x0000000000000000       0x48 board/Realtek/rtl9300/librtl9300.o
 .data.phy_8264_info
                0x0000000000000000       0x48 board/Realtek/rtl9300/librtl9300.o
 .data.phy_8261_info
                0x0000000000000000       0x48 board/Realtek/rtl9300/librtl9300.o
 .data.rtl826X_patch_rtk_conf
                0x0000000000000000       0x14 board/Realtek/rtl9300/librtl9300.o
 .data.rtl8264_patch_top_conf
                0x0000000000000000       0x5c board/Realtek/rtl9300/librtl9300.o
 .data.rtl8264_patch_sds_conf
                0x0000000000000000      0x370 board/Realtek/rtl9300/librtl9300.o
 .data.rtl8264_patch_afe_conf
                0x0000000000000000       0x20 board/Realtek/rtl9300/librtl9300.o
 .data.rtl8264_patch_fwlm_conf
                0x0000000000000000      0xc94 board/Realtek/rtl9300/librtl9300.o
 .data.rtl8264_patch_fwpr_conf
                0x0000000000000000     0x8f5c board/Realtek/rtl9300/librtl9300.o
 .data.g8295ProcLinkChg
                0x0000000000000000        0x4 board/Realtek/rtl9300/librtl9300.o
 .data.g8295ProcWa
                0x0000000000000000        0x4 board/Realtek/rtl9300/librtl9300.o
 .bss           0x0000000000000000        0x0 board/Realtek/rtl9300/librtl9300.o
 .bss.hwp_unit_pool
                0x0000000000000000       0x40 board/Realtek/rtl9300/librtl9300.o
 .bss.ioal_init_status
                0x0000000000000000        0x4 board/Realtek/rtl9300/librtl9300.o
 .bss.ioal_phyReset_init_status
                0x0000000000000000        0x4 board/Realtek/rtl9300/librtl9300.o
 .bss.threadEnabled
                0x0000000000000000        0x4 board/Realtek/rtl9300/librtl9300.o
 .bss.software_i2c_NAME
                0x0000000000000000       0xf0 board/Realtek/rtl9300/librtl9300.o
 .bss.gMiim_phyRevIdInit
                0x0000000000000000        0x4 board/Realtek/rtl9300/librtl9300.o
 .bss.rtl8208_perport
                0x0000000000000000        0x0 board/Realtek/rtl9300/librtl9300.o
 .bss._debug_regShow
                0x0000000000000000        0x4 board/Realtek/rtl9300/librtl9300.o
 .bss.rtl826x_info
                0x0000000000000000       0x40 board/Realtek/rtl9300/librtl9300.o
 .bss.rtl8295EyeMonDbg
                0x0000000000000000        0x4 board/Realtek/rtl9300/librtl9300.o
 .bss.phy8295rPatch_init
                0x0000000000000000       0x40 board/Realtek/rtl9300/librtl9300.o
 .bss.testMode  0x0000000000000000      0x600 board/Realtek/rtl9300/librtl9300.o
 .bss.sdsRxCali_init
                0x0000000000000000      0x600 board/Realtek/rtl9300/librtl9300.o
 .pdr           0x0000000000000000    0x12360 board/Realtek/rtl9300/librtl9300.o

Memory Configuration

Name             Origin             Length             Attributes
*default*        0x0000000000000000 0xffffffffffffffff

Linker script and memory map

                0x000000009f000000                _SRAM_START = (SRAM_START & 0xffffffff)
                0x000000009fc00000                _LMA_BASE = (LMA_BASE & 0xffffffff)
                0x000000009f000000                VMA_BASE = _SRAM_START

.exc_reset      0x000000009fc00000       0x10
 arch/otto40/cpu/mips34kc/libmips34kc.o(.exc_reset)
 .exc_reset     0x000000009fc00000       0x10 arch/otto40/cpu/mips34kc/libmips34kc.o
                0x000000009fc00000                plr_S_entry

.exc_data0      0x000000009fc00020       0x70
 arch/otto40/cpu/mips34kc/libmips34kc.o(.sdata.soc_stru)
 .sdata.soc_stru
                0x000000009fc00020       0x70 arch/otto40/cpu/mips34kc/libmips34kc.o
                0x000000009fc00020                _soc
                0x000000009fc00090                start_of_dram_probe_func = .
 arch/otto40/cpu/mips34kc/libmips34kc.o(.dram_probe_func)
                0x000000009fc00090                end_of_dram_probe_func = .

.exc_utlb
 arch/otto40/cpu/mips34kc/libmips34kc.o(.exc_utlb)

.exc_data1
 arch/otto40/cpu/mips34kc/libmips34kc.o(.exc_data1)

.exc_rest
 arch/otto40/cpu/mips34kc/libmips34kc.o(.exc_rest)
                0x000000009f0000a0                . = (VMA_BASE + (ALIGN (0x20) & 0xfffff))

.sram_text      0x000000009f000180      0x960 load address 0x000000009fc00180
 arch/otto40/cpu/mips34kc/libmips34kc.o(.sram_text)
 .sram_text     0x000000009f000180      0x8e0 arch/otto40/cpu/mips34kc/libmips34kc.o
                0x000000009f000180                fetch_and_lock_icache_range
                0x000000009f0001b0                fetch_and_lock_dcache_range
                0x000000009f0001e0                _change_cpu_sram_pll
                0x000000009f0002e0                invalidate_icache_all
                0x000000009f000310                writeback_invalidate_dcache_all
                0x000000009f000340                writeback_invalidate_dcache_range
                0x000000009f000370                invalidate_icache_range
                0x000000009f0003a0                cg_copy_info_to_sram
                0x000000009f0003d8                cg_cpu_sram_pll_init
                0x000000009f00042c                cg_lx_pll_init
                0x000000009f000480                cg_spif_pll_init
                0x000000009f000538                cg_config_apply
                0x000000009f000588                cg_udelay
                0x000000009f000590                cg_query_freq
                0x000000009f0005e8                otto_lx_timer_init
                0x000000009f000648                otto_lx_timer_udelay
                0x000000009f000684                otto_lx_timer_mdelay
                0x000000009f0006ec                otto_lx_timer_get_timer
                0x000000009f000730                set_spi_ctrl_divisor
                0x000000009f00074c                cg_guery_mem_freq
                0x000000009f000778                cg_mem_pll_init
                0x000000009f000874                cg_mem_pll_config_dqs_pi
                0x000000009f0008e4                cg_mem_pll_config_dq_pi
                0x000000009f000954                uart_getc
                0x000000009f00097c                uart_putc
                0x000000009f0009a4                uart_putcn
                0x000000009f0009d8                uart_tstc
                0x000000009f0009f8                uart_init
 arch/otto40/cpu/mips34kc/libmips34kc.o(.unswapable_text)
 .unswapable_text
                0x000000009f000a60       0x80 arch/otto40/cpu/mips34kc/libmips34kc.o
                0x000000009f000a60                plr_puts
 arch/otto40/cpu/mips34kc/libmips34kc.o(.recycle_area)

.data           0x000000009f000ae0       0xb4 load address 0x000000009fc00ae0
 arch/otto40/cpu/mips34kc/libmips34kc.o(.data)
 .data          0x000000009f000ae0       0x70 arch/otto40/cpu/mips34kc/libmips34kc.o
                0x000000009f000ae0                tkinfo
                0x000000009f000b00                ocd_odt_table
 arch/otto40/cpu/mips34kc/libmips34kc.o(.sdata)
 .sdata         0x000000009f000b50       0x28 arch/otto40/cpu/mips34kc/libmips34kc.o
                0x000000009f000b50                uart_baud_rate
                0x000000009f000b54                cg_info_query
                0x000000009f000b60                util_ms_accumulator
                0x000000009f000b64                otto_sc
 arch/otto40/cpu/mips34kc/libmips34kc.o(.recycle_data)
 .recycle_data  0x000000009f000b78       0x1c arch/otto40/cpu/mips34kc/libmips34kc.o
                0x000000009f000b94                end_of_sram = .
                0x000000009f000b94                . = ALIGN (0x4)
                0x000000009f000b94                start_of_bss = .

.sram_bss       0x000000009f000ba0        0x0 load address 0x000000009fc00ba0
 arch/otto40/cpu/mips34kc/libmips34kc.o(.bss)
 .bss           0x000000009f000ba0        0x0 arch/otto40/cpu/mips34kc/libmips34kc.o
 arch/otto40/cpu/mips34kc/libmips34kc.o(.sbss)
                0x000000009f000ba0                . = ALIGN (0x4)
                0x000000009f000ba0                end_of_bss = .
                0x000000009f000ba0                sp_bottom = .
                0x0000000000000ba0                physical_sram_size = (. - VMA_BASE)
                0x000000009fc00ba0                . = ALIGN ((LOADADDR (.data) + SIZEOF (.data)), 0x20)

.parameters     0x000000009fc00ba0        0xc
 arch/otto40/cpu/mips34kc/libmips34kc.o(.sdata.parameters)
 .parameters    0x000000009fc00ba0        0xc arch/otto40/cpu/mips34kc/libmips34kc.o
                0x000000009fc00ba0                cg_info_proj
                0x000000009fc00bac                flash_text_begin = .

.flash_text     0x000000009fc00bb0     0x3b90
 arch/otto40/cpu/mips34kc/libmips34kc.o(.text)
 .text          0x000000009fc00bb0     0x3a40 arch/otto40/cpu/mips34kc/libmips34kc.o
                0x000000009fc00be0                _cg_config_cpu
                0x000000009fc00d0c                _cg_config_lx
                0x000000009fc00e04                _cg_config_spif
                0x000000009fc00fac                cg_config_transform
                0x000000009fc01000                cg_init
                0x000000009fc013cc                proto_printf
                0x000000009fc01951                traversal_init_table
                0x000000009fc01970                chsp_jump
                0x000000009fc019a4                exit_preloader
                0x000000009fc01a70                get_spi_ctrl_divisor
                0x000000009fc01a80                get_default_spi_ctrl_divisor
                0x000000009fc01a90                puthex
                0x000000009fc01ab0                SetSWRCtrlReg
                0x000000009fc01ae4                SetSWR
                0x000000009fc01b50                voltage_setup
                0x000000009fc01ba4                spi_setup
                0x000000009fc01bd8                pll_setup
                0x000000009fc01c68                sys_get_dramtype_freq_strapping
                0x000000009fc01c9c                board_DRAM_freq_mhz
                0x000000009fc01cd8                board_LX_freq_mhz
                0x000000009fc01cfc                board_SPIF_freq_mhz
                0x000000009fc01d3c                get_memory_ddr3_dram_rtt_nom_parameters
                0x000000009fc01d4c                get_memory_ddr3_dram_rtt_wr_parameters
                0x000000009fc01d58                get_memory_dram_reduce_drv_parameters
                0x000000009fc01d68                _write_pattern_1
                0x000000009fc01dcc                _verify_pattern_1
                0x000000009fc01e5c                memctl_sync_write_buf
                0x000000009fc01e80                _memctl_decide_bus_width
                0x000000009fc01eec                memctlc_DDR_Type
                0x000000009fc01f30                swr_setup
                0x000000009fc01fb0                _DTR_DDR3_MRS_setting
                0x000000009fc021bc                sys_watchdog_enable
                0x000000009fc02200                sys_watchdog_disable
                0x000000009fc02214                _memctl_delay_clkm_cycles
                0x000000009fc02244                _DRAM_PLL_CLK_power_switch
                0x000000009fc02274                _periodic_DRAM_refresh
                0x000000009fc022c8                _check_DMCR_done_bit
                0x000000009fc02338                _memctl_update_phy_param
                0x000000009fc023bc                _memctl_set_phy_delay_all
                0x000000009fc023ec                _memctl_set_phy_delay_dqrf
                0x000000009fc024b4                DDR_Calibration_Full_Scan_Reduce
                0x000000009fc02ab8                DDR_Calibration
                0x000000009fc02b24                plat_memctl_ZQ_force_config
                0x000000009fc02b78                memctlc_ZQ_calibration
                0x000000009fc02d5c                mc_xlat_zprog_value
                0x000000009fc02df0                memctlc_config_DataFullMask
                0x000000009fc02e08                memctlc_config_DRAM_size
                0x000000009fc03018                memctlc_config_DDR3_DTR
                0x000000009fc03174                memctlc_config_DTR
                0x000000009fc034f4                memctlc_config_delay_line
                0x000000009fc038cc                CMU_setup
                0x000000009fc03b50                dram_ZQCS_ZQCL_enable
                0x000000009fc03bb8                memctlc_dram_phy_reset
                0x000000009fc03be0                memctlc_ddr3_dll_reset
                0x000000009fc03cc8                memctlc_lxbus_check
                0x000000009fc03d54                memctlc_init_dram
                0x000000009fc04160                dram_setup
                0x000000009fc041b0                DDR3_DTR
                0x000000009fc0421c                tRFC_Spec_DDR3
                0x000000009fc04230                _dram_detection_addr
                0x000000009fc042a8                _dram_type_setting
                0x000000009fc04320                _dram_MCR_setting
                0x000000009fc04398                pat_ary
                0x000000009fc04418                dramtype_freq_25oc
                0x000000009fc044a0                _cg_config_mem
                0x000000009fc045c0                osc_init
 arch/otto40/cpu/mips34kc/libmips34kc.o(.text.*)
 arch/otto40/cpu/mips34kc/libmips34kc.o(.flash_text)
 .flash_text    0x000000009fc045f0      0x150 arch/otto40/cpu/mips34kc/libmips34kc.o
                0x000000009fc04740                flash_text_end = .
                0x000000009fc04740                . = ALIGN (0x4)

.isr_entry_text
                0x000000009fc04740       0x10
 arch/otto40/cpu/mips34kc/libmips34kc.o(.isr_entry_text)
 .isr_entry_text
                0x000000009fc04740       0x10 arch/otto40/cpu/mips34kc/libmips34kc.o
                0x000000009fc04750                . = ALIGN (0x4)

.recycle_text   0x000000009fc04750      0x138
 arch/otto40/cpu/mips34kc/libmips34kc.o(.recycle_text)
 .recycle_text  0x000000009fc04750      0x138 arch/otto40/cpu/mips34kc/libmips34kc.o
                0x000000009fc04750                plr_init_utility

.nor_only_area  0x000000009fc04890      0x740
 arch/otto40/cpu/mips34kc/libmips34kc.o(.ro)
 .ro            0x000000009fc04890       0x24 arch/otto40/cpu/mips34kc/libmips34kc.o
                0x000000009fc04890                sclk_divisor
 arch/otto40/cpu/mips34kc/libmips34kc.o(.rodata)
 *fill*         0x000000009fc048b4        0xc 
 .rodata        0x000000009fc048c0      0x140 arch/otto40/cpu/mips34kc/libmips34kc.o
 arch/otto40/cpu/mips34kc/libmips34kc.o(.rodata.str1.4)
 .rodata.str1.4
                0x000000009fc04a00      0x5a8 arch/otto40/cpu/mips34kc/libmips34kc.o
                                        0x5b4 (size before relaxing)
                0x000000009fc04fa8                . = ALIGN (0x4)
                0x000000009fc04fa8                start_of_init_func_table = .
 arch/otto40/cpu/mips34kc/libmips34kc.o(.init_func_level.0)
 arch/otto40/cpu/mips34kc/libmips34kc.o(.init_func_level.1)
 .init_func_level.1
                0x000000009fc04fa8        0x8 arch/otto40/cpu/mips34kc/libmips34kc.o
                0x000000009fc04fa8                __init_func_plr_init_utility
 arch/otto40/cpu/mips34kc/libmips34kc.o(.init_func_level.2)
 arch/otto40/cpu/mips34kc/libmips34kc.o(.init_func_level.3)
 arch/otto40/cpu/mips34kc/libmips34kc.o(.init_func_level.4)
 arch/otto40/cpu/mips34kc/libmips34kc.o(.init_func_level.5)
 arch/otto40/cpu/mips34kc/libmips34kc.o(.init_func_level.6)
 arch/otto40/cpu/mips34kc/libmips34kc.o(.init_func_level.7)
 arch/otto40/cpu/mips34kc/libmips34kc.o(.init_func_level.8)
 arch/otto40/cpu/mips34kc/libmips34kc.o(.init_func_level.9)
 arch/otto40/cpu/mips34kc/libmips34kc.o(.init_func_level.10)
 arch/otto40/cpu/mips34kc/libmips34kc.o(.init_func_level.11)
 .init_func_level.11
                0x000000009fc04fb0        0x8 arch/otto40/cpu/mips34kc/libmips34kc.o
                0x000000009fc04fb0                __init_func_cg_copy_info_to_sram
 arch/otto40/cpu/mips34kc/libmips34kc.o(.init_func_level.12)
 arch/otto40/cpu/mips34kc/libmips34kc.o(.init_func_level.13)
 .init_func_level.13
                0x000000009fc04fb8        0x8 arch/otto40/cpu/mips34kc/libmips34kc.o
                0x000000009fc04fb8                __init_func_cg_init
 arch/otto40/cpu/mips34kc/libmips34kc.o(.init_func_level.14)
 arch/otto40/cpu/mips34kc/libmips34kc.o(.init_func_level.15)
 arch/otto40/cpu/mips34kc/libmips34kc.o(.init_func_level.16)
 arch/otto40/cpu/mips34kc/libmips34kc.o(.init_func_level.17)
 arch/otto40/cpu/mips34kc/libmips34kc.o(.init_func_level.18)
 arch/otto40/cpu/mips34kc/libmips34kc.o(.init_func_level.19)
 arch/otto40/cpu/mips34kc/libmips34kc.o(.init_func_level.20)
 arch/otto40/cpu/mips34kc/libmips34kc.o(.init_func_level.21)
 arch/otto40/cpu/mips34kc/libmips34kc.o(.init_func_level.22)
 arch/otto40/cpu/mips34kc/libmips34kc.o(.init_func_level.23)
 arch/otto40/cpu/mips34kc/libmips34kc.o(.init_func_level.24)
 arch/otto40/cpu/mips34kc/libmips34kc.o(.init_func_level.25)
 arch/otto40/cpu/mips34kc/libmips34kc.o(.init_func_level.26)
 arch/otto40/cpu/mips34kc/libmips34kc.o(.init_func_level.27)
 arch/otto40/cpu/mips34kc/libmips34kc.o(.init_func_level.28)
 arch/otto40/cpu/mips34kc/libmips34kc.o(.init_func_level.29)
 arch/otto40/cpu/mips34kc/libmips34kc.o(.init_func_level.30)
 .init_func_level.30
                0x000000009fc04fc0        0x8 arch/otto40/cpu/mips34kc/libmips34kc.o
                0x000000009fc04fc0                __init_func_dram_setup
 arch/otto40/cpu/mips34kc/libmips34kc.o(.init_func_level.31)
 arch/otto40/cpu/mips34kc/libmips34kc.o(.init_func_level.32)
 .init_func_level.32
                0x000000009fc04fc8        0x8 arch/otto40/cpu/mips34kc/libmips34kc.o
                0x000000009fc04fc8                __init_func_exit_preloader
 arch/otto40/cpu/mips34kc/libmips34kc.o(.init_func_level.33)
 arch/otto40/cpu/mips34kc/libmips34kc.o(.init_func_level.34)
 arch/otto40/cpu/mips34kc/libmips34kc.o(.init_func_level.35)
 arch/otto40/cpu/mips34kc/libmips34kc.o(.init_func_level.36)
 arch/otto40/cpu/mips34kc/libmips34kc.o(.init_func_level.37)
 arch/otto40/cpu/mips34kc/libmips34kc.o(.init_func_level.38)
 arch/otto40/cpu/mips34kc/libmips34kc.o(.init_func_level.99)
                0x000000009fc04fd0                end_of_init_func_table = .
 arch/otto40/cpu/mips34kc/libmips34kc.o(.init_func_level.ending_symb)
                0x000000009fc04fd0                flash_data_begin = .
 arch/otto40/cpu/mips34kc/libmips34kc.o(.flash_data)
                0x000000009fc04fd0                flash_data_end = .
                0x000000009fc04fd0                . = ALIGN (0x10)
                0x000000009fc04fd0                . = ALIGN (0x10)

.cli_tables     0x000000009fc04fd0        0x0
                0x000000009fc04fd0                start_of_cli_node = .
 arch/otto40/cpu/mips34kc/libmips34kc.o(.cli_node)
                0x000000009fc04fd0                end_of_cli_node = .
                0x000000009fc04fd0                start_of_cli_mp_node = .
 arch/otto40/cpu/mips34kc/libmips34kc.o(.cli_mp_node)
                0x000000009fc04fd0                end_of_cli_mp_node = .
                0x000000009fc04fd0                start_of_cli_tail = .
 arch/otto40/cpu/mips34kc/libmips34kc.o(.cli_tail)
                0x000000009fc04fd0                end_of_cli_tail = .
                0x000000009fc04fd0                start_of_cli_help = .
 arch/otto40/cpu/mips34kc/libmips34kc.o(.cli_help)
                0x000000009fc04fd0                end_of_cli_help = .
                0x000000009fc04fd0                . = ALIGN (0x10)

.symbol_table   0x000000009fc04fd0       0x38
                0x000000009fc04fd0                start_of_symble_table = .
 arch/otto40/cpu/mips34kc/libmips34kc.o(.symbol_table)
 .symbol_table  0x000000009fc04fd0       0x38 arch/otto40/cpu/mips34kc/libmips34kc.o
                0x000000009fc04fd0                __ste_p_cg_info_dev_freq_62
                0x000000009fc04fd8                __ste_f_otto_lx_timer_get_timer_61
                0x000000009fc04fe0                __ste_f_otto_lx_timer_udelay_60
                0x000000009fc04fe8                __ste_p_cg_info_dev_freq_336
                0x000000009fc04ff0                __ste_p_toolkit_info_15
                0x000000009fc04ff8                __ste_p_build_date_11
                0x000000009fc05000                __ste_p_build_version_7
                0x000000009fc05008                end_of_symble_table = .
 arch/otto40/cpu/mips34kc/libmips34kc.o(.symbol_table.ending_symb)
                0x000000009fc05010                . = ALIGN (0x10)

.mc_var         0x000000009fc05010        0x0
                0x000000009fc05010                mc_var_begin = .
 arch/otto40/cpu/mips34kc/libmips34kc.o(.mc_var)
                0x000000009fc05010                mc_var_end = .

.reginfo        0x000000009fc05010       0x18
 arch/otto40/cpu/mips34kc/libmips34kc.o(.reginfo)
 .reginfo       0x000000009fc05010       0x18 arch/otto40/cpu/mips34kc/libmips34kc.o
                0x000000009fc05030                . = ALIGN (0x10)
                0x000000009fc05030                start_of_next_env = .

.next_env       0x000000009fc05030        0x0
 arch/otto40/cpu/mips34kc/libmips34kc.o(.next_env)
                0x000000009fc05030                end_of_next_env = .

.dram           0x0000000083f00000    0xbedd8 load address 0x000000009fc05030
 *(EXCLUDE_FILE(arch/otto40/cpu/mips34kc/libmips34kc.o) .text*)
 .text.__board_early_init_f
                0x0000000083f00000        0x8 arch/otto40/lib/libotto40.o
                0x0000000083f00000                __board_early_init_f
                0x0000000083f00000                board_early_init_f
 .text.swp_pci  0x0000000083f00008        0x8 arch/otto40/lib/libotto40.o
                0x0000000083f00008                swp_pci
 .text.swp_spi  0x0000000083f00010        0x8 arch/otto40/lib/libotto40.o
                0x0000000083f00010                swp_spi
 .text.display_banner
                0x0000000083f00018       0x24 arch/otto40/lib/libotto40.o
 .text.swp_flash_init
                0x0000000083f0003c       0x34 arch/otto40/lib/libotto40.o
                0x0000000083f0003c                swp_flash_init
 .text.swp_uart
                0x0000000083f00070       0x48 arch/otto40/lib/libotto40.o
                0x0000000083f00070                swp_uart
 .text.swp_studio
                0x0000000083f000b8       0x1c arch/otto40/lib/libotto40.o
                0x0000000083f000b8                swp_studio
 .text.swp_console_r
                0x0000000083f000d4        0x8 arch/otto40/lib/libotto40.o
                0x0000000083f000d4                swp_console_r
 .text.swp_env_set
                0x0000000083f000dc       0x68 arch/otto40/lib/libotto40.o
                0x0000000083f000dc                swp_env_set
 .text.swp_misc
                0x0000000083f00144        0x8 arch/otto40/lib/libotto40.o
                0x0000000083f00144                swp_misc
 .text.swp_post
                0x0000000083f0014c       0x7c arch/otto40/lib/libotto40.o
                0x0000000083f0014c                swp_post
 .text.swp_eth  0x0000000083f001c8        0xc arch/otto40/lib/libotto40.o
                0x0000000083f001c8                swp_eth
 .text.init_func_ram
                0x0000000083f001d4       0x48 arch/otto40/lib/libotto40.o
 .text.swp_env  0x0000000083f0021c       0x40 arch/otto40/lib/libotto40.o
                0x0000000083f0021c                swp_env
 .text.board_init_r
                0x0000000083f0025c       0x90 arch/otto40/lib/libotto40.o
                0x0000000083f0025c                board_init_r
 .text.hang     0x0000000083f002ec       0x1c arch/otto40/lib/libotto40.o
                0x0000000083f002ec                hang
 .text.board_init_f
                0x0000000083f00308      0x104 arch/otto40/lib/libotto40.o
                0x0000000083f00308                board_init_f
 .text.linux_env_set
                0x0000000083f0040c       0xec arch/otto40/lib/libotto40.o
 .text.do_bootm_linux
                0x0000000083f004f8      0x320 arch/otto40/lib/libotto40.o
                0x0000000083f004f8                do_bootm_linux
 .text.__ashldi3
                0x0000000083f00818       0x40 arch/otto40/lib/libotto40.o
                0x0000000083f00818                __ashldi3
 .text.__lshrdi3
                0x0000000083f00858       0x40 arch/otto40/lib/libotto40.o
                0x0000000083f00858                __lshrdi3
 .text.__serial_putc
                0x0000000083f00898       0x40 arch/otto40/lib/libotto40.o
                0x0000000083f00898                __serial_putc
 .text.__serial_getc
                0x0000000083f008d8       0x40 arch/otto40/lib/libotto40.o
                0x0000000083f008d8                __serial_getc
 .text.serial_putc
                0x0000000083f00918       0x40 arch/otto40/lib/libotto40.o
                0x0000000083f00918                serial_putc
 .text.serial_puts
                0x0000000083f00958       0x38 arch/otto40/lib/libotto40.o
                0x0000000083f00958                serial_puts
 .text.serial_getc
                0x0000000083f00990        0xc arch/otto40/lib/libotto40.o
                0x0000000083f00990                serial_getc
 .text.serial_tstc
                0x0000000083f0099c       0x20 arch/otto40/lib/libotto40.o
                0x0000000083f0099c                serial_tstc
 .text.serial_setbrg
                0x0000000083f009bc       0xd8 arch/otto40/lib/libotto40.o
                0x0000000083f009bc                serial_setbrg
 .text.serial_init
                0x0000000083f00a94       0x34 arch/otto40/lib/libotto40.o
                0x0000000083f00a94                serial_init
 .text._otto_lx_timer_init
                0x0000000083f00ac8       0x60 arch/otto40/lib/libotto40.o
                0x0000000083f00ac8                _otto_lx_timer_init
 .text.__udelay
                0x0000000083f00b28       0x3c arch/otto40/lib/libotto40.o
                0x0000000083f00b28                __udelay
 .text.do_sleep
                0x0000000083f00b64       0x68 arch/otto40/lib/libotto40.o
                0x0000000083f00b64                do_sleep
 .text._otto_lx_timer_get_timer
                0x0000000083f00bcc       0x44 arch/otto40/lib/libotto40.o
                0x0000000083f00bcc                _otto_lx_timer_get_timer
 .text.timer_init
                0x0000000083f00c10       0x48 arch/otto40/lib/libotto40.o
                0x0000000083f00c10                timer_init
 .text.get_timer
                0x0000000083f00c58       0x10 arch/otto40/lib/libotto40.o
                0x0000000083f00c58                get_timer
 .text.otto_cg_query_freq
                0x0000000083f00c68       0x54 arch/otto40/lib/libotto40.o
                0x0000000083f00c68                otto_cg_query_freq
 .text.do_reset
                0x0000000083f00cbc       0x3c arch/otto40/lib/libotto40.o
                0x0000000083f00cbc                do_reset
 .text.flush_cache
                0x0000000083f00cf8       0x10 arch/otto40/lib/libotto40.o
                0x0000000083f00cf8                flush_cache
 .text.enable_interrupts
                0x0000000083f00d08        0x8 arch/otto40/lib/libotto40.o
                0x0000000083f00d08                enable_interrupts
 .text.disable_interrupts
                0x0000000083f00d10        0x8 arch/otto40/lib/libotto40.o
                0x0000000083f00d10                disable_interrupts
 .text.otto_spi_flash_read
                0x0000000083f00d18       0x24 arch/otto40/lib/libotto40.o
                0x0000000083f00d18                otto_spi_flash_read
 .text.otto_spi_flash_erase
                0x0000000083f00d3c       0x30 arch/otto40/lib/libotto40.o
                0x0000000083f00d3c                otto_spi_flash_erase
 .text.otto_spi_flash_write
                0x0000000083f00d6c       0xa4 arch/otto40/lib/libotto40.o
                0x0000000083f00d6c                otto_spi_flash_write
 .text.spi_flash_init
                0x0000000083f00e10       0x7c arch/otto40/lib/libotto40.o
                0x0000000083f00e10                spi_flash_init
 .text.spi_flash_probe
                0x0000000083f00e8c       0x38 arch/otto40/lib/libotto40.o
                0x0000000083f00e8c                spi_flash_probe
 .text.spi_flash_free
                0x0000000083f00ec4        0x8 arch/otto40/lib/libotto40.o
                0x0000000083f00ec4                spi_flash_free
 .text.sdk_spi_flash_chip_num
                0x0000000083f00ecc        0xc arch/otto40/lib/libotto40.o
                0x0000000083f00ecc                sdk_spi_flash_chip_num
 .text.sdk_spi_flash_chip_size
                0x0000000083f00ed8       0x24 arch/otto40/lib/libotto40.o
                0x0000000083f00ed8                sdk_spi_flash_chip_size
 *fill*         0x0000000083f00efc        0x4 
 .text.cacheline_alignment
                0x0000000083f00f00      0x660 arch/otto40/lib/libotto40.o
                0x0000000083f00f00                norsf_proj_4b_addr_en
                0x0000000083f013c0                norsf_compound_cmd
                0x0000000083f014c0                norsf_cmn_arch_wip
                0x0000000083f01520                norsf_cmn_4b_mode_ex
 .text.norsf_addr_on_flash
                0x0000000083f01560       0x3c arch/otto40/lib/libotto40.o
 .text.norsf_addr_range_restore
                0x0000000083f0159c       0xac arch/otto40/lib/libotto40.o
 .text.norsf_t4_epilogue
                0x0000000083f01648      0x120 arch/otto40/lib/libotto40.o
 .text.norsf_addr_range_enable
                0x0000000083f01768       0xd0 arch/otto40/lib/libotto40.o
 .text.norsf_cmn_arch_erase
                0x0000000083f01838       0x40 arch/otto40/lib/libotto40.o
                0x0000000083f01838                norsf_cmn_arch_erase
 .text.norsf_cmn_arch_prog
                0x0000000083f01878       0x4c arch/otto40/lib/libotto40.o
                0x0000000083f01878                norsf_cmn_arch_prog
 .text.norsf_cmn_arch_read
                0x0000000083f018c4       0x4c arch/otto40/lib/libotto40.o
                0x0000000083f018c4                norsf_cmn_arch_read
 .text.norsf_cmn_4b_mode_en
                0x0000000083f01910       0x34 arch/otto40/lib/libotto40.o
                0x0000000083f01910                norsf_cmn_4b_mode_en
 .text.norsf_rdid
                0x0000000083f01944       0x60 arch/otto40/lib/libotto40.o
                0x0000000083f01944                norsf_rdid
 .text.norsf_configure_mmio_read
                0x0000000083f019a4       0xe0 arch/otto40/lib/libotto40.o
                0x0000000083f019a4                norsf_configure_mmio_read
 .text.norsf_detect
                0x0000000083f01a84      0x1d0 arch/otto40/lib/libotto40.o
                0x0000000083f01a84                norsf_detect
 .text.norsf_erase
                0x0000000083f01c54      0x274 arch/otto40/lib/libotto40.o
                0x0000000083f01c54                norsf_erase
 .text.norsf_prog
                0x0000000083f01ec8      0x348 arch/otto40/lib/libotto40.o
                0x0000000083f01ec8                norsf_prog
 .text.norsf_read
                0x0000000083f02210      0x1e8 arch/otto40/lib/libotto40.o
                0x0000000083f02210                norsf_read
 .text.norsf_mxic_probe
                0x0000000083f023f8       0x48 arch/otto40/lib/libotto40.o
                0x0000000083f023f8                norsf_mxic_probe
 .text.norsf_spansion_probe
                0x0000000083f02440       0x60 arch/otto40/lib/libotto40.o
                0x0000000083f02440                norsf_spansion_probe
 .text.norsf_winbond_probe
                0x0000000083f024a0       0x48 arch/otto40/lib/libotto40.o
                0x0000000083f024a0                norsf_winbond_probe
 .text.norsf_gd_probe
                0x0000000083f024e8       0x68 arch/otto40/lib/libotto40.o
                0x0000000083f024e8                norsf_gd_probe
 .text.norsf_micron_probe
                0x0000000083f02550       0x68 arch/otto40/lib/libotto40.o
                0x0000000083f02550                norsf_micron_probe
 .text.do_go_exec
                0x0000000083f025b8       0x14 common/libcommon.o
                0x0000000083f025b8                do_go_exec
 .text.do_go    0x0000000083f025cc       0xa0 common/libcommon.o
                0x0000000083f025cc                do_go
 .text.image_info
                0x0000000083f0266c       0xd4 common/libcommon.o
 .text.do_bootm_rtems
                0x0000000083f02740       0x60 common/libcommon.o
 .text.do_bootm_netbsd
                0x0000000083f027a0      0x194 common/libcommon.o
 .text.do_iminfo
                0x0000000083f02934       0xb0 common/libcommon.o
                0x0000000083f02934                do_iminfo
 .text.bootm_load_os.isra.13
                0x0000000083f029e4      0x220 common/libcommon.o
 .text.cameo_do_img_chksum.isra.15
                0x0000000083f02c04      0x178 common/libcommon.o
 .text.do_bootf
                0x0000000083f02d7c      0x420 common/libcommon.o
                0x0000000083f02d7c                do_bootf
 .text.bootm_start.isra.11
                0x0000000083f0319c      0x354 common/libcommon.o
 .text.__arch_preboot_os
                0x0000000083f034f0        0x8 common/libcommon.o
                0x0000000083f034f0                arch_preboot_os
                0x0000000083f034f0                __arch_preboot_os
 .text.do_bootm_subcommand
                0x0000000083f034f8      0x1f8 common/libcommon.o
                0x0000000083f034f8                do_bootm_subcommand
 .text.do_bootm
                0x0000000083f036f0      0x2e8 common/libcommon.o
                0x0000000083f036f0                do_bootm
 .text.bootm_maybe_autostart
                0x0000000083f039d8       0x8c common/libcommon.o
                0x0000000083f039d8                bootm_maybe_autostart
 .text.do_flinfo
                0x0000000083f03a64        0x8 common/libcommon.o
                0x0000000083f03a64                do_flinfo
 .text.do_flerase
                0x0000000083f03a6c        0x8 common/libcommon.o
                0x0000000083f03a6c                do_flerase
 .text.do_protect
                0x0000000083f03a74       0x1c common/libcommon.o
                0x0000000083f03a74                do_protect
 .text.do_help  0x0000000083f03a90       0x54 common/libcommon.o
                0x0000000083f03a90                do_help
 .text.bin_data_init
                0x0000000083f03ae4       0x1c common/libcommon.o
 .text.getcxmodem
                0x0000000083f03b00       0x2c common/libcommon.o
 .text.load_serial_ymodem
                0x0000000083f03b2c      0x100 common/libcommon.o
 .text.bin_data_char
                0x0000000083f03c2c       0x2c common/libcommon.o
 .text.load_serial
                0x0000000083f03c58      0x244 common/libcommon.o
 .text.do_load_serial
                0x0000000083f03e9c      0x104 common/libcommon.o
                0x0000000083f03e9c                do_load_serial
 .text.send_pad
                0x0000000083f03fa0       0x48 common/libcommon.o
                0x0000000083f03fa0                send_pad
 .text.ktrans   0x0000000083f03fe8       0x34 common/libcommon.o
                0x0000000083f03fe8                ktrans
 .text.chk1     0x0000000083f0401c       0x28 common/libcommon.o
                0x0000000083f0401c                chk1
 .text.s1_sendpacket
                0x0000000083f04044       0x3c common/libcommon.o
                0x0000000083f04044                s1_sendpacket
 .text.send_ack
                0x0000000083f04080       0x70 common/libcommon.o
                0x0000000083f04080                send_ack
 .text.send_nack
                0x0000000083f040f0       0x70 common/libcommon.o
                0x0000000083f040f0                send_nack
 .text.k_data_init
                0x0000000083f04160       0x18 common/libcommon.o
                0x0000000083f04160                k_data_init
 .text.k_data_save
                0x0000000083f04178       0x34 common/libcommon.o
                0x0000000083f04178                k_data_save
 .text.k_data_restore
                0x0000000083f041ac       0x34 common/libcommon.o
                0x0000000083f041ac                k_data_restore
 .text.k_data_char
                0x0000000083f041e0       0x84 common/libcommon.o
                0x0000000083f041e0                k_data_char
 .text.handle_send_packet
                0x0000000083f04264      0x238 common/libcommon.o
                0x0000000083f04264                handle_send_packet
 .text.do_load_serial_bin
                0x0000000083f0449c      0x55c common/libcommon.o
                0x0000000083f0449c                do_load_serial_bin
 .text.do_mem_loop
                0x0000000083f049f8      0x12c common/libcommon.o
                0x0000000083f049f8                do_mem_loop
 .text.do_mem_md
                0x0000000083f04b24      0x150 common/libcommon.o
                0x0000000083f04b24                do_mem_md
 .text.do_mem_base
                0x0000000083f04c74       0x50 common/libcommon.o
                0x0000000083f04c74                do_mem_base
 .text.do_mem_mtest
                0x0000000083f04cc4      0x200 common/libcommon.o
                0x0000000083f04cc4                do_mem_mtest
 .text.do_mem_mw
                0x0000000083f04ec4      0x114 common/libcommon.o
                0x0000000083f04ec4                do_mem_mw
 .text.do_mem_cmp
                0x0000000083f04fd8      0x1c4 common/libcommon.o
                0x0000000083f04fd8                do_mem_cmp
 .text.mod_mem.part.2
                0x0000000083f0519c      0x1c4 common/libcommon.o
 .text.do_mem_mm
                0x0000000083f05360       0x20 common/libcommon.o
                0x0000000083f05360                do_mem_mm
 .text.do_mem_cp
                0x0000000083f05380      0x11c common/libcommon.o
                0x0000000083f05380                do_mem_cp
 .text.do_mem_crc
                0x0000000083f0549c       0xf4 common/libcommon.o
                0x0000000083f0549c                do_mem_crc
 .text.do_mem_nm
                0x0000000083f05590       0x20 common/libcommon.o
                0x0000000083f05590                do_mem_nm
 .text.netboot_common
                0x0000000083f055b0      0x2cc common/libcommon.o
 .text.do_bootp
                0x0000000083f0587c       0x10 common/libcommon.o
                0x0000000083f0587c                do_bootp
 .text.do_tftpb
                0x0000000083f0588c       0x10 common/libcommon.o
                0x0000000083f0588c                do_tftpb
 .text.do_ping  0x0000000083f0589c       0xa4 common/libcommon.o
                0x0000000083f0589c                do_ping
 .text.do_env_delete
                0x0000000083f05940       0x24 common/libcommon.o
 .text.env_print
                0x0000000083f05964       0xc4 common/libcommon.o
 .text.do_env_save
                0x0000000083f05a28       0x34 common/libcommon.o
                0x0000000083f05a28                do_env_save
 .text.do_env_save2
                0x0000000083f05a5c       0x34 common/libcommon.o
                0x0000000083f05a5c                do_env_save2
 .text.do_env   0x0000000083f05a90       0x9c common/libcommon.o
 .text.do_env_import
                0x0000000083f05b2c      0x298 common/libcommon.o
 .text.do_env_default
                0x0000000083f05dc4       0x64 common/libcommon.o
 .text.do_env_print
                0x0000000083f05e28       0xcc common/libcommon.o
                0x0000000083f05e28                do_env_print
 .text.do_env_print2
                0x0000000083f05ef4       0xcc common/libcommon.o
                0x0000000083f05ef4                do_env_print2
 .text.get_env_id
                0x0000000083f05fc0        0xc common/libcommon.o
                0x0000000083f05fc0                get_env_id
 .text._do_env_set
                0x0000000083f05fcc      0x430 common/libcommon.o
                0x0000000083f05fcc                _do_env_set
 .text.do_env_set
                0x0000000083f063fc       0x30 common/libcommon.o
                0x0000000083f063fc                do_env_set
 .text.do_env_set2
                0x0000000083f0642c       0x34 common/libcommon.o
                0x0000000083f0642c                do_env_set2
 .text.setenv   0x0000000083f06460       0x54 common/libcommon.o
                0x0000000083f06460                setenv
 .text.do_env_export
                0x0000000083f064b4      0x308 common/libcommon.o
 .text.setenv_ulong
                0x0000000083f067bc       0x30 common/libcommon.o
                0x0000000083f067bc                setenv_ulong
 .text.getenv2  0x0000000083f067ec       0x70 common/libcommon.o
                0x0000000083f067ec                getenv2
 .text.envmatch
                0x0000000083f0685c       0x98 common/libcommon.o
                0x0000000083f0685c                envmatch
 .text.getenv_f
                0x0000000083f068f4      0x104 common/libcommon.o
                0x0000000083f068f4                getenv_f
 .text.getenv   0x0000000083f069f8       0x7c common/libcommon.o
                0x0000000083f069f8                getenv
 .text.getenv_ulong
                0x0000000083f06a74       0x58 common/libcommon.o
                0x0000000083f06a74                getenv_ulong
 .text.do_spi_flash
                0x0000000083f06acc      0x5ac common/libcommon.o
 .text.do_version
                0x0000000083f07078       0x44 common/libcommon.o
                0x0000000083f07078                do_version
 .text.find_cmd_tbl
                0x0000000083f070bc       0xdc common/libcommon.o
                0x0000000083f070bc                find_cmd_tbl
 .text.find_cmd
                0x0000000083f07198       0x2c common/libcommon.o
                0x0000000083f07198                find_cmd
 .text.cmd_usage
                0x0000000083f071c4       0x78 common/libcommon.o
                0x0000000083f071c4                cmd_usage
 .text._do_help
                0x0000000083f0723c      0x1e0 common/libcommon.o
                0x0000000083f0723c                _do_help
 .text.cmd_get_data_size
                0x0000000083f0741c       0x7c common/libcommon.o
                0x0000000083f0741c                cmd_get_data_size
 .text.console_setfile
                0x0000000083f07498       0xd0 common/libcommon.o
 .text.fputs    0x0000000083f07568       0x38 common/libcommon.o
                0x0000000083f07568                fputs
 .text.fprintf  0x0000000083f075a0       0x4c common/libcommon.o
                0x0000000083f075a0                fprintf
 .text.getc     0x0000000083f075ec       0x40 common/libcommon.o
                0x0000000083f075ec                getc
 .text.tstc     0x0000000083f0762c       0x40 common/libcommon.o
                0x0000000083f0762c                tstc
 .text.putc     0x0000000083f0766c       0x54 common/libcommon.o
                0x0000000083f0766c                putc
 .text.puts     0x0000000083f076c0       0x6c common/libcommon.o
                0x0000000083f076c0                puts
 .text.printf   0x0000000083f0772c       0x44 common/libcommon.o
                0x0000000083f0772c                printf
 .text.vprintf  0x0000000083f07770       0x38 common/libcommon.o
                0x0000000083f07770                vprintf
 .text.ctrlc    0x0000000083f077a8       0x6c common/libcommon.o
                0x0000000083f077a8                ctrlc
 .text.had_ctrlc
                0x0000000083f07814        0xc common/libcommon.o
                0x0000000083f07814                had_ctrlc
 .text.clear_ctrlc
                0x0000000083f07820        0xc common/libcommon.o
                0x0000000083f07820                clear_ctrlc
 .text.search_device
                0x0000000083f0782c       0x3c common/libcommon.o
                0x0000000083f0782c                search_device
 .text.console_assign
                0x0000000083f07868       0x68 common/libcommon.o
                0x0000000083f07868                console_assign
 .text.console_init_f
                0x0000000083f078d0       0x78 common/libcommon.o
                0x0000000083f078d0                console_init_f
 .text.console_init_r
                0x0000000083f07948      0x118 common/libcommon.o
                0x0000000083f07948                console_init_r
 .text.env_get_addr
                0x0000000083f07a60       0x28 common/libcommon.o
                0x0000000083f07a60                env_get_addr
 .text.env_get_char_memory
                0x0000000083f07a88       0x20 common/libcommon.o
                0x0000000083f07a88                env_get_char_memory
 .text.env_get_char
                0x0000000083f07aa8       0x3c common/libcommon.o
                0x0000000083f07aa8                env_get_char
 .text.set_default_env
                0x0000000083f07ae4      0x158 common/libcommon.o
                0x0000000083f07ae4                set_default_env
 .text.set_default_env2
                0x0000000083f07c3c      0x158 common/libcommon.o
                0x0000000083f07c3c                set_default_env2
 .text.env_import
                0x0000000083f07d94      0x17c common/libcommon.o
                0x0000000083f07d94                env_import
 .text.cameo_get_board_info
                0x0000000083f07f10      0x154 common/libcommon.o
                0x0000000083f07f10                cameo_get_board_info
 .text.env_relocate
                0x0000000083f08064       0x84 common/libcommon.o
                0x0000000083f08064                env_relocate
 .text.cameo_get_board_modulename
                0x0000000083f080e8        0xc common/libcommon.o
                0x0000000083f080e8                cameo_get_board_modulename
 .text.env_get_char_spec
                0x0000000083f080f4       0x10 common/libcommon.o
                0x0000000083f080f4                env_get_char_spec
 .text.saveenv  0x0000000083f08104      0x1ac common/libcommon.o
                0x0000000083f08104                saveenv
 .text.saveenv2
                0x0000000083f082b0      0x1b0 common/libcommon.o
                0x0000000083f082b0                saveenv2
 .text.env_relocate_spec
                0x0000000083f08460       0xd4 common/libcommon.o
                0x0000000083f08460                env_relocate_spec
 .text.env_relocate_spec2
                0x0000000083f08534       0xd8 common/libcommon.o
                0x0000000083f08534                env_relocate_spec2
 .text.env_init
                0x0000000083f0860c       0x30 common/libcommon.o
                0x0000000083f0860c                env_init
 .text.dummy    0x0000000083f0863c        0x8 common/libcommon.o
 .text.get_version
                0x0000000083f08644        0x8 common/libcommon.o
                0x0000000083f08644                get_version
 .text.jumptable_init
                0x0000000083f0864c      0x1a4 common/libcommon.o
                0x0000000083f0864c                jumptable_init
 .text.image_check_hcrc
                0x0000000083f087f0       0x50 common/libcommon.o
                0x0000000083f087f0                image_check_hcrc
 .text.image_check_dcrc
                0x0000000083f08840       0x40 common/libcommon.o
                0x0000000083f08840                image_check_dcrc
 .text.image_multi_count
                0x0000000083f08880       0x28 common/libcommon.o
                0x0000000083f08880                image_multi_count
 .text.image_multi_getimg
                0x0000000083f088a8       0xb4 common/libcommon.o
                0x0000000083f088a8                image_multi_getimg
 .text.getenv_yesno
                0x0000000083f0895c       0x30 common/libcommon.o
                0x0000000083f0895c                getenv_yesno
 .text.memmove_wd
                0x0000000083f0898c       0x18 common/libcommon.o
                0x0000000083f0898c                memmove_wd
 .text.genimg_print_size
                0x0000000083f089a4       0x40 common/libcommon.o
                0x0000000083f089a4                genimg_print_size
 .text.image_print_contents
                0x0000000083f089e4       0xf0 common/libcommon.o
                0x0000000083f089e4                image_print_contents
 .text.get_table_entry_name
                0x0000000083f08ad4       0x24 common/libcommon.o
                0x0000000083f08ad4                get_table_entry_name
 .text.genimg_get_os_name
                0x0000000083f08af8       0x1c common/libcommon.o
                0x0000000083f08af8                genimg_get_os_name
 .text.genimg_get_arch_name
                0x0000000083f08b14       0x1c common/libcommon.o
                0x0000000083f08b14                genimg_get_arch_name
 .text.genimg_get_type_name
                0x0000000083f08b30       0x1c common/libcommon.o
                0x0000000083f08b30                genimg_get_type_name
 .text.genimg_get_format
                0x0000000083f08b4c        0x8 common/libcommon.o
                0x0000000083f08b4c                genimg_get_format
 .text.genimg_get_image
                0x0000000083f08b54        0x8 common/libcommon.o
                0x0000000083f08b54                genimg_get_image
 .text.boot_get_ramdisk
                0x0000000083f08b5c      0x200 common/libcommon.o
                0x0000000083f08b5c                boot_get_ramdisk
 .text.delete_char.part.0
                0x0000000083f08d5c      0x124 common/libcommon.o
 .text.cread_add_char
                0x0000000083f08e80      0x130 common/libcommon.o
 .text.__show_boot_progress
                0x0000000083f08fb0        0x8 common/libcommon.o
                0x0000000083f08fb0                __show_boot_progress
                0x0000000083f08fb0                show_boot_progress
 .text.readline_into_buffer
                0x0000000083f08fb8      0x98c common/libcommon.o
                0x0000000083f08fb8                readline_into_buffer
 .text.readline
                0x0000000083f09944       0x14 common/libcommon.o
                0x0000000083f09944                readline
 .text.parse_line
                0x0000000083f09958       0xb4 common/libcommon.o
                0x0000000083f09958                parse_line
 .text.run_command
                0x0000000083f09a0c      0x3d4 common/libcommon.o
                0x0000000083f09a0c                run_command
 .text.main_loop
                0x0000000083f09de0      0x168 common/libcommon.o
                0x0000000083f09de0                main_loop
 .text.do_run   0x0000000083f09f48       0xc4 common/libcommon.o
                0x0000000083f09f48                do_run
 .text.hex1_bin
                0x0000000083f0a00c       0x44 common/libcommon.o
 .text.hex2_bin
                0x0000000083f0a050       0x54 common/libcommon.o
 .text.srec_decode
                0x0000000083f0a0a4      0x268 common/libcommon.o
                0x0000000083f0a0a4                srec_decode
 .text.stdio_get_list
                0x0000000083f0a30c        0xc common/libcommon.o
                0x0000000083f0a30c                stdio_get_list
 .text.stdio_get_by_name
                0x0000000083f0a318       0x74 common/libcommon.o
                0x0000000083f0a318                stdio_get_by_name
 .text.stdio_clone
                0x0000000083f0a38c       0x6c common/libcommon.o
                0x0000000083f0a38c                stdio_clone
 .text.stdio_register
                0x0000000083f0a3f8       0x54 common/libcommon.o
                0x0000000083f0a3f8                stdio_register
 .text.stdio_init
                0x0000000083f0a44c       0x94 common/libcommon.o
                0x0000000083f0a44c                stdio_init
 .text.CYGACC_COMM_IF_GETC_TIMEOUT
                0x0000000083f0a4e0       0x78 common/libcommon.o
                0x0000000083f0a4e0                CYGACC_COMM_IF_GETC_TIMEOUT
 .text.xyzModem_flush
                0x0000000083f0a558       0x38 common/libcommon.o
 .text.xyzModem_get_hdr
                0x0000000083f0a590      0x2c4 common/libcommon.o
 .text.parse_num
                0x0000000083f0a854      0x12c common/libcommon.o
                0x0000000083f0a854                parse_num
 .text.xyzModem_stream_open
                0x0000000083f0a980      0x1a8 common/libcommon.o
                0x0000000083f0a980                xyzModem_stream_open
 .text.xyzModem_stream_read
                0x0000000083f0ab28      0x2c0 common/libcommon.o
                0x0000000083f0ab28                xyzModem_stream_read
 .text.xyzModem_stream_close
                0x0000000083f0ade8       0x5c common/libcommon.o
                0x0000000083f0ade8                xyzModem_stream_close
 .text.xyzModem_stream_terminate
                0x0000000083f0ae44       0xb8 common/libcommon.o
                0x0000000083f0ae44                xyzModem_stream_terminate
 .text.xyzModem_error
                0x0000000083f0aefc       0x30 common/libcommon.o
                0x0000000083f0aefc                xyzModem_error
 .text.sbrk     0x0000000083f0af2c       0x88 common/libcommon.o
                0x0000000083f0af2c                sbrk
 .text.mem_malloc_init
                0x0000000083f0afb4       0x28 common/libcommon.o
                0x0000000083f0afb4                mem_malloc_init
 .text.malloc_trim
                0x0000000083f0afdc      0x100 common/libcommon.o
                0x0000000083f0afdc                malloc_trim
 .text.free     0x0000000083f0b0dc      0x24c common/libcommon.o
                0x0000000083f0b0dc                free
 .text.malloc   0x0000000083f0b328      0x734 common/libcommon.o
                0x0000000083f0b328                malloc
 .text.calloc   0x0000000083f0ba5c      0x100 common/libcommon.o
                0x0000000083f0ba5c                calloc
 .text.cyg_crc16
                0x0000000083f0bb5c       0x50 lib/libgeneric.o
                0x0000000083f0bb5c                cyg_crc16
 .text.crc32_no_comp
                0x0000000083f0bbac      0x138 lib/libgeneric.o
                0x0000000083f0bbac                crc32_no_comp
 .text.crc32    0x0000000083f0bce4       0x20 lib/libgeneric.o
                0x0000000083f0bce4                crc32
 .text.crc32_wd
                0x0000000083f0bd04        0x8 lib/libgeneric.o
                0x0000000083f0bd04                crc32_wd
 .text.print_size
                0x0000000083f0bd0c      0x1b8 lib/libgeneric.o
                0x0000000083f0bd0c                print_size
 .text.print_buffer
                0x0000000083f0bec4      0x204 lib/libgeneric.o
                0x0000000083f0bec4                print_buffer
 .text.zalloc   0x0000000083f0c0c8       0x18 lib/libgeneric.o
                0x0000000083f0c0c8                zalloc
 .text.zfree    0x0000000083f0c0e0        0xc lib/libgeneric.o
                0x0000000083f0c0e0                zfree
 .text.zunzip   0x0000000083f0c0ec      0x140 lib/libgeneric.o
                0x0000000083f0c0ec                zunzip
 .text.gunzip   0x0000000083f0c22c       0xc4 lib/libgeneric.o
                0x0000000083f0c22c                gunzip
 .text.cmpkey   0x0000000083f0c2f0       0x18 lib/libgeneric.o
 .text.hcreate_r
                0x0000000083f0c308       0xac lib/libgeneric.o
                0x0000000083f0c308                hcreate_r
 .text.hdestroy_r
                0x0000000083f0c3b4       0x9c lib/libgeneric.o
                0x0000000083f0c3b4                hdestroy_r
 .text.hsearch_r
                0x0000000083f0c450      0x294 lib/libgeneric.o
                0x0000000083f0c450                hsearch_r
 .text.hdelete_r
                0x0000000083f0c6e4       0x9c lib/libgeneric.o
                0x0000000083f0c6e4                hdelete_r
 .text.hexport_r
                0x0000000083f0c780      0x2d0 lib/libgeneric.o
                0x0000000083f0c780                hexport_r
 .text.himport_r
                0x0000000083f0ca50      0x290 lib/libgeneric.o
                0x0000000083f0ca50                himport_r
 .text.string_to_ip
                0x0000000083f0cce0       0x94 lib/libgeneric.o
                0x0000000083f0cce0                string_to_ip
 .text.qsort    0x0000000083f0cd74      0x158 lib/libgeneric.o
                0x0000000083f0cd74                qsort
 .text.__div64_32
                0x0000000083f0cecc      0x114 lib/libgeneric.o
                0x0000000083f0cecc                __div64_32
 .text.strcpy   0x0000000083f0cfe0       0x24 lib/libgeneric.o
                0x0000000083f0cfe0                strcpy
 .text.strncpy  0x0000000083f0d004       0x2c lib/libgeneric.o
                0x0000000083f0d004                strncpy
 .text.strcmp   0x0000000083f0d030       0x2c lib/libgeneric.o
                0x0000000083f0d030                strcmp
 .text.strncmp  0x0000000083f0d05c       0x3c lib/libgeneric.o
                0x0000000083f0d05c                strncmp
 .text.strchr   0x0000000083f0d098       0x30 lib/libgeneric.o
                0x0000000083f0d098                strchr
 .text.strlen   0x0000000083f0d0c8       0x20 lib/libgeneric.o
                0x0000000083f0d0c8                strlen
 .text.strnlen  0x0000000083f0d0e8       0x28 lib/libgeneric.o
                0x0000000083f0d0e8                strnlen
 .text.strdup   0x0000000083f0d110       0x5c lib/libgeneric.o
                0x0000000083f0d110                strdup
 .text.memset   0x0000000083f0d16c       0x7c lib/libgeneric.o
                0x0000000083f0d16c                memset
 .text.memcpy   0x0000000083f0d1e8       0x7c lib/libgeneric.o
                0x0000000083f0d1e8                memcpy
 .text.memmove  0x0000000083f0d264       0x74 lib/libgeneric.o
                0x0000000083f0d264                memmove
 .text.memcmp   0x0000000083f0d2d8       0x30 lib/libgeneric.o
                0x0000000083f0d2d8                memcmp
 .text.memchr   0x0000000083f0d308       0x34 lib/libgeneric.o
                0x0000000083f0d308                memchr
 .text.udelay   0x0000000083f0d33c       0x68 lib/libgeneric.o
                0x0000000083f0d33c                udelay
 .text.mdelay   0x0000000083f0d3a4       0x34 lib/libgeneric.o
                0x0000000083f0d3a4                mdelay
 .text.put_dec_trunc
                0x0000000083f0d3d8      0x100 lib/libgeneric.o
 .text.string   0x0000000083f0d4d8       0xd8 lib/libgeneric.o
 .text.put_dec  0x0000000083f0d5b0      0x158 lib/libgeneric.o
 .text.number   0x0000000083f0d708      0x31c lib/libgeneric.o
 .text.simple_strtoul
                0x0000000083f0da24       0xdc lib/libgeneric.o
                0x0000000083f0da24                simple_strtoul
 .text.strict_strtoul
                0x0000000083f0db00       0xa0 lib/libgeneric.o
                0x0000000083f0db00                strict_strtoul
 .text.simple_strtol
                0x0000000083f0dba0       0x38 lib/libgeneric.o
                0x0000000083f0dba0                simple_strtol
 .text.vsprintf
                0x0000000083f0dbd8      0x744 lib/libgeneric.o
                0x0000000083f0dbd8                vsprintf
 .text.sprintf  0x0000000083f0e31c       0x28 lib/libgeneric.o
                0x0000000083f0e31c                sprintf
 .text.simple_itoa
                0x0000000083f0e344       0x44 lib/libgeneric.o
                0x0000000083f0e344                simple_itoa
 .text.LzmaDec_WriteRem
                0x0000000083f0e388       0xa0 lib/lzma/liblzma.o
 .text.LzmaDec_DecodeReal2
                0x0000000083f0e428      0xe94 lib/lzma/liblzma.o
 .text.LzmaDec_TryDummy
                0x0000000083f0f2bc      0x6fc lib/lzma/liblzma.o
 .text.LzmaDec_Init
                0x0000000083f0f9b8       0x24 lib/lzma/liblzma.o
                0x0000000083f0f9b8                LzmaDec_Init
 .text.LzmaDec_DecodeToDic
                0x0000000083f0f9dc      0x398 lib/lzma/liblzma.o
                0x0000000083f0f9dc                LzmaDec_DecodeToDic
 .text.LzmaDec_FreeProbs
                0x0000000083f0fd74       0x34 lib/lzma/liblzma.o
                0x0000000083f0fd74                LzmaDec_FreeProbs
 .text.LzmaDec_AllocateProbs2
                0x0000000083f0fda8       0x90 lib/lzma/liblzma.o
 .text.LzmaProps_Decode
                0x0000000083f0fe38       0x94 lib/lzma/liblzma.o
                0x0000000083f0fe38                LzmaProps_Decode
 .text.LzmaDec_AllocateProbs
                0x0000000083f0fecc       0x70 lib/lzma/liblzma.o
                0x0000000083f0fecc                LzmaDec_AllocateProbs
 .text.LzmaDecode
                0x0000000083f0ff3c      0x118 lib/lzma/liblzma.o
                0x0000000083f0ff3c                LzmaDecode
 .text.SzFree   0x0000000083f10054        0xc lib/lzma/liblzma.o
 .text.SzAlloc  0x0000000083f10060        0xc lib/lzma/liblzma.o
 .text.lzmaBuffToBuffDecompress
                0x0000000083f1006c      0x104 lib/lzma/liblzma.o
                0x0000000083f1006c                lzmaBuffToBuffDecompress
 .text.zcalloc  0x0000000083f10170        0xc lib/zlib/libz.o
                0x0000000083f10170                zcalloc
 .text.zcfree   0x0000000083f1017c        0xc lib/zlib/libz.o
                0x0000000083f1017c                zcfree
 .text.inflate_fast
                0x0000000083f10188      0x59c lib/zlib/libz.o
                0x0000000083f10188                inflate_fast
 .text.inflate_table
                0x0000000083f10724      0x4fc lib/zlib/libz.o
                0x0000000083f10724                inflate_table
 .text.inflateReset
                0x0000000083f10c20       0x78 lib/zlib/libz.o
                0x0000000083f10c20                inflateReset
 .text.inflateInit2_
                0x0000000083f10c98      0x124 lib/zlib/libz.o
                0x0000000083f10c98                inflateInit2_
 .text.inflateEnd
                0x0000000083f10dbc       0x78 lib/zlib/libz.o
                0x0000000083f10dbc                inflateEnd
 .text.adler32  0x0000000083f10e34      0x300 lib/zlib/libz.o
                0x0000000083f10e34                adler32
 .text.inflate  0x0000000083f11134     0x161c lib/zlib/libz.o
                0x0000000083f11134                inflate
 .text.BootpHandler
                0x0000000083f12750      0x3c4 net/libnet.o
 .text.BootpRequest
                0x0000000083f12b14      0x244 net/libnet.o
                0x0000000083f12b14                BootpRequest
 .text.BootpTimeout
                0x0000000083f12d58       0x4c net/libnet.o
 .text.__def_eth_init
                0x0000000083f12da4        0x8 net/libnet.o
                0x0000000083f12da4                cpu_eth_init
                0x0000000083f12da4                board_eth_init
 .text.eth_current_changed
                0x0000000083f12dac       0x98 net/libnet.o
 .text.eth_parse_enetaddr
                0x0000000083f12e44       0x88 net/libnet.o
                0x0000000083f12e44                eth_parse_enetaddr
 .text.eth_getenv_enetaddr
                0x0000000083f12ecc       0x70 net/libnet.o
                0x0000000083f12ecc                eth_getenv_enetaddr
 .text.eth_getenv_enetaddr_by_index
                0x0000000083f12f3c       0x58 net/libnet.o
                0x0000000083f12f3c                eth_getenv_enetaddr_by_index
 .text.eth_get_dev
                0x0000000083f12f94        0xc net/libnet.o
                0x0000000083f12f94                eth_get_dev
 .text.eth_get_dev_index
                0x0000000083f12fa0       0x40 net/libnet.o
                0x0000000083f12fa0                eth_get_dev_index
 .text.eth_write_hwaddr
                0x0000000083f12fe0      0x188 net/libnet.o
                0x0000000083f12fe0                eth_write_hwaddr
 .text.eth_register
                0x0000000083f13168       0x78 net/libnet.o
                0x0000000083f13168                eth_register
 .text.eth_initialize
                0x0000000083f131e0      0x198 net/libnet.o
                0x0000000083f131e0                eth_initialize
 .text.eth_halt
                0x0000000083f13378       0x44 net/libnet.o
                0x0000000083f13378                eth_halt
 .text.eth_send
                0x0000000083f133bc       0x2c net/libnet.o
                0x0000000083f133bc                eth_send
 .text.eth_rx   0x0000000083f133e8       0x24 net/libnet.o
                0x0000000083f133e8                eth_rx
 .text.eth_try_another
                0x0000000083f1340c       0xac net/libnet.o
                0x0000000083f1340c                eth_try_another
 .text.eth_init
                0x0000000083f134b8      0x104 net/libnet.o
                0x0000000083f134b8                eth_init
 .text.eth_set_current
                0x0000000083f135bc       0xd0 net/libnet.o
                0x0000000083f135bc                eth_set_current
 .text.eth_get_name
                0x0000000083f1368c       0x20 net/libnet.o
                0x0000000083f1368c                eth_get_name
 .text.startAgainTimeout
                0x0000000083f136ac       0x10 net/libnet.o
 .text.startAgainHandler
                0x0000000083f136bc        0x8 net/libnet.o
 .text.PingHandler
                0x0000000083f136c4       0x20 net/libnet.o
 .text.NetCopyIP
                0x0000000083f136e4        0xc net/libnet.o
 .text.PingTimeout
                0x0000000083f136f0       0x28 net/libnet.o
 .text.getenv_IPaddr
                0x0000000083f13718       0x20 net/libnet.o
 .text.net_auto_load
                0x0000000083f13738       0x4c net/libnet.o
                0x0000000083f13738                net_auto_load
 .text.NetStartAgain
                0x0000000083f13784      0x150 net/libnet.o
                0x0000000083f13784                NetStartAgain
 .text.NetSetHandler
                0x0000000083f138d4        0xc net/libnet.o
                0x0000000083f138d4                NetSetHandler
 .text.NetSetTimeout
                0x0000000083f138e0       0x4c net/libnet.o
                0x0000000083f138e0                NetSetTimeout
 .text.NetSendPacket
                0x0000000083f1392c        0x8 net/libnet.o
                0x0000000083f1392c                NetSendPacket
 .text.NetCksum
                0x0000000083f13934       0x38 net/libnet.o
                0x0000000083f13934                NetCksum
 .text.NetCksumOk
                0x0000000083f1396c       0x28 net/libnet.o
                0x0000000083f1396c                NetCksumOk
 .text.NetEthHdrSize
                0x0000000083f13994       0x2c net/libnet.o
                0x0000000083f13994                NetEthHdrSize
 .text.NetSetEther
                0x0000000083f139c0       0x94 net/libnet.o
                0x0000000083f139c0                NetSetEther
 .text.ArpRequest
                0x0000000083f13a54      0x12c net/libnet.o
                0x0000000083f13a54                ArpRequest
 .text.ArpTimeoutCheck
                0x0000000083f13b80       0x98 net/libnet.o
                0x0000000083f13b80                ArpTimeoutCheck
 .text.PingSend
                0x0000000083f13c18      0x16c net/libnet.o
                0x0000000083f13c18                PingSend
 .text.NetReceive
                0x0000000083f13d84      0x4b0 net/libnet.o
                0x0000000083f13d84                NetReceive
 .text.NetSetIP
                0x0000000083f14234       0xe8 net/libnet.o
                0x0000000083f14234                NetSetIP
 .text.NetSendUDPPacket
                0x0000000083f1431c      0x194 net/libnet.o
                0x0000000083f1431c                NetSendUDPPacket
 .text.copy_filename
                0x0000000083f144b0       0x4c net/libnet.o
                0x0000000083f144b0                copy_filename
 .text.ip_to_string
                0x0000000083f144fc       0x40 net/libnet.o
                0x0000000083f144fc                ip_to_string
 .text.string_to_VLAN
                0x0000000083f1453c       0x54 net/libnet.o
                0x0000000083f1453c                string_to_VLAN
 .text.getenv_VLAN
                0x0000000083f14590       0x20 net/libnet.o
                0x0000000083f14590                getenv_VLAN
 .text.NetLoop  0x0000000083f145b0      0x4e4 net/libnet.o
                0x0000000083f145b0                NetLoop
 .text.TftpSend
                0x0000000083f14a94      0x1cc net/libnet.o
 .text.TftpHandler
                0x0000000083f14c60      0x35c net/libnet.o
 .text.TftpTimeout
                0x0000000083f14fbc       0x8c net/libnet.o
 .text.TftpStart
                0x0000000083f15048      0x328 net/libnet.o
                0x0000000083f15048                TftpStart
 .text.sw_set_spif_div
                0x0000000083f15370       0x28 board/Realtek/rtl9300/librtl9300.o
 .text.initdram
                0x0000000083f15398       0xc0 board/Realtek/rtl9300/librtl9300.o
                0x0000000083f15398                initdram
 .text.checkboard
                0x0000000083f15458        0x8 board/Realtek/rtl9300/librtl9300.o
                0x0000000083f15458                checkboard
 .text.do_reset_all
                0x0000000083f15460       0x3c board/Realtek/rtl9300/librtl9300.o
                0x0000000083f15460                do_reset_all
 .text.uboot_sdk_init
                0x0000000083f1549c       0x9c board/Realtek/rtl9300/librtl9300.o
                0x0000000083f1549c                uboot_sdk_init
 .text.misc_init_r
                0x0000000083f15538        0x8 board/Realtek/rtl9300/librtl9300.o
                0x0000000083f15538                misc_init_r
 .text.sys_envmatch
                0x0000000083f15540       0x64 board/Realtek/rtl9300/librtl9300.o
 .text.sysinfo_mem_init
                0x0000000083f155a4       0x48 board/Realtek/rtl9300/librtl9300.o
                0x0000000083f155a4                sysinfo_mem_init
 .text.do_printsys
                0x0000000083f155ec      0x244 board/Realtek/rtl9300/librtl9300.o
                0x0000000083f155ec                do_printsys
 .text._do_setsys
                0x0000000083f15830      0x244 board/Realtek/rtl9300/librtl9300.o
                0x0000000083f15830                _do_setsys
 .text.do_setsys
                0x0000000083f15a74       0x44 board/Realtek/rtl9300/librtl9300.o
                0x0000000083f15a74                do_setsys
 .text.savesys  0x0000000083f15ab8       0xfc board/Realtek/rtl9300/librtl9300.o
                0x0000000083f15ab8                savesys
 .text.do_savesys
                0x0000000083f15bb4        0x8 board/Realtek/rtl9300/librtl9300.o
                0x0000000083f15bb4                do_savesys
 .text._tftpDownloadFile
                0x0000000083f15bbc       0xec board/Realtek/rtl9300/librtl9300.o
 .text._write2flash
                0x0000000083f15ca8      0x1d0 board/Realtek/rtl9300/librtl9300.o
 .text.sdk_get_paritition_info
                0x0000000083f15e78      0x13c board/Realtek/rtl9300/librtl9300.o
                0x0000000083f15e78                sdk_get_paritition_info
 .text.flash_partition_size_ret
                0x0000000083f15fb4       0x2c board/Realtek/rtl9300/librtl9300.o
                0x0000000083f15fb4                flash_partition_size_ret
 .text._loaderCheck.constprop.3
                0x0000000083f15fe0      0x1e8 board/Realtek/rtl9300/librtl9300.o
 .text.flash_partition_addr_ret
                0x0000000083f161c8       0x2c board/Realtek/rtl9300/librtl9300.o
                0x0000000083f161c8                flash_partition_addr_ret
 .text.upgrade_loader
                0x0000000083f161f4       0xe4 board/Realtek/rtl9300/librtl9300.o
                0x0000000083f161f4                upgrade_loader
 .text.upgrade_runtime
                0x0000000083f162d8      0x1cc board/Realtek/rtl9300/librtl9300.o
                0x0000000083f162d8                upgrade_runtime
 .text.upgrade_rom
                0x0000000083f164a4      0x2bc board/Realtek/rtl9300/librtl9300.o
                0x0000000083f164a4                upgrade_rom
 .text.do_upgrade
                0x0000000083f16760      0x2bc board/Realtek/rtl9300/librtl9300.o
                0x0000000083f16760                do_upgrade
 .text.do_partshow
                0x0000000083f16a1c      0x110 board/Realtek/rtl9300/librtl9300.o
                0x0000000083f16a1c                do_partshow
 .text.do_parterase
                0x0000000083f16b2c      0x118 board/Realtek/rtl9300/librtl9300.o
                0x0000000083f16b2c                do_parterase
 .text.do_rtk   0x0000000083f16c44      0xff8 board/Realtek/rtl9300/librtl9300.o
                0x0000000083f16c44                do_rtk
 .text.rtk_network_on
                0x0000000083f17c3c      0x144 board/Realtek/rtl9300/librtl9300.o
                0x0000000083f17c3c                rtk_network_on
 .text.rtk_network_off
                0x0000000083f17d80       0xc8 board/Realtek/rtl9300/librtl9300.o
                0x0000000083f17d80                rtk_network_off
 .text.rtk_hwProfileList_show
                0x0000000083f17e48        0x8 board/Realtek/rtl9300/librtl9300.o
                0x0000000083f17e48                rtk_hwProfileList_show
 .text.rtk_forcelinkDown10Gserdes
                0x0000000083f17e50      0x168 board/Realtek/rtl9300/librtl9300.o
                0x0000000083f17e50                rtk_forcelinkDown10Gserdes
 .text._rtk_comboport_media_set
                0x0000000083f17fb8      0x108 board/Realtek/rtl9300/librtl9300.o
                0x0000000083f17fb8                _rtk_comboport_media_set
 .text.rtk_comboport_fiber
                0x0000000083f180c0       0x14 board/Realtek/rtl9300/librtl9300.o
                0x0000000083f180c0                rtk_comboport_fiber
 .text.rtk_comboport_copper
                0x0000000083f180d4       0x14 board/Realtek/rtl9300/librtl9300.o
                0x0000000083f180d4                rtk_comboport_copper
 .text.rtk_saLearning
                0x0000000083f180e8      0x100 board/Realtek/rtl9300/librtl9300.o
                0x0000000083f180e8                rtk_saLearning
 .text.rtk_port_isolation_on
                0x0000000083f181e8      0x20c board/Realtek/rtl9300/librtl9300.o
                0x0000000083f181e8                rtk_port_isolation_on
 .text.rtk_port_isolation_off
                0x0000000083f183f4      0x174 board/Realtek/rtl9300/librtl9300.o
                0x0000000083f183f4                rtk_port_isolation_off
 .text.rtk_intGpio_pin_set
                0x0000000083f18568       0xac board/Realtek/rtl9300/librtl9300.o
                0x0000000083f18568                rtk_intGpio_pin_set
 .text.rtk_intGpio_pin_get
                0x0000000083f18614       0xac board/Realtek/rtl9300/librtl9300.o
                0x0000000083f18614                rtk_intGpio_pin_get
 .text.rtk_extGpio_device_init
                0x0000000083f186c0       0x98 board/Realtek/rtl9300/librtl9300.o
                0x0000000083f186c0                rtk_extGpio_device_init
 .text.rtk_extGpio_pin_set
                0x0000000083f18758       0x90 board/Realtek/rtl9300/librtl9300.o
                0x0000000083f18758                rtk_extGpio_pin_set
 .text.rtk_extGpio_pin_get
                0x0000000083f187e8       0x90 board/Realtek/rtl9300/librtl9300.o
                0x0000000083f187e8                rtk_extGpio_pin_get
 .text.rtk_swled_init
                0x0000000083f18878      0x108 board/Realtek/rtl9300/librtl9300.o
                0x0000000083f18878                rtk_swled_init
 .text.rtk_swled_out
                0x0000000083f18980      0x1e8 board/Realtek/rtl9300/librtl9300.o
                0x0000000083f18980                rtk_swled_out
 .text.rtk_swled_uninit
                0x0000000083f18b68      0x100 board/Realtek/rtl9300/librtl9300.o
                0x0000000083f18b68                rtk_swled_uninit
 .text.rtk_swledtest_on
                0x0000000083f18c68      0x1c0 board/Realtek/rtl9300/librtl9300.o
                0x0000000083f18c68                rtk_swledtest_on
 .text.rtk_ledTest_run
                0x0000000083f18e28      0x39c board/Realtek/rtl9300/librtl9300.o
                0x0000000083f18e28                rtk_ledTest_run
 .text.rtk_phyreg_get
                0x0000000083f191c4       0xfc board/Realtek/rtl9300/librtl9300.o
                0x0000000083f191c4                rtk_phyreg_get
 .text.rtk_phyreg_set
                0x0000000083f192c0      0x11c board/Realtek/rtl9300/librtl9300.o
                0x0000000083f192c0                rtk_phyreg_set
 .text.rtk_phymmd_get
                0x0000000083f193dc       0xc0 board/Realtek/rtl9300/librtl9300.o
                0x0000000083f193dc                rtk_phymmd_get
 .text.rtk_phymmd_set
                0x0000000083f1949c       0xd0 board/Realtek/rtl9300/librtl9300.o
                0x0000000083f1949c                rtk_phymmd_set
 .text.rtk_sdsreg_get
                0x0000000083f1956c       0xc0 board/Realtek/rtl9300/librtl9300.o
                0x0000000083f1956c                rtk_sdsreg_get
 .text.rtk_sdsreg_set
                0x0000000083f1962c       0xd0 board/Realtek/rtl9300/librtl9300.o
                0x0000000083f1962c                rtk_sdsreg_set
 .text.rtk_phyreg_portmask_set
                0x0000000083f196fc      0x1b8 board/Realtek/rtl9300/librtl9300.o
                0x0000000083f196fc                rtk_phyreg_portmask_set
 .text.rtk_phyreg_dump_top
                0x0000000083f198b4        0x8 board/Realtek/rtl9300/librtl9300.o
                0x0000000083f198b4                rtk_phyreg_dump_top
 .text.rtk_phy_testmode
                0x0000000083f198bc      0x128 board/Realtek/rtl9300/librtl9300.o
                0x0000000083f198bc                rtk_phy_testmode
 .text.rtk_i2c_sw_init
                0x0000000083f199e4      0x2a8 board/Realtek/rtl9300/librtl9300.o
                0x0000000083f199e4                rtk_i2c_sw_init
 .text.rtk_i2c_hw_init
                0x0000000083f19c8c      0x110 board/Realtek/rtl9300/librtl9300.o
                0x0000000083f19c8c                rtk_i2c_hw_init
 .text.rtk_i2c_read
                0x0000000083f19d9c       0x60 board/Realtek/rtl9300/librtl9300.o
                0x0000000083f19d9c                rtk_i2c_read
 .text.rtk_i2c_write
                0x0000000083f19dfc       0x68 board/Realtek/rtl9300/librtl9300.o
                0x0000000083f19dfc                rtk_i2c_write
 .text.rtk_boardId_get
                0x0000000083f19e64       0x34 board/Realtek/rtl9300/librtl9300.o
                0x0000000083f19e64                rtk_boardId_get
 .text.rtk_boardId_set
                0x0000000083f19e98       0x54 board/Realtek/rtl9300/librtl9300.o
                0x0000000083f19e98                rtk_boardId_set
 .text.rtk_boardModel_get
                0x0000000083f19eec       0x34 board/Realtek/rtl9300/librtl9300.o
                0x0000000083f19eec                rtk_boardModel_get
 .text.rtk_boardModel_set
                0x0000000083f19f20       0x30 board/Realtek/rtl9300/librtl9300.o
                0x0000000083f19f20                rtk_boardModel_set
 .text._rtk_10gMedia_set
                0x0000000083f19f50       0xa0 board/Realtek/rtl9300/librtl9300.o
                0x0000000083f19f50                _rtk_10gMedia_set
 .text.rtk_10gMedia_none_set
                0x0000000083f19ff0        0xc board/Realtek/rtl9300/librtl9300.o
                0x0000000083f19ff0                rtk_10gMedia_none_set
 .text.rtk_10gMedia_fiber10g_set
                0x0000000083f19ffc        0xc board/Realtek/rtl9300/librtl9300.o
                0x0000000083f19ffc                rtk_10gMedia_fiber10g_set
 .text.rtk_10gMedia_fiber1g_set
                0x0000000083f1a008        0xc board/Realtek/rtl9300/librtl9300.o
                0x0000000083f1a008                rtk_10gMedia_fiber1g_set
 .text.rtk_10gMedia_dac50cm_set
                0x0000000083f1a014        0xc board/Realtek/rtl9300/librtl9300.o
                0x0000000083f1a014                rtk_10gMedia_dac50cm_set
 .text.rtk_10gMedia_dac100cm_set
                0x0000000083f1a020        0xc board/Realtek/rtl9300/librtl9300.o
                0x0000000083f1a020                rtk_10gMedia_dac100cm_set
 .text.rtk_10gMedia_dac300cm_set
                0x0000000083f1a02c        0xc board/Realtek/rtl9300/librtl9300.o
                0x0000000083f1a02c                rtk_10gMedia_dac300cm_set
 .text.rtk_mac_sdsMode_set
                0x0000000083f1a038       0xc8 board/Realtek/rtl9300/librtl9300.o
                0x0000000083f1a038                rtk_mac_sdsMode_set
 .text.rtcore_init
                0x0000000083f1a100      0x284 board/Realtek/rtl9300/librtl9300.o
                0x0000000083f1a100                rtcore_init
 .text._hwp_portCount_add
                0x0000000083f1a384       0x34 board/Realtek/rtl9300/librtl9300.o
 .text._hwp_portMaskAll_default
                0x0000000083f1a3b8       0xc0 board/Realtek/rtl9300/librtl9300.o
 .text._hwp_parsedInfo_default
                0x0000000083f1a478      0x1f8 board/Realtek/rtl9300/librtl9300.o
                0x0000000083f1a478                _hwp_parsedInfo_default
 .text._hwp_chip_parse
                0x0000000083f1a670      0x440 board/Realtek/rtl9300/librtl9300.o
                0x0000000083f1a670                _hwp_chip_parse
 .text._hwp_port_parse
                0x0000000083f1aab0      0x98c board/Realtek/rtl9300/librtl9300.o
                0x0000000083f1aab0                _hwp_port_parse
 .text._hwp_serdes_parse
                0x0000000083f1b43c      0x3b4 board/Realtek/rtl9300/librtl9300.o
                0x0000000083f1b43c                _hwp_serdes_parse
 .text._hwp_led_parse
                0x0000000083f1b7f0      0x2bc board/Realtek/rtl9300/librtl9300.o
                0x0000000083f1b7f0                _hwp_led_parse
 .text._hwp_cascade_parse
                0x0000000083f1baac       0xa4 board/Realtek/rtl9300/librtl9300.o
                0x0000000083f1baac                _hwp_cascade_parse
 .text._hwp_info_parse
                0x0000000083f1bb50       0x6c board/Realtek/rtl9300/librtl9300.o
                0x0000000083f1bb50                _hwp_info_parse
 .text.hwp_parsedInfo_buildup
                0x0000000083f1bbbc       0xbc board/Realtek/rtl9300/librtl9300.o
                0x0000000083f1bbbc                hwp_parsedInfo_buildup
 .text.hwp_unit_attach
                0x0000000083f1bc78       0xf0 board/Realtek/rtl9300/librtl9300.o
                0x0000000083f1bc78                hwp_unit_attach
 .text.hwp_init_sys
                0x0000000083f1bd68      0x248 board/Realtek/rtl9300/librtl9300.o
                0x0000000083f1bd68                hwp_init_sys
 .text.hwp_init
                0x0000000083f1bfb0       0x94 board/Realtek/rtl9300/librtl9300.o
                0x0000000083f1bfb0                hwp_init
 .text.hwp_profilePhy_del
                0x0000000083f1c044      0x164 board/Realtek/rtl9300/librtl9300.o
                0x0000000083f1c044                hwp_profilePhy_del
 .text.hwp_profilePhy_update
                0x0000000083f1c1a8       0x84 board/Realtek/rtl9300/librtl9300.o
                0x0000000083f1c1a8                hwp_profilePhy_update
 .text.hwp_portmaskAttriValid_Chk
                0x0000000083f1c22c      0x188 board/Realtek/rtl9300/librtl9300.o
                0x0000000083f1c22c                hwp_portmaskAttriValid_Chk
 .text.hwp_portmaskValid_Chk
                0x0000000083f1c3b4       0x58 board/Realtek/rtl9300/librtl9300.o
                0x0000000083f1c3b4                hwp_portmaskValid_Chk
 .text._hwp_portInUplink_check
                0x0000000083f1c40c       0x38 board/Realtek/rtl9300/librtl9300.o
                0x0000000083f1c40c                _hwp_portInUplink_check
 .text.hwp_multiSdsPortLaneNum_get
                0x0000000083f1c444       0x88 board/Realtek/rtl9300/librtl9300.o
                0x0000000083f1c444                hwp_multiSdsPortLaneNum_get
 .text.hwp_get_port_by_baseport_offset
                0x0000000083f1c4cc       0xd4 board/Realtek/rtl9300/librtl9300.o
                0x0000000083f1c4cc                hwp_get_port_by_baseport_offset
 .text.hwp_get_offset_by_baseport_port
                0x0000000083f1c5a0       0xd0 board/Realtek/rtl9300/librtl9300.o
                0x0000000083f1c5a0                hwp_get_offset_by_baseport_port
 .text.hwp_forcedProfile_get
                0x0000000083f1c670       0x9c board/Realtek/rtl9300/librtl9300.o
                0x0000000083f1c670                hwp_forcedProfile_get
 .text.hwp_identifier_cmp
                0x0000000083f1c70c       0x7c board/Realtek/rtl9300/librtl9300.o
                0x0000000083f1c70c                hwp_identifier_cmp
 .text.hwp_chipInfo_update
                0x0000000083f1c788       0xc0 board/Realtek/rtl9300/librtl9300.o
                0x0000000083f1c788                hwp_chipInfo_update
 .text.hwp_profileList_show
                0x0000000083f1c848       0xa8 board/Realtek/rtl9300/librtl9300.o
                0x0000000083f1c848                hwp_profileList_show
 .text.hwp_probeFailure_handler
                0x0000000083f1c8f0       0x2c board/Realtek/rtl9300/librtl9300.o
                0x0000000083f1c8f0                hwp_probeFailure_handler
 .text.hwp_profile_find
                0x0000000083f1c91c       0x68 board/Realtek/rtl9300/librtl9300.o
                0x0000000083f1c91c                hwp_profile_find
 .text._hwp_hwpDatabaseDefault_init
                0x0000000083f1c984       0x54 board/Realtek/rtl9300/librtl9300.o
                0x0000000083f1c984                _hwp_hwpDatabaseDefault_init
 .text.hwp_probe
                0x0000000083f1c9d8      0x130 board/Realtek/rtl9300/librtl9300.o
                0x0000000083f1c9d8                hwp_probe
 .text.ioal_init_memRegion_get
                0x0000000083f1cb08       0x6c board/Realtek/rtl9300/librtl9300.o
                0x0000000083f1cb08                ioal_init_memRegion_get
 .text.ioal_init
                0x0000000083f1cb74       0x84 board/Realtek/rtl9300/librtl9300.o
                0x0000000083f1cb74                ioal_init
 .text.ioal_init_unitID_change
                0x0000000083f1cbf8       0xa4 board/Realtek/rtl9300/librtl9300.o
                0x0000000083f1cbf8                ioal_init_unitID_change
 .text.ioal_param_hwpIdKey_get
                0x0000000083f1cc9c      0x120 board/Realtek/rtl9300/librtl9300.o
                0x0000000083f1cc9c                ioal_param_hwpIdKey_get
 .text.ioal_mem32_check
                0x0000000083f1cdbc       0x40 board/Realtek/rtl9300/librtl9300.o
                0x0000000083f1cdbc                ioal_mem32_check
 .text.ioal_mem32_read
                0x0000000083f1cdfc      0x164 board/Realtek/rtl9300/librtl9300.o
                0x0000000083f1cdfc                ioal_mem32_read
 .text.ioal_mem32_write
                0x0000000083f1cf60      0x138 board/Realtek/rtl9300/librtl9300.o
                0x0000000083f1cf60                ioal_mem32_write
 .text.ioal_mem32_field_read
                0x0000000083f1d098       0x4c board/Realtek/rtl9300/librtl9300.o
                0x0000000083f1d098                ioal_mem32_field_read
 .text.ioal_mem32_field_write
                0x0000000083f1d0e4       0x80 board/Realtek/rtl9300/librtl9300.o
                0x0000000083f1d0e4                ioal_mem32_field_write
 .text.ioal_soc_mem32_read
                0x0000000083f1d164       0x4c board/Realtek/rtl9300/librtl9300.o
                0x0000000083f1d164                ioal_soc_mem32_read
 .text.ioal_soc_mem32_write
                0x0000000083f1d1b0       0x48 board/Realtek/rtl9300/librtl9300.o
                0x0000000083f1d1b0                ioal_soc_mem32_write
 .text.osal_time_usleep
                0x0000000083f1d1f8        0x8 board/Realtek/rtl9300/librtl9300.o
                0x0000000083f1d1f8                osal_time_usleep
 .text.osal_time_udelay
                0x0000000083f1d200       0x48 board/Realtek/rtl9300/librtl9300.o
                0x0000000083f1d200                osal_time_udelay
 .text.osal_time_mdelay
                0x0000000083f1d248        0x8 board/Realtek/rtl9300/librtl9300.o
                0x0000000083f1d248                osal_time_mdelay
 .text.osal_time_usecs_get
                0x0000000083f1d250       0x38 board/Realtek/rtl9300/librtl9300.o
                0x0000000083f1d250                osal_time_usecs_get
 .text.osal_alloc
                0x0000000083f1d288        0x8 board/Realtek/rtl9300/librtl9300.o
                0x0000000083f1d288                osal_alloc
 .text.osal_free
                0x0000000083f1d290        0x8 board/Realtek/rtl9300/librtl9300.o
                0x0000000083f1d290                osal_free
 .text.osal_sem_mutex_create
                0x0000000083f1d298        0x8 board/Realtek/rtl9300/librtl9300.o
                0x0000000083f1d298                osal_sem_mutex_create
 .text.osal_sem_mutex_take
                0x0000000083f1d2a0        0x8 board/Realtek/rtl9300/librtl9300.o
                0x0000000083f1d2a0                osal_sem_mutex_take
 .text.osal_sem_mutex_give
                0x0000000083f1d2a8        0x8 board/Realtek/rtl9300/librtl9300.o
                0x0000000083f1d2a8                osal_sem_mutex_give
 .text.osal_cache_memory_flush
                0x0000000083f1d2b0       0x20 board/Realtek/rtl9300/librtl9300.o
                0x0000000083f1d2b0                osal_cache_memory_flush
 .text.drv_swcore_reg32_read
                0x0000000083f1d2d0       0x10 board/Realtek/rtl9300/librtl9300.o
                0x0000000083f1d2d0                drv_swcore_reg32_read
 .text._drv_swcore_cid9300_get
                0x0000000083f1d2e0      0x1d4 board/Realtek/rtl9300/librtl9300.o
 .text.drv_swcore_earlyInit_end
                0x0000000083f1d4b4        0xc board/Realtek/rtl9300/librtl9300.o
                0x0000000083f1d4b4                drv_swcore_earlyInit_end
 .text.drv_swcore_ioalCB_register
                0x0000000083f1d4c0       0x14 board/Realtek/rtl9300/librtl9300.o
                0x0000000083f1d4c0                drv_swcore_ioalCB_register
 .text.drv_swcore_chipFamilyId_get
                0x0000000083f1d4d4       0x20 board/Realtek/rtl9300/librtl9300.o
                0x0000000083f1d4d4                drv_swcore_chipFamilyId_get
 .text.drv_swcore_cid_get
                0x0000000083f1d4f4       0x3c board/Realtek/rtl9300/librtl9300.o
                0x0000000083f1d4f4                drv_swcore_cid_get
 .text.nic_probe
                0x0000000083f1d530       0x7c board/Realtek/rtl9300/librtl9300.o
                0x0000000083f1d530                nic_probe
 .text._nic_ringInfo_get
                0x0000000083f1d5ac       0x34 board/Realtek/rtl9300/librtl9300.o
                0x0000000083f1d5ac                _nic_ringInfo_get
 .text._nic_cpuPortTxRxEnable_set
                0x0000000083f1d5e0       0x34 board/Realtek/rtl9300/librtl9300.o
                0x0000000083f1d5e0                _nic_cpuPortTxRxEnable_set
 .text._nic_intrMask_get
                0x0000000083f1d614       0x34 board/Realtek/rtl9300/librtl9300.o
                0x0000000083f1d614                _nic_intrMask_get
 .text._nic_intrMask_set
                0x0000000083f1d648       0x34 board/Realtek/rtl9300/librtl9300.o
                0x0000000083f1d648                _nic_intrMask_set
 .text._nic_intrSts_get
                0x0000000083f1d67c       0x34 board/Realtek/rtl9300/librtl9300.o
                0x0000000083f1d67c                _nic_intrSts_get
 .text._nic_intrSts_set
                0x0000000083f1d6b0       0x34 board/Realtek/rtl9300/librtl9300.o
                0x0000000083f1d6b0                _nic_intrSts_set
 .text._nic_swQueRst_get
                0x0000000083f1d6e4       0x34 board/Realtek/rtl9300/librtl9300.o
                0x0000000083f1d6e4                _nic_swQueRst_get
 .text._nic_swQueRst_set
                0x0000000083f1d718       0x34 board/Realtek/rtl9300/librtl9300.o
                0x0000000083f1d718                _nic_swQueRst_set
 .text._nic_cpuL2FloodMask_add
                0x0000000083f1d74c       0x34 board/Realtek/rtl9300/librtl9300.o
                0x0000000083f1d74c                _nic_cpuL2FloodMask_add
 .text._nic_cpuForceLinkupEnable_set
                0x0000000083f1d780       0x34 board/Realtek/rtl9300/librtl9300.o
                0x0000000083f1d780                _nic_cpuForceLinkupEnable_set
 .text._nic_holRingSize_set
                0x0000000083f1d7b4       0x34 board/Realtek/rtl9300/librtl9300.o
                0x0000000083f1d7b4                _nic_holRingSize_set
 .text._nic_ntfyBaseAddr_get
                0x0000000083f1d7e8       0x34 board/Realtek/rtl9300/librtl9300.o
                0x0000000083f1d7e8                _nic_ntfyBaseAddr_get
 .text._nic_ntfyBaseAddr_set
                0x0000000083f1d81c       0x34 board/Realtek/rtl9300/librtl9300.o
                0x0000000083f1d81c                _nic_ntfyBaseAddr_set
 .text._nic_ringBaseAddr_set
                0x0000000083f1d850       0x34 board/Realtek/rtl9300/librtl9300.o
                0x0000000083f1d850                _nic_ringBaseAddr_set
 .text._nic_ringCurAddr_get
                0x0000000083f1d884       0x34 board/Realtek/rtl9300/librtl9300.o
                0x0000000083f1d884                _nic_ringCurAddr_get
 .text._nic_isr_mbRoutine
                0x0000000083f1d8b8      0x220 board/Realtek/rtl9300/librtl9300.o
 .text._nic_rxTruncateLength_set
                0x0000000083f1dad8       0x34 board/Realtek/rtl9300/librtl9300.o
                0x0000000083f1dad8                _nic_rxTruncateLength_set
 .text._nic_nicEnable_set
                0x0000000083f1db0c       0x34 board/Realtek/rtl9300/librtl9300.o
                0x0000000083f1db0c                _nic_nicEnable_set
 .text._nic_nicTxFetch_set
                0x0000000083f1db40       0x34 board/Realtek/rtl9300/librtl9300.o
                0x0000000083f1db40                _nic_nicTxFetch_set
 .text._nic_cpuTagId_get
                0x0000000083f1db74       0x34 board/Realtek/rtl9300/librtl9300.o
                0x0000000083f1db74                _nic_cpuTagId_get
 .text._nic_supportJumboSize_get
                0x0000000083f1dba8       0x34 board/Realtek/rtl9300/librtl9300.o
                0x0000000083f1dba8                _nic_supportJumboSize_get
 .text._nic_init
                0x0000000083f1dbdc      0xbdc board/Realtek/rtl9300/librtl9300.o
 .text._nic_cpuTagFromRaw_cnvt
                0x0000000083f1e7b8       0x34 board/Realtek/rtl9300/librtl9300.o
                0x0000000083f1e7b8                _nic_cpuTagFromRaw_cnvt
 .text._nic_cpuTagToRaw_cnvt
                0x0000000083f1e7ec       0x34 board/Realtek/rtl9300/librtl9300.o
                0x0000000083f1e7ec                _nic_cpuTagToRaw_cnvt
 .text._nic_cpuTag_dump
                0x0000000083f1e820       0x34 board/Realtek/rtl9300/librtl9300.o
                0x0000000083f1e820                _nic_cpuTag_dump
 .text._nic_rawTag_dump
                0x0000000083f1e854       0x34 board/Realtek/rtl9300/librtl9300.o
                0x0000000083f1e854                _nic_rawTag_dump
 .text._nic_isr_rxRoutine
                0x0000000083f1e888      0x7b8 board/Realtek/rtl9300/librtl9300.o
                0x0000000083f1e888                _nic_isr_rxRoutine
 .text._nic_isr_txRoutine
                0x0000000083f1f040      0x19c board/Realtek/rtl9300/librtl9300.o
                0x0000000083f1f040                _nic_isr_txRoutine
 .text.drv_nic_isr_handler
                0x0000000083f1f1dc      0x150 board/Realtek/rtl9300/librtl9300.o
                0x0000000083f1f1dc                drv_nic_isr_handler
 .text._nic_pkt_tx
                0x0000000083f1f32c      0x348 board/Realtek/rtl9300/librtl9300.o
                0x0000000083f1f32c                _nic_pkt_tx
 .text.drv_nic_init
                0x0000000083f1f674       0x70 board/Realtek/rtl9300/librtl9300.o
                0x0000000083f1f674                drv_nic_init
 .text.drv_nic_pkt_tx
                0x0000000083f1f6e4       0x8c board/Realtek/rtl9300/librtl9300.o
                0x0000000083f1f6e4                drv_nic_pkt_tx
 .text.drv_nic_rx_start
                0x0000000083f1f770       0x44 board/Realtek/rtl9300/librtl9300.o
                0x0000000083f1f770                drv_nic_rx_start
 .text.drv_nic_rx_stop
                0x0000000083f1f7b4       0x44 board/Realtek/rtl9300/librtl9300.o
                0x0000000083f1f7b4                drv_nic_rx_stop
 .text.drv_nic_rx_register
                0x0000000083f1f7f8       0x88 board/Realtek/rtl9300/librtl9300.o
                0x0000000083f1f7f8                drv_nic_rx_register
 .text.swnic_recv
                0x0000000083f1f880       0x2c board/Realtek/rtl9300/librtl9300.o
                0x0000000083f1f880                swnic_recv
 .text.swnic_halt
                0x0000000083f1f8ac       0x48 board/Realtek/rtl9300/librtl9300.o
                0x0000000083f1f8ac                swnic_halt
 .text.uboot_rtnic_pkt_free
                0x0000000083f1f8f4       0x88 board/Realtek/rtl9300/librtl9300.o
                0x0000000083f1f8f4                uboot_rtnic_pkt_free
 .text.uboot_rtnic_pkt_alloc
                0x0000000083f1f97c       0xe8 board/Realtek/rtl9300/librtl9300.o
                0x0000000083f1f97c                uboot_rtnic_pkt_alloc
 .text.swnic_send
                0x0000000083f1fa64       0x9c board/Realtek/rtl9300/librtl9300.o
                0x0000000083f1fa64                swnic_send
 .text.uboot_rtnic_rx_callback
                0x0000000083f1fb00       0x24 board/Realtek/rtl9300/librtl9300.o
                0x0000000083f1fb00                uboot_rtnic_rx_callback
 .text.swnic_init
                0x0000000083f1fb24       0x5c board/Realtek/rtl9300/librtl9300.o
                0x0000000083f1fb24                swnic_init
 .text.osal_isr_register
                0x0000000083f1fb80       0x4c board/Realtek/rtl9300/librtl9300.o
                0x0000000083f1fb80                osal_isr_register
 .text.uboot_rtnic_drv_init
                0x0000000083f1fbcc      0x1ac board/Realtek/rtl9300/librtl9300.o
                0x0000000083f1fbcc                uboot_rtnic_drv_init
 .text.drv_extGpio_reg_read
                0x0000000083f1fd78       0xb0 board/Realtek/rtl9300/librtl9300.o
                0x0000000083f1fd78                drv_extGpio_reg_read
 .text.drv_extGpio_reg_write
                0x0000000083f1fe28       0xfc board/Realtek/rtl9300/librtl9300.o
                0x0000000083f1fe28                drv_extGpio_reg_write
 .text.drv_extGpio_dev_init
                0x0000000083f1ff24      0x104 board/Realtek/rtl9300/librtl9300.o
                0x0000000083f1ff24                drv_extGpio_dev_init
 .text.drv_extGpio_devEnable_set
                0x0000000083f20028      0x194 board/Realtek/rtl9300/librtl9300.o
                0x0000000083f20028                drv_extGpio_devEnable_set
 .text.drv_extGpio_pin_init
                0x0000000083f201bc      0x468 board/Realtek/rtl9300/librtl9300.o
                0x0000000083f201bc                drv_extGpio_pin_init
 .text.drv_extGpio_dataBit_get
                0x0000000083f20624      0x168 board/Realtek/rtl9300/librtl9300.o
                0x0000000083f20624                drv_extGpio_dataBit_get
 .text.drv_extGpio_dataBit_set
                0x0000000083f2078c      0x1ac board/Realtek/rtl9300/librtl9300.o
                0x0000000083f2078c                drv_extGpio_dataBit_set
 .text.drv_extGpio_direction_set
                0x0000000083f20938      0x284 board/Realtek/rtl9300/librtl9300.o
                0x0000000083f20938                drv_extGpio_direction_set
 .text.rtl8231_common_unavail
                0x0000000083f20bbc        0x8 board/Realtek/rtl9300/librtl9300.o
                0x0000000083f20bbc                rtl8231_common_unavail
 .text.rtl8231_probe
                0x0000000083f20bc4       0x94 board/Realtek/rtl9300/librtl9300.o
                0x0000000083f20bc4                rtl8231_probe
 .text.drv_rtl8231_i2c_read
                0x0000000083f20c58       0x54 board/Realtek/rtl9300/librtl9300.o
                0x0000000083f20c58                drv_rtl8231_i2c_read
 .text.drv_rtl8231_i2c_write
                0x0000000083f20cac       0x54 board/Realtek/rtl9300/librtl9300.o
                0x0000000083f20cac                drv_rtl8231_i2c_write
 .text.drv_rtl8231_mdc_read
                0x0000000083f20d00       0x54 board/Realtek/rtl9300/librtl9300.o
                0x0000000083f20d00                drv_rtl8231_mdc_read
 .text.drv_rtl8231_mdc_write
                0x0000000083f20d54       0x54 board/Realtek/rtl9300/librtl9300.o
                0x0000000083f20d54                drv_rtl8231_mdc_write
 .text.drv_rtl8231_init
                0x0000000083f20da8       0x98 board/Realtek/rtl9300/librtl9300.o
                0x0000000083f20da8                drv_rtl8231_init
 .text.drv_rtl8231_intrEnable_set
                0x0000000083f20e40       0x54 board/Realtek/rtl9300/librtl9300.o
                0x0000000083f20e40                drv_rtl8231_intrEnable_set
 .text.drv_rtl8231_intrMode_set
                0x0000000083f20e94       0x54 board/Realtek/rtl9300/librtl9300.o
                0x0000000083f20e94                drv_rtl8231_intrMode_set
 .text.drv_gpio_init
                0x0000000083f20ee8       0xf4 board/Realtek/rtl9300/librtl9300.o
                0x0000000083f20ee8                drv_gpio_init
 .text.drv_gpio_direction_set
                0x0000000083f20fdc      0x16c board/Realtek/rtl9300/librtl9300.o
                0x0000000083f20fdc                drv_gpio_direction_set
 .text.drv_gpio_pin_init
                0x0000000083f21148      0x250 board/Realtek/rtl9300/librtl9300.o
                0x0000000083f21148                drv_gpio_pin_init
 .text.drv_gpio_dataBit_init
                0x0000000083f21398      0x158 board/Realtek/rtl9300/librtl9300.o
                0x0000000083f21398                drv_gpio_dataBit_init
 .text.drv_gpio_dataBit_get
                0x0000000083f214f0      0x168 board/Realtek/rtl9300/librtl9300.o
                0x0000000083f214f0                drv_gpio_dataBit_get
 .text.drv_gpio_dataBit_set
                0x0000000083f21658      0x158 board/Realtek/rtl9300/librtl9300.o
                0x0000000083f21658                drv_gpio_dataBit_set
 .text.drv_generalCtrlGPIO_dev_init
                0x0000000083f217b0       0x90 board/Realtek/rtl9300/librtl9300.o
                0x0000000083f217b0                drv_generalCtrlGPIO_dev_init
 .text.drv_generalCtrlGPIO_devEnable_set
                0x0000000083f21840       0x3c board/Realtek/rtl9300/librtl9300.o
                0x0000000083f21840                drv_generalCtrlGPIO_devEnable_set
 .text.drv_generalCtrlGPIO_pin_init
                0x0000000083f2187c      0x118 board/Realtek/rtl9300/librtl9300.o
                0x0000000083f2187c                drv_generalCtrlGPIO_pin_init
 .text.drv_generalCtrlGPIO_dataBit_set
                0x0000000083f21994       0x58 board/Realtek/rtl9300/librtl9300.o
                0x0000000083f21994                drv_generalCtrlGPIO_dataBit_set
 .text.drv_generalCtrlGPIO_dataBit_get
                0x0000000083f219ec       0x58 board/Realtek/rtl9300/librtl9300.o
                0x0000000083f219ec                drv_generalCtrlGPIO_dataBit_get
 .text.drv_generalCtrlGPIO_direction_set
                0x0000000083f21a44       0x58 board/Realtek/rtl9300/librtl9300.o
                0x0000000083f21a44                drv_generalCtrlGPIO_direction_set
 .text.gpio_probe
                0x0000000083f21a9c       0x94 board/Realtek/rtl9300/librtl9300.o
                0x0000000083f21a9c                gpio_probe
 .text.drv_spi_init
                0x0000000083f21b30       0x6c board/Realtek/rtl9300/librtl9300.o
                0x0000000083f21b30                drv_spi_init
 .text.drv_spi_write
                0x0000000083f21b9c        0x8 board/Realtek/rtl9300/librtl9300.o
                0x0000000083f21b9c                drv_spi_write
 .text.drv_spi_read
                0x0000000083f21ba4        0xc board/Realtek/rtl9300/librtl9300.o
                0x0000000083f21ba4                drv_spi_read
 .text.drv_i2c_init
                0x0000000083f21bb0      0x140 board/Realtek/rtl9300/librtl9300.o
                0x0000000083f21bb0                drv_i2c_init
 .text.drv_i2c_dev_init
                0x0000000083f21cf0      0x168 board/Realtek/rtl9300/librtl9300.o
                0x0000000083f21cf0                drv_i2c_dev_init
 .text.drv_i2c_write
                0x0000000083f21e58      0x150 board/Realtek/rtl9300/librtl9300.o
                0x0000000083f21e58                drv_i2c_write
 .text.drv_i2c_read
                0x0000000083f21fa8      0x150 board/Realtek/rtl9300/librtl9300.o
                0x0000000083f21fa8                drv_i2c_read
 .text.i2c_probe
                0x0000000083f220f8       0x7c board/Realtek/rtl9300/librtl9300.o
                0x0000000083f220f8                i2c_probe
 .text._general_nbits_dev_start
                0x0000000083f22174      0x10c board/Realtek/rtl9300/librtl9300.o
 .text._general_software_i2c_writeBit
                0x0000000083f22280      0x12c board/Realtek/rtl9300/librtl9300.o
 .text._general_nbits_dev_stop
                0x0000000083f223ac      0x104 board/Realtek/rtl9300/librtl9300.o
 .text._general_software_i2c_readBit
                0x0000000083f224b0      0x184 board/Realtek/rtl9300/librtl9300.o
 .text.drv_software_i2c_type_set
                0x0000000083f22634       0x50 board/Realtek/rtl9300/librtl9300.o
                0x0000000083f22634                drv_software_i2c_type_set
 .text._general_nbits_dev_read
                0x0000000083f22684      0x1ec board/Realtek/rtl9300/librtl9300.o
                0x0000000083f22684                _general_nbits_dev_read
 .text._general_nbits_dev_write
                0x0000000083f22870      0x170 board/Realtek/rtl9300/librtl9300.o
                0x0000000083f22870                _general_nbits_dev_write
 .text.drv_software_i2c_init
                0x0000000083f229e0      0x1a4 board/Realtek/rtl9300/librtl9300.o
                0x0000000083f229e0                drv_software_i2c_init
 .text.drv_software_i2c_write
                0x0000000083f22b84       0xd8 board/Realtek/rtl9300/librtl9300.o
                0x0000000083f22b84                drv_software_i2c_write
 .text.drv_software_i2c_read
                0x0000000083f22c5c       0xe4 board/Realtek/rtl9300/librtl9300.o
                0x0000000083f22c5c                drv_software_i2c_read
 .text.drv_software_i2c_module_init
                0x0000000083f22d40       0x24 board/Realtek/rtl9300/librtl9300.o
                0x0000000083f22d40                drv_software_i2c_module_init
 .text.rt_chip_familyIndex_get
                0x0000000083f22d64       0x98 board/Realtek/rtl9300/librtl9300.o
                0x0000000083f22d64                rt_chip_familyIndex_get
 .text.rt_util_flashEnv_get
                0x0000000083f22dfc       0x48 board/Realtek/rtl9300/librtl9300.o
                0x0000000083f22dfc                rt_util_flashEnv_get
 .text.rt_util_ascii2dec
                0x0000000083f22e44       0x2c board/Realtek/rtl9300/librtl9300.o
                0x0000000083f22e44                rt_util_ascii2dec
 .text.rt_util_upinkPort_mask2Reg
                0x0000000083f22e70       0xa4 board/Realtek/rtl9300/librtl9300.o
                0x0000000083f22e70                rt_util_upinkPort_mask2Reg
 .text.rt_util_upinkPort_reg2Mask
                0x0000000083f22f14       0xe4 board/Realtek/rtl9300/librtl9300.o
                0x0000000083f22f14                rt_util_upinkPort_reg2Mask
 .text.rt_bitop_numberOfSetBits
                0x0000000083f22ff8       0x54 board/Realtek/rtl9300/librtl9300.o
                0x0000000083f22ff8                rt_bitop_numberOfSetBits
 .text.bitop_numberOfSetBitsInArray
                0x0000000083f2304c       0x80 board/Realtek/rtl9300/librtl9300.o
                0x0000000083f2304c                bitop_numberOfSetBitsInArray
 .text.rt_bitop_findFirstBitInAaray
                0x0000000083f230cc       0x70 board/Realtek/rtl9300/librtl9300.o
                0x0000000083f230cc                rt_bitop_findFirstBitInAaray
 .text.rt_bitop_findLastBitInAaray
                0x0000000083f2313c       0x68 board/Realtek/rtl9300/librtl9300.o
                0x0000000083f2313c                rt_bitop_findLastBitInAaray
 .text.hal_find_device
                0x0000000083f231a4       0xa8 board/Realtek/rtl9300/librtl9300.o
                0x0000000083f231a4                hal_find_device
 .text.hal_isPpBlock_check
                0x0000000083f2324c       0x80 board/Realtek/rtl9300/librtl9300.o
                0x0000000083f2324c                hal_isPpBlock_check
 .text.hal_find_driver
                0x0000000083f232cc       0x2c board/Realtek/rtl9300/librtl9300.o
                0x0000000083f232cc                hal_find_driver
 .text.hal_init_sys
                0x0000000083f232f8       0xac board/Realtek/rtl9300/librtl9300.o
                0x0000000083f232f8                hal_init_sys
 .text.hal_chipInfo_clear
                0x0000000083f233a4       0x68 board/Realtek/rtl9300/librtl9300.o
                0x0000000083f233a4                hal_chipInfo_clear
 .text.hal_init
                0x0000000083f2340c      0x1d4 board/Realtek/rtl9300/librtl9300.o
                0x0000000083f2340c                hal_init
 .text.hal_ctrlInfo_get
                0x0000000083f235e0       0x28 board/Realtek/rtl9300/librtl9300.o
                0x0000000083f235e0                hal_ctrlInfo_get
 .text.hal_stack_portmask_set
                0x0000000083f23608       0x44 board/Realtek/rtl9300/librtl9300.o
                0x0000000083f23608                hal_stack_portmask_set
 .text.hal_stack_portmask_get
                0x0000000083f2364c       0x48 board/Realtek/rtl9300/librtl9300.o
                0x0000000083f2364c                hal_stack_portmask_get
 .text.hal_stack_portmask_check
                0x0000000083f23694       0x88 board/Realtek/rtl9300/librtl9300.o
                0x0000000083f23694                hal_stack_portmask_check
 .text.phy_media_get
                0x0000000083f2371c       0xf8 board/Realtek/rtl9300/librtl9300.o
                0x0000000083f2371c                phy_media_get
 .text.phy_media_set
                0x0000000083f23814      0x1a4 board/Realtek/rtl9300/librtl9300.o
                0x0000000083f23814                phy_media_set
 .text.phy_autoNegoEnable_get
                0x0000000083f239b8       0xf8 board/Realtek/rtl9300/librtl9300.o
                0x0000000083f239b8                phy_autoNegoEnable_get
 .text.phy_autoNegoEnable_set
                0x0000000083f23ab0       0xf8 board/Realtek/rtl9300/librtl9300.o
                0x0000000083f23ab0                phy_autoNegoEnable_set
 .text.phy_autoNegoAbilityLocal_get
                0x0000000083f23ba8       0xf8 board/Realtek/rtl9300/librtl9300.o
                0x0000000083f23ba8                phy_autoNegoAbilityLocal_get
 .text.phy_autoNegoAbility_get
                0x0000000083f23ca0       0xf8 board/Realtek/rtl9300/librtl9300.o
                0x0000000083f23ca0                phy_autoNegoAbility_get
 .text.phy_autoNegoAbility_set
                0x0000000083f23d98       0xf8 board/Realtek/rtl9300/librtl9300.o
                0x0000000083f23d98                phy_autoNegoAbility_set
 .text.phy_duplex_get
                0x0000000083f23e90       0xf8 board/Realtek/rtl9300/librtl9300.o
                0x0000000083f23e90                phy_duplex_get
 .text.phy_duplex_set
                0x0000000083f23f88       0xf8 board/Realtek/rtl9300/librtl9300.o
                0x0000000083f23f88                phy_duplex_set
 .text.phy_speed_get
                0x0000000083f24080       0xf8 board/Realtek/rtl9300/librtl9300.o
                0x0000000083f24080                phy_speed_get
 .text.phy_speed_set
                0x0000000083f24178       0xf8 board/Realtek/rtl9300/librtl9300.o
                0x0000000083f24178                phy_speed_set
 .text.phy_enable_set
                0x0000000083f24270       0xf8 board/Realtek/rtl9300/librtl9300.o
                0x0000000083f24270                phy_enable_set
 .text.phy_enable_get
                0x0000000083f24368       0xf8 board/Realtek/rtl9300/librtl9300.o
                0x0000000083f24368                phy_enable_get
 .text.phy_rtct_start
                0x0000000083f24460       0xe8 board/Realtek/rtl9300/librtl9300.o
                0x0000000083f24460                phy_rtct_start
 .text.phy_rtctResult_get
                0x0000000083f24548       0xf8 board/Realtek/rtl9300/librtl9300.o
                0x0000000083f24548                phy_rtctResult_get
 .text.phy_greenEnable_get
                0x0000000083f24640       0xf8 board/Realtek/rtl9300/librtl9300.o
                0x0000000083f24640                phy_greenEnable_get
 .text.phy_greenEnable_set
                0x0000000083f24738       0xf8 board/Realtek/rtl9300/librtl9300.o
                0x0000000083f24738                phy_greenEnable_set
 .text.phy_eeeEnable_get
                0x0000000083f24830       0xf8 board/Realtek/rtl9300/librtl9300.o
                0x0000000083f24830                phy_eeeEnable_get
 .text.phy_eeeEnable_set
                0x0000000083f24928      0x1a4 board/Realtek/rtl9300/librtl9300.o
                0x0000000083f24928                phy_eeeEnable_set
 .text.phy_crossOverMode_get
                0x0000000083f24acc       0xf8 board/Realtek/rtl9300/librtl9300.o
                0x0000000083f24acc                phy_crossOverMode_get
 .text.phy_crossOverMode_set
                0x0000000083f24bc4       0xf8 board/Realtek/rtl9300/librtl9300.o
                0x0000000083f24bc4                phy_crossOverMode_set
 .text.phy_crossOverStatus_get
                0x0000000083f24cbc       0xf8 board/Realtek/rtl9300/librtl9300.o
                0x0000000083f24cbc                phy_crossOverStatus_get
 .text.phy_fiber_media_get
                0x0000000083f24db4       0xf8 board/Realtek/rtl9300/librtl9300.o
                0x0000000083f24db4                phy_fiber_media_get
 .text.phy_fiber_media_set
                0x0000000083f24eac       0xf8 board/Realtek/rtl9300/librtl9300.o
                0x0000000083f24eac                phy_fiber_media_set
 .text.phy_linkDownPowerSavingEnable_get
                0x0000000083f24fa4       0xf8 board/Realtek/rtl9300/librtl9300.o
                0x0000000083f24fa4                phy_linkDownPowerSavingEnable_get
 .text.phy_linkDownPowerSavingEnable_set
                0x0000000083f2509c       0xf8 board/Realtek/rtl9300/librtl9300.o
                0x0000000083f2509c                phy_linkDownPowerSavingEnable_set
 .text.phy_gigaLiteEnable_get
                0x0000000083f25194       0xf8 board/Realtek/rtl9300/librtl9300.o
                0x0000000083f25194                phy_gigaLiteEnable_get
 .text.phy_gigaLiteEnable_set
                0x0000000083f2528c       0xf8 board/Realtek/rtl9300/librtl9300.o
                0x0000000083f2528c                phy_gigaLiteEnable_set
 .text.phy_downSpeedEnable_get
                0x0000000083f25384      0x1a4 board/Realtek/rtl9300/librtl9300.o
                0x0000000083f25384                phy_downSpeedEnable_get
 .text.phy_downSpeedEnable_set
                0x0000000083f25528      0x1a4 board/Realtek/rtl9300/librtl9300.o
                0x0000000083f25528                phy_downSpeedEnable_set
 .text.phy_downSpeedStatus_get
                0x0000000083f256cc      0x1a4 board/Realtek/rtl9300/librtl9300.o
                0x0000000083f256cc                phy_downSpeedStatus_get
 .text.phy_fiberDownSpeedEnable_get
                0x0000000083f25870      0x1a4 board/Realtek/rtl9300/librtl9300.o
                0x0000000083f25870                phy_fiberDownSpeedEnable_get
 .text.phy_fiberDownSpeedEnable_set
                0x0000000083f25a14      0x1a4 board/Realtek/rtl9300/librtl9300.o
                0x0000000083f25a14                phy_fiberDownSpeedEnable_set
 .text.phy_fiberNwayForceLinkEnable_get
                0x0000000083f25bb8       0xf8 board/Realtek/rtl9300/librtl9300.o
                0x0000000083f25bb8                phy_fiberNwayForceLinkEnable_get
 .text.phy_fiberNwayForceLinkEnable_set
                0x0000000083f25cb0       0xf8 board/Realtek/rtl9300/librtl9300.o
                0x0000000083f25cb0                phy_fiberNwayForceLinkEnable_set
 .text.phy_ptpSwitchMacAddr_get
                0x0000000083f25da8       0xf8 board/Realtek/rtl9300/librtl9300.o
                0x0000000083f25da8                phy_ptpSwitchMacAddr_get
 .text.phy_ptpSwitchMacAddr_set
                0x0000000083f25ea0       0xf8 board/Realtek/rtl9300/librtl9300.o
                0x0000000083f25ea0                phy_ptpSwitchMacAddr_set
 .text.phy_ptpRefTime_get
                0x0000000083f25f98       0xf8 board/Realtek/rtl9300/librtl9300.o
                0x0000000083f25f98                phy_ptpRefTime_get
 .text.phy_ptpRefTime_set
                0x0000000083f26090      0x110 board/Realtek/rtl9300/librtl9300.o
                0x0000000083f26090                phy_ptpRefTime_set
 .text.phy_ptpRefTimeAdjust_set
                0x0000000083f261a0      0x120 board/Realtek/rtl9300/librtl9300.o
                0x0000000083f261a0                phy_ptpRefTimeAdjust_set
 .text.phy_ptpRefTimeEnable_get
                0x0000000083f262c0       0xf8 board/Realtek/rtl9300/librtl9300.o
                0x0000000083f262c0                phy_ptpRefTimeEnable_get
 .text.phy_ptpRefTimeEnable_set
                0x0000000083f263b8       0xf8 board/Realtek/rtl9300/librtl9300.o
                0x0000000083f263b8                phy_ptpRefTimeEnable_set
 .text.phy_ptpRefTimeFreq_get
                0x0000000083f264b0       0xf8 board/Realtek/rtl9300/librtl9300.o
                0x0000000083f264b0                phy_ptpRefTimeFreq_get
 .text.phy_ptpRefTimeFreq_set
                0x0000000083f265a8       0xf8 board/Realtek/rtl9300/librtl9300.o
                0x0000000083f265a8                phy_ptpRefTimeFreq_set
 .text.phy_ptpEnable_get
                0x0000000083f266a0       0xf8 board/Realtek/rtl9300/librtl9300.o
                0x0000000083f266a0                phy_ptpEnable_get
 .text.phy_ptpEnable_set
                0x0000000083f26798       0xf8 board/Realtek/rtl9300/librtl9300.o
                0x0000000083f26798                phy_ptpEnable_set
 .text.phy_ptpIgrTpid_get
                0x0000000083f26890      0x110 board/Realtek/rtl9300/librtl9300.o
                0x0000000083f26890                phy_ptpIgrTpid_get
 .text.phy_ptpIgrTpid_set
                0x0000000083f269a0      0x110 board/Realtek/rtl9300/librtl9300.o
                0x0000000083f269a0                phy_ptpIgrTpid_set
 .text.phy_ptpSwitchMacRange_get
                0x0000000083f26ab0       0xf8 board/Realtek/rtl9300/librtl9300.o
                0x0000000083f26ab0                phy_ptpSwitchMacRange_get
 .text.phy_ptpSwitchMacRange_set
                0x0000000083f26ba8       0xf8 board/Realtek/rtl9300/librtl9300.o
                0x0000000083f26ba8                phy_ptpSwitchMacRange_set
 .text.phy_ptpInterruptEnable_get
                0x0000000083f26ca0       0xf8 board/Realtek/rtl9300/librtl9300.o
                0x0000000083f26ca0                phy_ptpInterruptEnable_get
 .text.phy_ptpInterruptEnable_set
                0x0000000083f26d98       0xf8 board/Realtek/rtl9300/librtl9300.o
                0x0000000083f26d98                phy_ptpInterruptEnable_set
 .text.phy_ptpRxTimestamp_get
                0x0000000083f26e90      0x100 board/Realtek/rtl9300/librtl9300.o
                0x0000000083f26e90                phy_ptpRxTimestamp_get
 .text.phy_ptpTxTimestamp_get
                0x0000000083f26f90      0x100 board/Realtek/rtl9300/librtl9300.o
                0x0000000083f26f90                phy_ptpTxTimestamp_get
 .text.phy_ptpOper_get
                0x0000000083f27090       0xf8 board/Realtek/rtl9300/librtl9300.o
                0x0000000083f27090                phy_ptpOper_get
 .text.phy_ptpOper_set
                0x0000000083f27188       0xf8 board/Realtek/rtl9300/librtl9300.o
                0x0000000083f27188                phy_ptpOper_set
 .text.phy_ptpLatchTime_get
                0x0000000083f27280       0xf8 board/Realtek/rtl9300/librtl9300.o
                0x0000000083f27280                phy_ptpLatchTime_get
 .text.phy_ptpRefTimeFreqCfg_get
                0x0000000083f27378      0x108 board/Realtek/rtl9300/librtl9300.o
                0x0000000083f27378                phy_ptpRefTimeFreqCfg_get
 .text.phy_ptpRefTimeFreqCfg_set
                0x0000000083f27480      0x108 board/Realtek/rtl9300/librtl9300.o
                0x0000000083f27480                phy_ptpRefTimeFreqCfg_set
 .text.phy_ptpTxInterruptStatus_get
                0x0000000083f27588       0xf8 board/Realtek/rtl9300/librtl9300.o
                0x0000000083f27588                phy_ptpTxInterruptStatus_get
 .text.phy_ptpTxTimestampFifo_get
                0x0000000083f27680       0xf8 board/Realtek/rtl9300/librtl9300.o
                0x0000000083f27680                phy_ptpTxTimestampFifo_get
 .text.phy_ptp1PPSOutput_get
                0x0000000083f27778      0x108 board/Realtek/rtl9300/librtl9300.o
                0x0000000083f27778                phy_ptp1PPSOutput_get
 .text.phy_ptp1PPSOutput_set
                0x0000000083f27880      0x108 board/Realtek/rtl9300/librtl9300.o
                0x0000000083f27880                phy_ptp1PPSOutput_set
 .text.phy_ptpClockOutput_get
                0x0000000083f27988       0xf8 board/Realtek/rtl9300/librtl9300.o
                0x0000000083f27988                phy_ptpClockOutput_get
 .text.phy_ptpClockOutput_set
                0x0000000083f27a80       0xf8 board/Realtek/rtl9300/librtl9300.o
                0x0000000083f27a80                phy_ptpClockOutput_set
 .text.phy_ptpOutputSigSel_get
                0x0000000083f27b78       0xf8 board/Realtek/rtl9300/librtl9300.o
                0x0000000083f27b78                phy_ptpOutputSigSel_get
 .text.phy_ptpOutputSigSel_set
                0x0000000083f27c70       0xf8 board/Realtek/rtl9300/librtl9300.o
                0x0000000083f27c70                phy_ptpOutputSigSel_set
 .text.phy_ptpTransEnable_get
                0x0000000083f27d68       0xf8 board/Realtek/rtl9300/librtl9300.o
                0x0000000083f27d68                phy_ptpTransEnable_get
 .text.phy_ptpTransEnable_set
                0x0000000083f27e60       0xf8 board/Realtek/rtl9300/librtl9300.o
                0x0000000083f27e60                phy_ptpTransEnable_set
 .text.phy_ptpLinkDelay_get
                0x0000000083f27f58       0xf8 board/Realtek/rtl9300/librtl9300.o
                0x0000000083f27f58                phy_ptpLinkDelay_get
 .text.phy_ptpLinkDelay_set
                0x0000000083f28050       0xf8 board/Realtek/rtl9300/librtl9300.o
                0x0000000083f28050                phy_ptpLinkDelay_set
 .text.phy_reg_get
                0x0000000083f28148      0x130 board/Realtek/rtl9300/librtl9300.o
                0x0000000083f28148                phy_reg_get
 .text.phy_reg_set
                0x0000000083f28278      0x130 board/Realtek/rtl9300/librtl9300.o
                0x0000000083f28278                phy_reg_set
 .text.phy_reg_mmd_get
                0x0000000083f283a8      0x130 board/Realtek/rtl9300/librtl9300.o
                0x0000000083f283a8                phy_reg_mmd_get
 .text.phy_reg_mmd_set
                0x0000000083f284d8      0x130 board/Realtek/rtl9300/librtl9300.o
                0x0000000083f284d8                phy_reg_mmd_set
 .text.phy_reg_mmd_portmask_set
                0x0000000083f28608       0xbc board/Realtek/rtl9300/librtl9300.o
                0x0000000083f28608                phy_reg_mmd_portmask_set
 .text.phy_reg_extParkPage_get
                0x0000000083f286c4      0x120 board/Realtek/rtl9300/librtl9300.o
                0x0000000083f286c4                phy_reg_extParkPage_get
 .text.phy_reg_extParkPage_set
                0x0000000083f287e4      0x120 board/Realtek/rtl9300/librtl9300.o
                0x0000000083f287e4                phy_reg_extParkPage_set
 .text.phy_reg_extParkPage_portmask_set
                0x0000000083f28904       0xcc board/Realtek/rtl9300/librtl9300.o
                0x0000000083f28904                phy_reg_extParkPage_portmask_set
 .text.phy_reg_portmask_set
                0x0000000083f289d0       0xbc board/Realtek/rtl9300/librtl9300.o
                0x0000000083f289d0                phy_reg_portmask_set
 .text.phy_masterSlave_get
                0x0000000083f28a8c      0x108 board/Realtek/rtl9300/librtl9300.o
                0x0000000083f28a8c                phy_masterSlave_get
 .text.phy_masterSlave_set
                0x0000000083f28b94       0xf8 board/Realtek/rtl9300/librtl9300.o
                0x0000000083f28b94                phy_masterSlave_set
 .text.phy_loopbackEnable_get
                0x0000000083f28c8c       0xf8 board/Realtek/rtl9300/librtl9300.o
                0x0000000083f28c8c                phy_loopbackEnable_get
 .text.phy_loopbackEnable_set
                0x0000000083f28d84      0x1a4 board/Realtek/rtl9300/librtl9300.o
                0x0000000083f28d84                phy_loopbackEnable_set
 .text.phy_construct_reg_park_get
                0x0000000083f28f28       0xcc board/Realtek/rtl9300/librtl9300.o
                0x0000000083f28f28                phy_construct_reg_park_get
 .text.phy_construct_reg_park_set
                0x0000000083f28ff4       0xcc board/Realtek/rtl9300/librtl9300.o
                0x0000000083f28ff4                phy_construct_reg_park_set
 .text.phy_fiberTxDis_set
                0x0000000083f290c0       0xf8 board/Realtek/rtl9300/librtl9300.o
                0x0000000083f290c0                phy_fiberTxDis_set
 .text.phy_fiberTxDisPin_set
                0x0000000083f291b8       0xf8 board/Realtek/rtl9300/librtl9300.o
                0x0000000083f291b8                phy_fiberTxDisPin_set
 .text.phy_serdes_rst
                0x0000000083f292b0       0xec board/Realtek/rtl9300/librtl9300.o
                0x0000000083f292b0                phy_serdes_rst
 .text.phy_fiberRxEnable_get
                0x0000000083f2939c       0xf8 board/Realtek/rtl9300/librtl9300.o
                0x0000000083f2939c                phy_fiberRxEnable_get
 .text.phy_fiberRxEnable_set
                0x0000000083f29494       0xf8 board/Realtek/rtl9300/librtl9300.o
                0x0000000083f29494                phy_fiberRxEnable_set
 .text.phy_10gMedia_get
                0x0000000083f2958c       0xf8 board/Realtek/rtl9300/librtl9300.o
                0x0000000083f2958c                phy_10gMedia_get
 .text.phy_10gMedia_set
                0x0000000083f29684       0xf8 board/Realtek/rtl9300/librtl9300.o
                0x0000000083f29684                phy_10gMedia_set
 .text.phy_polar_get
                0x0000000083f2977c       0xf8 board/Realtek/rtl9300/librtl9300.o
                0x0000000083f2977c                phy_polar_get
 .text.phy_polar_set
                0x0000000083f29874       0xf8 board/Realtek/rtl9300/librtl9300.o
                0x0000000083f29874                phy_polar_set
 .text.phy_ieeeTestMode_set
                0x0000000083f2996c       0xf8 board/Realtek/rtl9300/librtl9300.o
                0x0000000083f2996c                phy_ieeeTestMode_set
 .text.phy_portEyeMonitor_start
                0x0000000083f29a64      0x120 board/Realtek/rtl9300/librtl9300.o
                0x0000000083f29a64                phy_portEyeMonitor_start
 .text.phy_eyeMonitorInfo_get
                0x0000000083f29b84      0x128 board/Realtek/rtl9300/librtl9300.o
                0x0000000083f29b84                phy_eyeMonitorInfo_get
 .text.phy_portFlashImage_load
                0x0000000083f29cac      0x108 board/Realtek/rtl9300/librtl9300.o
                0x0000000083f29cac                phy_portFlashImage_load
 .text.phy_sds_get
                0x0000000083f29db4       0xf8 board/Realtek/rtl9300/librtl9300.o
                0x0000000083f29db4                phy_sds_get
 .text.phy_sds_set
                0x0000000083f29eac       0xf8 board/Realtek/rtl9300/librtl9300.o
                0x0000000083f29eac                phy_sds_set
 .text.phy_sdsRxCaliStatus_get
                0x0000000083f29fa4      0x108 board/Realtek/rtl9300/librtl9300.o
                0x0000000083f29fa4                phy_sdsRxCaliStatus_get
 .text.phy_fiberUnidirEnable_set
                0x0000000083f2a0ac       0xf8 board/Realtek/rtl9300/librtl9300.o
                0x0000000083f2a0ac                phy_fiberUnidirEnable_set
 .text.phy_reset_set
                0x0000000083f2a1a4       0xe8 board/Realtek/rtl9300/librtl9300.o
                0x0000000083f2a1a4                phy_reset_set
 .text.phy_linkStatus_get
                0x0000000083f2a28c       0xf8 board/Realtek/rtl9300/librtl9300.o
                0x0000000083f2a28c                phy_linkStatus_get
 .text.phy_peerAutoNegoAbility_get
                0x0000000083f2a384       0xf8 board/Realtek/rtl9300/librtl9300.o
                0x0000000083f2a384                phy_peerAutoNegoAbility_get
 .text.phy_macIntfSerdesMode_get
                0x0000000083f2a47c       0xf8 board/Realtek/rtl9300/librtl9300.o
                0x0000000083f2a47c                phy_macIntfSerdesMode_get
 .text.phy_ledMode_set
                0x0000000083f2a574       0xf8 board/Realtek/rtl9300/librtl9300.o
                0x0000000083f2a574                phy_ledMode_set
 .text.phy_ledCtrl_get
                0x0000000083f2a66c       0xf8 board/Realtek/rtl9300/librtl9300.o
                0x0000000083f2a66c                phy_ledCtrl_get
 .text.phy_ledCtrl_set
                0x0000000083f2a764       0xf8 board/Realtek/rtl9300/librtl9300.o
                0x0000000083f2a764                phy_ledCtrl_set
 .text.phy_macIntfSerdesLinkStatus_get
                0x0000000083f2a85c       0xf8 board/Realtek/rtl9300/librtl9300.o
                0x0000000083f2a85c                phy_macIntfSerdesLinkStatus_get
 .text.phy_sdsEyeParam_get
                0x0000000083f2a954      0x108 board/Realtek/rtl9300/librtl9300.o
                0x0000000083f2a954                phy_sdsEyeParam_get
 .text.phy_sdsEyeParam_set
                0x0000000083f2aa5c      0x108 board/Realtek/rtl9300/librtl9300.o
                0x0000000083f2aa5c                phy_sdsEyeParam_set
 .text.phy_2pt5gLiteEnable_get
                0x0000000083f2ab64       0xf8 board/Realtek/rtl9300/librtl9300.o
                0x0000000083f2ab64                phy_2pt5gLiteEnable_get
 .text.phy_2pt5gLiteEnable_set
                0x0000000083f2ac5c       0xf8 board/Realtek/rtl9300/librtl9300.o
                0x0000000083f2ac5c                phy_2pt5gLiteEnable_set
 .text.phy_mdiLoopbackEnable_get
                0x0000000083f2ad54       0xf8 board/Realtek/rtl9300/librtl9300.o
                0x0000000083f2ad54                phy_mdiLoopbackEnable_get
 .text.phy_mdiLoopbackEnable_set
                0x0000000083f2ae4c       0xf8 board/Realtek/rtl9300/librtl9300.o
                0x0000000083f2ae4c                phy_mdiLoopbackEnable_set
 .text.phy_intr_init
                0x0000000083f2af44       0xf8 board/Realtek/rtl9300/librtl9300.o
                0x0000000083f2af44                phy_intr_init
 .text.phy_intrEnable_get
                0x0000000083f2b03c      0x108 board/Realtek/rtl9300/librtl9300.o
                0x0000000083f2b03c                phy_intrEnable_get
 .text.phy_intrEnable_set
                0x0000000083f2b144      0x108 board/Realtek/rtl9300/librtl9300.o
                0x0000000083f2b144                phy_intrEnable_set
 .text.phy_intrStatus_get
                0x0000000083f2b24c      0x108 board/Realtek/rtl9300/librtl9300.o
                0x0000000083f2b24c                phy_intrStatus_get
 .text.phy_intrMask_get
                0x0000000083f2b354      0x108 board/Realtek/rtl9300/librtl9300.o
                0x0000000083f2b354                phy_intrMask_get
 .text.phy_intrMask_set
                0x0000000083f2b45c      0x108 board/Realtek/rtl9300/librtl9300.o
                0x0000000083f2b45c                phy_intrMask_set
 .text.phy_sdsTestMode_set
                0x0000000083f2b564      0x108 board/Realtek/rtl9300/librtl9300.o
                0x0000000083f2b564                phy_sdsTestMode_set
 .text.phy_sdsTestModeCnt_get
                0x0000000083f2b66c      0x108 board/Realtek/rtl9300/librtl9300.o
                0x0000000083f2b66c                phy_sdsTestModeCnt_get
 .text.phy_sdsLeq_get
                0x0000000083f2b774      0x110 board/Realtek/rtl9300/librtl9300.o
                0x0000000083f2b774                phy_sdsLeq_get
 .text.phy_sdsLeq_set
                0x0000000083f2b884      0x110 board/Realtek/rtl9300/librtl9300.o
                0x0000000083f2b884                phy_sdsLeq_set
 .text.phy_info_get
                0x0000000083f2b994       0xfc board/Realtek/rtl9300/librtl9300.o
                0x0000000083f2b994                phy_info_get
 .text.phy_ctrl_get
                0x0000000083f2ba90      0x108 board/Realtek/rtl9300/librtl9300.o
                0x0000000083f2ba90                phy_ctrl_get
 .text.phy_ctrl_set
                0x0000000083f2bb98      0x108 board/Realtek/rtl9300/librtl9300.o
                0x0000000083f2bb98                phy_ctrl_set
 .text.phy_liteEnable_get
                0x0000000083f2bca0      0x108 board/Realtek/rtl9300/librtl9300.o
                0x0000000083f2bca0                phy_liteEnable_get
 .text.phy_liteEnable_set
                0x0000000083f2bda8      0x108 board/Realtek/rtl9300/librtl9300.o
                0x0000000083f2bda8                phy_liteEnable_set
 .text.phy_dbgCounter_get
                0x0000000083f2beb0      0x108 board/Realtek/rtl9300/librtl9300.o
                0x0000000083f2beb0                phy_dbgCounter_get
 .text.phy_speedDuplexStatus_get
                0x0000000083f2bfb8      0x108 board/Realtek/rtl9300/librtl9300.o
                0x0000000083f2bfb8                phy_speedDuplexStatus_get
 .text.miim_phy_macsec_reg_get
                0x0000000083f2c0c0      0x108 board/Realtek/rtl9300/librtl9300.o
                0x0000000083f2c0c0                miim_phy_macsec_reg_get
 .text.miim_phy_macsec_reg_set
                0x0000000083f2c1c8      0x108 board/Realtek/rtl9300/librtl9300.o
                0x0000000083f2c1c8                miim_phy_macsec_reg_set
 .text.miim_phy_macsec_port_cfg_set
                0x0000000083f2c2d0       0xf0 board/Realtek/rtl9300/librtl9300.o
                0x0000000083f2c2d0                miim_phy_macsec_port_cfg_set
 .text.miim_phy_macsec_port_cfg_get
                0x0000000083f2c3c0       0xf0 board/Realtek/rtl9300/librtl9300.o
                0x0000000083f2c3c0                miim_phy_macsec_port_cfg_get
 .text.miim_phy_macsec_sc_create
                0x0000000083f2c4b0      0x108 board/Realtek/rtl9300/librtl9300.o
                0x0000000083f2c4b0                miim_phy_macsec_sc_create
 .text.miim_phy_macsec_sc_get
                0x0000000083f2c5b8      0x108 board/Realtek/rtl9300/librtl9300.o
                0x0000000083f2c5b8                miim_phy_macsec_sc_get
 .text.miim_phy_macsec_sc_del
                0x0000000083f2c6c0      0x100 board/Realtek/rtl9300/librtl9300.o
                0x0000000083f2c6c0                miim_phy_macsec_sc_del
 .text.miim_phy_macsec_sc_status_get
                0x0000000083f2c7c0      0x108 board/Realtek/rtl9300/librtl9300.o
                0x0000000083f2c7c0                miim_phy_macsec_sc_status_get
 .text.miim_phy_macsec_sa_create
                0x0000000083f2c8c8      0x110 board/Realtek/rtl9300/librtl9300.o
                0x0000000083f2c8c8                miim_phy_macsec_sa_create
 .text.miim_phy_macsec_sa_get
                0x0000000083f2c9d8      0x110 board/Realtek/rtl9300/librtl9300.o
                0x0000000083f2c9d8                miim_phy_macsec_sa_get
 .text.miim_phy_macsec_sa_del
                0x0000000083f2cae8      0x108 board/Realtek/rtl9300/librtl9300.o
                0x0000000083f2cae8                miim_phy_macsec_sa_del
 .text.miim_phy_macsec_sa_activate
                0x0000000083f2cbf0      0x108 board/Realtek/rtl9300/librtl9300.o
                0x0000000083f2cbf0                miim_phy_macsec_sa_activate
 .text.miim_phy_macsec_rxsa_disable
                0x0000000083f2ccf8      0x100 board/Realtek/rtl9300/librtl9300.o
                0x0000000083f2ccf8                miim_phy_macsec_rxsa_disable
 .text.miim_phy_macsec_txsa_disable
                0x0000000083f2cdf8       0xf0 board/Realtek/rtl9300/librtl9300.o
                0x0000000083f2cdf8                miim_phy_macsec_txsa_disable
 .text.miim_phy_macsec_stat_clear
                0x0000000083f2cee8       0xe0 board/Realtek/rtl9300/librtl9300.o
                0x0000000083f2cee8                miim_phy_macsec_stat_clear
 .text.miim_phy_macsec_stat_port_get
                0x0000000083f2cfc8      0x100 board/Realtek/rtl9300/librtl9300.o
                0x0000000083f2cfc8                miim_phy_macsec_stat_port_get
 .text.miim_phy_macsec_stat_txsa_get
                0x0000000083f2d0c8      0x110 board/Realtek/rtl9300/librtl9300.o
                0x0000000083f2d0c8                miim_phy_macsec_stat_txsa_get
 .text.miim_phy_macsec_stat_rxsa_get
                0x0000000083f2d1d8      0x110 board/Realtek/rtl9300/librtl9300.o
                0x0000000083f2d1d8                miim_phy_macsec_stat_rxsa_get
 .text.miim_phy_macsec_intr_status_get
                0x0000000083f2d2e8       0xf0 board/Realtek/rtl9300/librtl9300.o
                0x0000000083f2d2e8                miim_phy_macsec_intr_status_get
 .text.phy_sdsReg_get
                0x0000000083f2d3d8       0xf4 board/Realtek/rtl9300/librtl9300.o
                0x0000000083f2d3d8                phy_sdsReg_get
 .text.phy_sdsReg_set
                0x0000000083f2d4cc       0xf4 board/Realtek/rtl9300/librtl9300.o
                0x0000000083f2d4cc                phy_sdsReg_set
 .text._reg_field_find
                0x0000000083f2d5c0       0x78 board/Realtek/rtl9300/librtl9300.o
 .text._reg_addr_find
                0x0000000083f2d638      0x348 board/Realtek/rtl9300/librtl9300.o
 .text.reg_read
                0x0000000083f2d980       0xe4 board/Realtek/rtl9300/librtl9300.o
                0x0000000083f2d980                reg_read
 .text.reg_write
                0x0000000083f2da64      0x14c board/Realtek/rtl9300/librtl9300.o
                0x0000000083f2da64                reg_write
 .text.reg_field_get
                0x0000000083f2dbb0      0x180 board/Realtek/rtl9300/librtl9300.o
                0x0000000083f2dbb0                reg_field_get
 .text.reg_field_set
                0x0000000083f2dd30      0x1a0 board/Realtek/rtl9300/librtl9300.o
                0x0000000083f2dd30                reg_field_set
 .text.reg_field_read
                0x0000000083f2ded0      0x148 board/Realtek/rtl9300/librtl9300.o
                0x0000000083f2ded0                reg_field_read
 .text.reg_field_write
                0x0000000083f2e018      0x1e0 board/Realtek/rtl9300/librtl9300.o
                0x0000000083f2e018                reg_field_write
 .text.reg_array_read
                0x0000000083f2e1f8       0xec board/Realtek/rtl9300/librtl9300.o
                0x0000000083f2e1f8                reg_array_read
 .text.reg_array_write
                0x0000000083f2e2e4      0x160 board/Realtek/rtl9300/librtl9300.o
                0x0000000083f2e2e4                reg_array_write
 .text.reg_array_field_read
                0x0000000083f2e444      0x1c4 board/Realtek/rtl9300/librtl9300.o
                0x0000000083f2e444                reg_array_field_read
 .text.reg_array_field_write
                0x0000000083f2e608      0x260 board/Realtek/rtl9300/librtl9300.o
                0x0000000083f2e608                reg_array_field_write
 .text.hal_miim_read
                0x0000000083f2e868      0x124 board/Realtek/rtl9300/librtl9300.o
                0x0000000083f2e868                hal_miim_read
 .text.hal_miim_write
                0x0000000083f2e98c      0x124 board/Realtek/rtl9300/librtl9300.o
                0x0000000083f2e98c                hal_miim_write
 .text.hal_miim_park_read
                0x0000000083f2eab0       0x90 board/Realtek/rtl9300/librtl9300.o
                0x0000000083f2eab0                hal_miim_park_read
 .text.hal_miim_park_write
                0x0000000083f2eb40       0x90 board/Realtek/rtl9300/librtl9300.o
                0x0000000083f2eb40                hal_miim_park_write
 .text.hal_miim_portmask_write
                0x0000000083f2ebd0       0x90 board/Realtek/rtl9300/librtl9300.o
                0x0000000083f2ebd0                hal_miim_portmask_write
 .text.hal_miim_extParkPage_read
                0x0000000083f2ec60       0xa4 board/Realtek/rtl9300/librtl9300.o
                0x0000000083f2ec60                hal_miim_extParkPage_read
 .text.hal_miim_extParkPage_write
                0x0000000083f2ed04       0xa4 board/Realtek/rtl9300/librtl9300.o
                0x0000000083f2ed04                hal_miim_extParkPage_write
 .text.hal_miim_extParkPage_portmask_write
                0x0000000083f2eda8       0xb8 board/Realtek/rtl9300/librtl9300.o
                0x0000000083f2eda8                hal_miim_extParkPage_portmask_write
 .text.hal_miim_mmd_read
                0x0000000083f2ee60       0x7c board/Realtek/rtl9300/librtl9300.o
                0x0000000083f2ee60                hal_miim_mmd_read
 .text.hal_miim_mmd_write
                0x0000000083f2eedc       0x84 board/Realtek/rtl9300/librtl9300.o
                0x0000000083f2eedc                hal_miim_mmd_write
 .text.hal_miim_mmd_portmask_write
                0x0000000083f2ef60       0x90 board/Realtek/rtl9300/librtl9300.o
                0x0000000083f2ef60                hal_miim_mmd_portmask_write
 .text.hal_miim_pollingEnable_get
                0x0000000083f2eff0       0x9c board/Realtek/rtl9300/librtl9300.o
                0x0000000083f2eff0                hal_miim_pollingEnable_get
 .text.hal_miim_pollingEnable_set
                0x0000000083f2f08c       0x9c board/Realtek/rtl9300/librtl9300.o
                0x0000000083f2f08c                hal_miim_pollingEnable_set
 .text.hal_miim_pollingPauseAllPort_set
                0x0000000083f2f128      0x108 board/Realtek/rtl9300/librtl9300.o
                0x0000000083f2f128                hal_miim_pollingPauseAllPort_set
 .text.hal_miim_pollingResumeAllPort_set
                0x0000000083f2f230       0xdc board/Realtek/rtl9300/librtl9300.o
                0x0000000083f2f230                hal_miim_pollingResumeAllPort_set
 .text.hal_miim_pollingWa_lock
                0x0000000083f2f30c       0x84 board/Realtek/rtl9300/librtl9300.o
                0x0000000083f2f30c                hal_miim_pollingWa_lock
 .text.hal_miim_pollingWa_unlock
                0x0000000083f2f390       0x40 board/Realtek/rtl9300/librtl9300.o
                0x0000000083f2f390                hal_miim_pollingWa_unlock
 .text.hal_miim_portSmiMdxProto_get
                0x0000000083f2f3d0       0x68 board/Realtek/rtl9300/librtl9300.o
                0x0000000083f2f3d0                hal_miim_portSmiMdxProto_get
 .text.hal_miim_portSmiMdxProto_set
                0x0000000083f2f438       0x68 board/Realtek/rtl9300/librtl9300.o
                0x0000000083f2f438                hal_miim_portSmiMdxProto_set
 .text.mac_probe
                0x0000000083f2f4a0      0x138 board/Realtek/rtl9300/librtl9300.o
                0x0000000083f2f4a0                mac_probe
 .text.mac_init
                0x0000000083f2f5d8       0x70 board/Realtek/rtl9300/librtl9300.o
                0x0000000083f2f5d8                mac_init
 .text.drv_phy_smiCmdComplete_wait
                0x0000000083f2f648       0xe4 board/Realtek/rtl9300/librtl9300.o
                0x0000000083f2f648                drv_phy_smiCmdComplete_wait
 .text.table_read
                0x0000000083f2f72c       0x68 board/Realtek/rtl9300/librtl9300.o
                0x0000000083f2f72c                table_read
 .text.table_write
                0x0000000083f2f794       0x68 board/Realtek/rtl9300/librtl9300.o
                0x0000000083f2f794                table_write
 .text.table_find
                0x0000000083f2f7fc       0x44 board/Realtek/rtl9300/librtl9300.o
                0x0000000083f2f7fc                table_find
 .text.table_field_get
                0x0000000083f2f840      0x13c board/Realtek/rtl9300/librtl9300.o
                0x0000000083f2f840                table_field_get
 .text.table_field_set
                0x0000000083f2f97c      0x17c board/Realtek/rtl9300/librtl9300.o
                0x0000000083f2f97c                table_field_set
 .text.table_size_get
                0x0000000083f2faf8       0x70 board/Realtek/rtl9300/librtl9300.o
                0x0000000083f2faf8                table_size_get
 .text.hal_serdes_reg_get
                0x0000000083f2fb68      0x10c board/Realtek/rtl9300/librtl9300.o
                0x0000000083f2fb68                hal_serdes_reg_get
 .text.hal_serdes_reg_set
                0x0000000083f2fc74      0x10c board/Realtek/rtl9300/librtl9300.o
                0x0000000083f2fc74                hal_serdes_reg_set
 .text.hal_sds_field_read
                0x0000000083f2fd80       0x8c board/Realtek/rtl9300/librtl9300.o
                0x0000000083f2fd80                hal_sds_field_read
 .text.hal_sds_field_write
                0x0000000083f2fe0c      0x1b8 board/Realtek/rtl9300/librtl9300.o
                0x0000000083f2fe0c                hal_sds_field_write
 .text._rtl8295_miim_read
                0x0000000083f2ffc4       0x84 board/Realtek/rtl9300/librtl9300.o
 .text._rtl8295_miim_write
                0x0000000083f30048       0x84 board/Realtek/rtl9300/librtl9300.o
 .text._rtl8295_mmd_write.constprop.0
                0x0000000083f300cc       0x7c board/Realtek/rtl9300/librtl9300.o
 .text._rtl8295_mmd_read.constprop.1
                0x0000000083f30148       0x7c board/Realtek/rtl9300/librtl9300.o
 .text._rtl8295_macSmiProto_get
                0x0000000083f301c4       0x34 board/Realtek/rtl9300/librtl9300.o
                0x0000000083f301c4                _rtl8295_macSmiProto_get
 .text._sdsPageReg_to_mmdReg
                0x0000000083f301f8       0x34 board/Realtek/rtl9300/librtl9300.o
                0x0000000083f301f8                _sdsPageReg_to_mmdReg
 .text.hal_rtl8295_sds_read
                0x0000000083f3022c      0x124 board/Realtek/rtl9300/librtl9300.o
                0x0000000083f3022c                hal_rtl8295_sds_read
 .text.hal_rtl8295_sds_write
                0x0000000083f30350      0x124 board/Realtek/rtl9300/librtl9300.o
                0x0000000083f30350                hal_rtl8295_sds_write
 .text._rtl8214c_indirect_write
                0x0000000083f30474      0x174 board/Realtek/rtl9300/librtl9300.o
                0x0000000083f30474                _rtl8214c_indirect_write
 .text.rtl8214c_config
                0x0000000083f305e8       0xd0 board/Realtek/rtl9300/librtl9300.o
                0x0000000083f305e8                rtl8214c_config
 .text.rtl8214qf_config_patchParam_cust_init
                0x0000000083f306b8       0x24 board/Realtek/rtl9300/librtl9300.o
                0x0000000083f306b8                rtl8214qf_config_patchParam_cust_init
 .text.rtl8214qf_config_patchParam_init
                0x0000000083f306dc       0x7c board/Realtek/rtl9300/librtl9300.o
                0x0000000083f306dc                rtl8214qf_config_patchParam_init
 .text.phy_8214qf_cust_conf_entry_find
                0x0000000083f30758       0xc0 board/Realtek/rtl9300/librtl9300.o
                0x0000000083f30758                phy_8214qf_cust_conf_entry_find
 .text.rtl8214QF_config
                0x0000000083f30818       0xcc board/Realtek/rtl9300/librtl9300.o
                0x0000000083f30818                rtl8214QF_config
 .text._phy_construct_samePhyTypeSmiBusfirstPort_get
                0x0000000083f308e4       0xc4 board/Realtek/rtl9300/librtl9300.o
                0x0000000083f308e4                _phy_construct_samePhyTypeSmiBusfirstPort_get
 .text.rtl8224_config
                0x0000000083f309a8       0xe8 board/Realtek/rtl9300/librtl9300.o
                0x0000000083f309a8                rtl8224_config
 .text._phy_construct_config_init_broadcast
                0x0000000083f30a90      0x14c board/Realtek/rtl9300/librtl9300.o
                0x0000000083f30a90                _phy_construct_config_init_broadcast
 .text.phy_construct_config_init
                0x0000000083f30bdc      0x108 board/Realtek/rtl9300/librtl9300.o
                0x0000000083f30bdc                phy_construct_config_init
 .text.phy_construct_reset
                0x0000000083f30ce4      0x184 board/Realtek/rtl9300/librtl9300.o
                0x0000000083f30ce4                phy_construct_reset
 .text.phy_driver_hook
                0x0000000083f30e68      0x134 board/Realtek/rtl9300/librtl9300.o
                0x0000000083f30e68                phy_driver_hook
 .text.phy_probe
                0x0000000083f30f9c      0x2d4 board/Realtek/rtl9300/librtl9300.o
                0x0000000083f30f9c                phy_probe
 .text.phy_attach_hook_driver
                0x0000000083f31270      0x138 board/Realtek/rtl9300/librtl9300.o
                0x0000000083f31270                phy_attach_hook_driver
 .text.phy_init
                0x0000000083f313a8       0xfc board/Realtek/rtl9300/librtl9300.o
                0x0000000083f313a8                phy_init
 .text._phy_c22_check
                0x0000000083f314a4       0x78 board/Realtek/rtl9300/librtl9300.o
                0x0000000083f314a4                _phy_c22_check
 .text._phy_c45_check
                0x0000000083f3151c      0x100 board/Realtek/rtl9300/librtl9300.o
                0x0000000083f3151c                _phy_c45_check
 .text.phy_mdcProto_probe
                0x0000000083f3161c      0x1d0 board/Realtek/rtl9300/librtl9300.o
                0x0000000083f3161c                phy_mdcProto_probe
 .text._phy_identify_9300_serdes
                0x0000000083f317ec      0x118 board/Realtek/rtl9300/librtl9300.o
 .text._phy_rtk_oui_chk
                0x0000000083f31904       0x28 board/Realtek/rtl9300/librtl9300.o
                0x0000000083f31904                _phy_rtk_oui_chk
 .text._phy_identify_default_c45
                0x0000000083f3192c       0xfc board/Realtek/rtl9300/librtl9300.o
                0x0000000083f3192c                _phy_identify_default_c45
 .text._phy_identify_8224
                0x0000000083f31a28      0x120 board/Realtek/rtl9300/librtl9300.o
 .text.phy_identify_OUI_check
                0x0000000083f31b48       0xcc board/Realtek/rtl9300/librtl9300.o
                0x0000000083f31b48                phy_identify_OUI_check
 .text._phy_mapper_hook
                0x0000000083f31c14       0x90 board/Realtek/rtl9300/librtl9300.o
                0x0000000083f31c14                _phy_mapper_hook
 .text.phy_identify_find
                0x0000000083f31ca4       0xc8 board/Realtek/rtl9300/librtl9300.o
                0x0000000083f31ca4                phy_identify_find
 .text.phy_identify_phyid_get
                0x0000000083f31d6c       0x90 board/Realtek/rtl9300/librtl9300.o
                0x0000000083f31d6c                phy_identify_phyid_get
 .text._phy_identify_default
                0x0000000083f31dfc       0x90 board/Realtek/rtl9300/librtl9300.o
                0x0000000083f31dfc                _phy_identify_default
 .text._phy_identify_8214QF
                0x0000000083f31e8c      0x1b8 board/Realtek/rtl9300/librtl9300.o
 .text.phy_identify_serdesDrvCtrl_get
                0x0000000083f32044       0x5c board/Realtek/rtl9300/librtl9300.o
                0x0000000083f32044                phy_identify_serdesDrvCtrl_get
 .text._phy_identify_phyctrl_register
                0x0000000083f320a0       0xcc board/Realtek/rtl9300/librtl9300.o
                0x0000000083f320a0                _phy_identify_phyctrl_register
 .text.phy_identify_driver_find_by_phyType
                0x0000000083f3216c       0x60 board/Realtek/rtl9300/librtl9300.o
                0x0000000083f3216c                phy_identify_driver_find_by_phyType
 .text.phy_identify_driver_find_blindly
                0x0000000083f321cc       0xb8 board/Realtek/rtl9300/librtl9300.o
                0x0000000083f321cc                phy_identify_driver_find_blindly
 .text.phy_identify_init
                0x0000000083f32284       0x78 board/Realtek/rtl9300/librtl9300.o
                0x0000000083f32284                phy_identify_init
 .text.chip_construct
                0x0000000083f322fc       0xf8 board/Realtek/rtl9300/librtl9300.o
                0x0000000083f322fc                chip_construct
 .text.dal_mgmt_mapper_allocate
                0x0000000083f323f4       0x4c board/Realtek/rtl9300/librtl9300.o
                0x0000000083f323f4                dal_mgmt_mapper_allocate
 .text.dal_mgmt_mapper_init
                0x0000000083f32440       0xf4 board/Realtek/rtl9300/librtl9300.o
                0x0000000083f32440                dal_mgmt_mapper_init
 .text.dal_mgmt_mapper_clear
                0x0000000083f32534       0x8c board/Realtek/rtl9300/librtl9300.o
                0x0000000083f32534                dal_mgmt_mapper_clear
 .text.dal_mgmt_initDevice
                0x0000000083f325c0       0xd4 board/Realtek/rtl9300/librtl9300.o
                0x0000000083f325c0                dal_mgmt_initDevice
 .text.dal_mgmt_init
                0x0000000083f32694      0x100 board/Realtek/rtl9300/librtl9300.o
                0x0000000083f32694                dal_mgmt_init
 .text.dal_phy_portPtpRxTimestamp_get
                0x0000000083f32794      0x174 board/Realtek/rtl9300/librtl9300.o
                0x0000000083f32794                dal_phy_portPtpRxTimestamp_get
 .text.dal_phy_portPtpTxTimestamp_get
                0x0000000083f32908      0x174 board/Realtek/rtl9300/librtl9300.o
                0x0000000083f32908                dal_phy_portPtpTxTimestamp_get
 .text.dal_phy_portRefTime_set
                0x0000000083f32a7c      0x1e0 board/Realtek/rtl9300/librtl9300.o
                0x0000000083f32a7c                dal_phy_portRefTime_set
 .text.dal_phy_portRefTimeAdjust_set
                0x0000000083f32c5c      0x1f8 board/Realtek/rtl9300/librtl9300.o
                0x0000000083f32c5c                dal_phy_portRefTimeAdjust_set
 .text.dal_phy_portRefTimeEnable_set
                0x0000000083f32e54      0x1b8 board/Realtek/rtl9300/librtl9300.o
                0x0000000083f32e54                dal_phy_portRefTimeEnable_set
 .text.dal_phy_portRefTimeFreq_set
                0x0000000083f3300c      0x1b8 board/Realtek/rtl9300/librtl9300.o
                0x0000000083f3300c                dal_phy_portRefTimeFreq_set
 .text.dal_phy_portRtctResult_get
                0x0000000083f331c4      0x11c board/Realtek/rtl9300/librtl9300.o
                0x0000000083f331c4                dal_phy_portRtctResult_get
 .text.dal_phy_portForceFlowctrlMode_get
                0x0000000083f332e0      0x124 board/Realtek/rtl9300/librtl9300.o
                0x0000000083f332e0                dal_phy_portForceFlowctrlMode_get
 .text.dal_phy_portForceFlowctrlMode_set
                0x0000000083f33404      0x124 board/Realtek/rtl9300/librtl9300.o
                0x0000000083f33404                dal_phy_portForceFlowctrlMode_set
 .text.dal_phy_rtctEnable_set
                0x0000000083f33528      0x190 board/Realtek/rtl9300/librtl9300.o
                0x0000000083f33528                dal_phy_rtctEnable_set
 .text.dal_phy_init
                0x0000000083f336b8      0x44c board/Realtek/rtl9300/librtl9300.o
                0x0000000083f336b8                dal_phy_init
 .text.dal_phy_portAutoNegoEnable_get
                0x0000000083f33b04      0x158 board/Realtek/rtl9300/librtl9300.o
                0x0000000083f33b04                dal_phy_portAutoNegoEnable_get
 .text.dal_phy_portMasterSlave_get
                0x0000000083f33c5c      0x134 board/Realtek/rtl9300/librtl9300.o
                0x0000000083f33c5c                dal_phy_portMasterSlave_get
 .text.dal_phy_portMasterSlave_set
                0x0000000083f33d90      0x12c board/Realtek/rtl9300/librtl9300.o
                0x0000000083f33d90                dal_phy_portMasterSlave_set
 .text.dal_phy_portReg_get
                0x0000000083f33ebc      0x104 board/Realtek/rtl9300/librtl9300.o
                0x0000000083f33ebc                dal_phy_portReg_get
 .text.dal_phy_portReg_set
                0x0000000083f33fc0       0xf4 board/Realtek/rtl9300/librtl9300.o
                0x0000000083f33fc0                dal_phy_portReg_set
 .text.dal_phy_portMmdReg_get
                0x0000000083f340b4      0x104 board/Realtek/rtl9300/librtl9300.o
                0x0000000083f340b4                dal_phy_portMmdReg_get
 .text.dal_phy_portMmdReg_set
                0x0000000083f341b8       0xf4 board/Realtek/rtl9300/librtl9300.o
                0x0000000083f341b8                dal_phy_portMmdReg_set
 .text.dal_phy_portmaskMmdReg_set
                0x0000000083f342ac      0x11c board/Realtek/rtl9300/librtl9300.o
                0x0000000083f342ac                dal_phy_portmaskMmdReg_set
 .text.dal_phy_portComboPortMedia_get
                0x0000000083f343c8      0x144 board/Realtek/rtl9300/librtl9300.o
                0x0000000083f343c8                dal_phy_portComboPortMedia_get
 .text.dal_phy_portComboPortMedia_set
                0x0000000083f3450c      0x148 board/Realtek/rtl9300/librtl9300.o
                0x0000000083f3450c                dal_phy_portComboPortMedia_set
 .text.dal_phy_portComboPortFiberMedia_get
                0x0000000083f34654      0x144 board/Realtek/rtl9300/librtl9300.o
                0x0000000083f34654                dal_phy_portComboPortFiberMedia_get
 .text.dal_phy_portComboPortFiberMedia_set
                0x0000000083f34798      0x148 board/Realtek/rtl9300/librtl9300.o
                0x0000000083f34798                dal_phy_portComboPortFiberMedia_set
 .text.dal_phy_portLinkDownPowerSavingEnable_get
                0x0000000083f348e0      0x144 board/Realtek/rtl9300/librtl9300.o
                0x0000000083f348e0                dal_phy_portLinkDownPowerSavingEnable_get
 .text.dal_phy_portLinkDownPowerSavingEnable_set
                0x0000000083f34a24      0x148 board/Realtek/rtl9300/librtl9300.o
                0x0000000083f34a24                dal_phy_portLinkDownPowerSavingEnable_set
 .text.dal_phy_portGigaLiteEnable_get
                0x0000000083f34b6c      0x144 board/Realtek/rtl9300/librtl9300.o
                0x0000000083f34b6c                dal_phy_portGigaLiteEnable_get
 .text.dal_phy_portGigaLiteEnable_set
                0x0000000083f34cb0      0x148 board/Realtek/rtl9300/librtl9300.o
                0x0000000083f34cb0                dal_phy_portGigaLiteEnable_set
 .text.dal_phy_port2pt5gLiteEnable_get
                0x0000000083f34df8      0x144 board/Realtek/rtl9300/librtl9300.o
                0x0000000083f34df8                dal_phy_port2pt5gLiteEnable_get
 .text.dal_phy_port2pt5gLiteEnable_set
                0x0000000083f34f3c      0x148 board/Realtek/rtl9300/librtl9300.o
                0x0000000083f34f3c                dal_phy_port2pt5gLiteEnable_set
 .text.dal_phy_portGreenEnable_get
                0x0000000083f35084      0x144 board/Realtek/rtl9300/librtl9300.o
                0x0000000083f35084                dal_phy_portGreenEnable_get
 .text.dal_phy_portGreenEnable_set
                0x0000000083f351c8      0x148 board/Realtek/rtl9300/librtl9300.o
                0x0000000083f351c8                dal_phy_portGreenEnable_set
 .text.dal_phy_portEeeEnable_get
                0x0000000083f35310      0x144 board/Realtek/rtl9300/librtl9300.o
                0x0000000083f35310                dal_phy_portEeeEnable_get
 .text.dal_phy_portEeeEnable_set
                0x0000000083f35454      0x148 board/Realtek/rtl9300/librtl9300.o
                0x0000000083f35454                dal_phy_portEeeEnable_set
 .text.dal_phy_portCrossOverMode_get
                0x0000000083f3559c      0x144 board/Realtek/rtl9300/librtl9300.o
                0x0000000083f3559c                dal_phy_portCrossOverMode_get
 .text.dal_phy_portCrossOverMode_set
                0x0000000083f356e0      0x148 board/Realtek/rtl9300/librtl9300.o
                0x0000000083f356e0                dal_phy_portCrossOverMode_set
 .text.dal_phy_portCrossOverStatus_get
                0x0000000083f35828      0x144 board/Realtek/rtl9300/librtl9300.o
                0x0000000083f35828                dal_phy_portCrossOverStatus_get
 .text.dal_phy_portDownSpeedEnable_get
                0x0000000083f3596c      0x144 board/Realtek/rtl9300/librtl9300.o
                0x0000000083f3596c                dal_phy_portDownSpeedEnable_get
 .text.dal_phy_portDownSpeedEnable_set
                0x0000000083f35ab0      0x148 board/Realtek/rtl9300/librtl9300.o
                0x0000000083f35ab0                dal_phy_portDownSpeedEnable_set
 .text.dal_phy_portDownSpeedStatus_get
                0x0000000083f35bf8      0x144 board/Realtek/rtl9300/librtl9300.o
                0x0000000083f35bf8                dal_phy_portDownSpeedStatus_get
 .text.dal_phy_portFiberDownSpeedEnable_get
                0x0000000083f35d3c      0x144 board/Realtek/rtl9300/librtl9300.o
                0x0000000083f35d3c                dal_phy_portFiberDownSpeedEnable_get
 .text.dal_phy_portFiberDownSpeedEnable_set
                0x0000000083f35e80      0x148 board/Realtek/rtl9300/librtl9300.o
                0x0000000083f35e80                dal_phy_portFiberDownSpeedEnable_set
 .text.dal_phy_portLoopBack_get
                0x0000000083f35fc8      0x16c board/Realtek/rtl9300/librtl9300.o
                0x0000000083f35fc8                dal_phy_portLoopBack_get
 .text.dal_phy_portLoopBack_set
                0x0000000083f36134      0x170 board/Realtek/rtl9300/librtl9300.o
                0x0000000083f36134                dal_phy_portLoopBack_set
 .text.dal_phy_portFiberTxDis_set
                0x0000000083f362a4      0x158 board/Realtek/rtl9300/librtl9300.o
                0x0000000083f362a4                dal_phy_portFiberTxDis_set
 .text.dal_phy_portFiberTxDisPin_set
                0x0000000083f363fc      0x14c board/Realtek/rtl9300/librtl9300.o
                0x0000000083f363fc                dal_phy_portFiberTxDisPin_set
 .text.dal_phy_portExtParkPageReg_get
                0x0000000083f36548      0x16c board/Realtek/rtl9300/librtl9300.o
                0x0000000083f36548                dal_phy_portExtParkPageReg_get
 .text.dal_phy_portExtParkPageReg_set
                0x0000000083f366b4      0x15c board/Realtek/rtl9300/librtl9300.o
                0x0000000083f366b4                dal_phy_portExtParkPageReg_set
 .text.dal_phy_portmaskExtParkPageReg_set
                0x0000000083f36810      0x134 board/Realtek/rtl9300/librtl9300.o
                0x0000000083f36810                dal_phy_portmaskExtParkPageReg_set
 .text.dal_phy_portFiberNwayForceLinkEnable_get
                0x0000000083f36944      0x158 board/Realtek/rtl9300/librtl9300.o
                0x0000000083f36944                dal_phy_portFiberNwayForceLinkEnable_get
 .text.dal_phy_portFiberNwayForceLinkEnable_set
                0x0000000083f36a9c      0x15c board/Realtek/rtl9300/librtl9300.o
                0x0000000083f36a9c                dal_phy_portFiberNwayForceLinkEnable_set
 .text.dal_phy_portForceModeAbility_get
                0x0000000083f36bf8      0x2e0 board/Realtek/rtl9300/librtl9300.o
                0x0000000083f36bf8                dal_phy_portForceModeAbility_get
 .text.dal_phy_portAutoNegoAbility_get
                0x0000000083f36ed8      0x200 board/Realtek/rtl9300/librtl9300.o
                0x0000000083f36ed8                dal_phy_portAutoNegoAbility_get
 .text.dal_phy_portAutoNegoAbilityLocal_get
                0x0000000083f370d8      0x160 board/Realtek/rtl9300/librtl9300.o
                0x0000000083f370d8                dal_phy_portAutoNegoAbilityLocal_get
 .text.dal_phy_portFiberRxEnable_get
                0x0000000083f37238      0x144 board/Realtek/rtl9300/librtl9300.o
                0x0000000083f37238                dal_phy_portFiberRxEnable_get
 .text.dal_phy_portFiberRxEnable_set
                0x0000000083f3737c      0x144 board/Realtek/rtl9300/librtl9300.o
                0x0000000083f3737c                dal_phy_portFiberRxEnable_set
 .text.dal_phy_port10gMedia_get
                0x0000000083f374c0      0x144 board/Realtek/rtl9300/librtl9300.o
                0x0000000083f374c0                dal_phy_port10gMedia_get
 .text.dal_phy_port10gMedia_set
                0x0000000083f37604      0x144 board/Realtek/rtl9300/librtl9300.o
                0x0000000083f37604                dal_phy_port10gMedia_set
 .text.dal_phy_portIeeeTestMode_set
                0x0000000083f37748      0x120 board/Realtek/rtl9300/librtl9300.o
                0x0000000083f37748                dal_phy_portIeeeTestMode_set
 .text.dal_phy_polar_get
                0x0000000083f37868      0x148 board/Realtek/rtl9300/librtl9300.o
                0x0000000083f37868                dal_phy_polar_get
 .text.dal_phy_polar_set
                0x0000000083f379b0      0x168 board/Realtek/rtl9300/librtl9300.o
                0x0000000083f379b0                dal_phy_polar_set
 .text.dal_phy_portEyeMonitor_start
                0x0000000083f37b18      0x130 board/Realtek/rtl9300/librtl9300.o
                0x0000000083f37b18                dal_phy_portEyeMonitor_start
 .text.dal_phy_portEyeMonitorInfo_get
                0x0000000083f37c48      0x138 board/Realtek/rtl9300/librtl9300.o
                0x0000000083f37c48                dal_phy_portEyeMonitorInfo_get
 .text.dal_phy_portFlashImage_load
                0x0000000083f37d80      0x130 board/Realtek/rtl9300/librtl9300.o
                0x0000000083f37d80                dal_phy_portFlashImage_load
 .text.dal_phy_portSds_get
                0x0000000083f37eb0      0x144 board/Realtek/rtl9300/librtl9300.o
                0x0000000083f37eb0                dal_phy_portSds_get
 .text.dal_phy_portSds_set
                0x0000000083f37ff4      0x144 board/Realtek/rtl9300/librtl9300.o
                0x0000000083f37ff4                dal_phy_portSds_set
 .text.dal_phy_sdsRxCaliStatus_get
                0x0000000083f38138      0x160 board/Realtek/rtl9300/librtl9300.o
                0x0000000083f38138                dal_phy_sdsRxCaliStatus_get
 .text.dal_phy_portEnable_get
                0x0000000083f38298      0x144 board/Realtek/rtl9300/librtl9300.o
                0x0000000083f38298                dal_phy_portEnable_get
 .text.dal_phy_portEnable_set
                0x0000000083f383dc       0xc8 board/Realtek/rtl9300/librtl9300.o
                0x0000000083f383dc                dal_phy_portEnable_set
 .text.dal_phy_portPtpEnable_get
                0x0000000083f384a4      0x164 board/Realtek/rtl9300/librtl9300.o
                0x0000000083f384a4                dal_phy_portPtpEnable_get
 .text.dal_phy_portPtpEnable_set
                0x0000000083f38608      0x138 board/Realtek/rtl9300/librtl9300.o
                0x0000000083f38608                dal_phy_portPtpEnable_set
 .text.dal_phy_portRefTime_get
                0x0000000083f38740      0x164 board/Realtek/rtl9300/librtl9300.o
                0x0000000083f38740                dal_phy_portRefTime_get
 .text.dal_phy_time_portPtpFullSec_get
                0x0000000083f388a4      0x230 board/Realtek/rtl9300/librtl9300.o
                0x0000000083f388a4                dal_phy_time_portPtpFullSec_get
 .text.dal_phy_portRefTimeEnable_get
                0x0000000083f38ad4      0x164 board/Realtek/rtl9300/librtl9300.o
                0x0000000083f38ad4                dal_phy_portRefTimeEnable_get
 .text.dal_phy_portRefTimeFreq_get
                0x0000000083f38c38      0x164 board/Realtek/rtl9300/librtl9300.o
                0x0000000083f38c38                dal_phy_portRefTimeFreq_get
 .text.dal_phy_portSwitchMacAddr_get
                0x0000000083f38d9c      0x164 board/Realtek/rtl9300/librtl9300.o
                0x0000000083f38d9c                dal_phy_portSwitchMacAddr_get
 .text.dal_phy_portSwitchMacAddr_set
                0x0000000083f38f00       0xf4 board/Realtek/rtl9300/librtl9300.o
                0x0000000083f38f00                dal_phy_portSwitchMacAddr_set
 .text.dal_phy_portPtpMacAddrRange_get
                0x0000000083f38ff4      0x164 board/Realtek/rtl9300/librtl9300.o
                0x0000000083f38ff4                dal_phy_portPtpMacAddrRange_get
 .text.dal_phy_portPtpMacAddrRange_set
                0x0000000083f39158       0xf4 board/Realtek/rtl9300/librtl9300.o
                0x0000000083f39158                dal_phy_portPtpMacAddrRange_set
 .text.dal_phy_portPtpVlanTpid_get
                0x0000000083f3924c      0x194 board/Realtek/rtl9300/librtl9300.o
                0x0000000083f3924c                dal_phy_portPtpVlanTpid_get
 .text.dal_phy_portPtpVlanTpid_set
                0x0000000083f393e0      0x104 board/Realtek/rtl9300/librtl9300.o
                0x0000000083f393e0                dal_phy_portPtpVlanTpid_set
 .text.dal_phy_portPtpOper_get
                0x0000000083f394e4      0x164 board/Realtek/rtl9300/librtl9300.o
                0x0000000083f394e4                dal_phy_portPtpOper_get
 .text.dal_phy_portPtpOper_set
                0x0000000083f39648       0xf4 board/Realtek/rtl9300/librtl9300.o
                0x0000000083f39648                dal_phy_portPtpOper_set
 .text.dal_phy_portPtpLatchTime_get
                0x0000000083f3973c      0x164 board/Realtek/rtl9300/librtl9300.o
                0x0000000083f3973c                dal_phy_portPtpLatchTime_get
 .text.dal_phy_portPtpRefTimeFreqCfg_get
                0x0000000083f398a0      0x150 board/Realtek/rtl9300/librtl9300.o
                0x0000000083f398a0                dal_phy_portPtpRefTimeFreqCfg_get
 .text.dal_phy_portPtpRefTimeFreqCfg_set
                0x0000000083f399f0      0x144 board/Realtek/rtl9300/librtl9300.o
                0x0000000083f399f0                dal_phy_portPtpRefTimeFreqCfg_set
 .text.dal_phy_portPtpTxInterruptStatus_get
                0x0000000083f39b34      0x144 board/Realtek/rtl9300/librtl9300.o
                0x0000000083f39b34                dal_phy_portPtpTxInterruptStatus_get
 .text.dal_phy_portPtpInterruptEnable_get
                0x0000000083f39c78      0x144 board/Realtek/rtl9300/librtl9300.o
                0x0000000083f39c78                dal_phy_portPtpInterruptEnable_get
 .text.dal_phy_portPtpInterruptEnable_set
                0x0000000083f39dbc      0x148 board/Realtek/rtl9300/librtl9300.o
                0x0000000083f39dbc                dal_phy_portPtpInterruptEnable_set
 .text.dal_phy_portPtpTxTimestampFifo_get
                0x0000000083f39f04      0x17c board/Realtek/rtl9300/librtl9300.o
                0x0000000083f39f04                dal_phy_portPtpTxTimestampFifo_get
 .text.dal_phy_portPtp1PPSOutput_get
                0x0000000083f3a080      0x150 board/Realtek/rtl9300/librtl9300.o
                0x0000000083f3a080                dal_phy_portPtp1PPSOutput_get
 .text.dal_phy_portPtp1PPSOutput_set
                0x0000000083f3a1d0      0x150 board/Realtek/rtl9300/librtl9300.o
                0x0000000083f3a1d0                dal_phy_portPtp1PPSOutput_set
 .text.dal_phy_portPtpClockOutput_get
                0x0000000083f3a320      0x144 board/Realtek/rtl9300/librtl9300.o
                0x0000000083f3a320                dal_phy_portPtpClockOutput_get
 .text.dal_phy_portPtpClockOutput_set
                0x0000000083f3a464      0x144 board/Realtek/rtl9300/librtl9300.o
                0x0000000083f3a464                dal_phy_portPtpClockOutput_set
 .text.dal_phy_portPtpOutputSigSel_get
                0x0000000083f3a5a8      0x144 board/Realtek/rtl9300/librtl9300.o
                0x0000000083f3a5a8                dal_phy_portPtpOutputSigSel_get
 .text.dal_phy_portPtpOutputSigSel_set
                0x0000000083f3a6ec      0x148 board/Realtek/rtl9300/librtl9300.o
                0x0000000083f3a6ec                dal_phy_portPtpOutputSigSel_set
 .text.dal_phy_portPtpTransEnable_get
                0x0000000083f3a834      0x144 board/Realtek/rtl9300/librtl9300.o
                0x0000000083f3a834                dal_phy_portPtpTransEnable_get
 .text.dal_phy_portPtpTransEnable_set
                0x0000000083f3a978      0x148 board/Realtek/rtl9300/librtl9300.o
                0x0000000083f3a978                dal_phy_portPtpTransEnable_set
 .text.dal_phy_portPtpLinkDelay_get
                0x0000000083f3aac0      0x144 board/Realtek/rtl9300/librtl9300.o
                0x0000000083f3aac0                dal_phy_portPtpLinkDelay_get
 .text.dal_phy_portPtpLinkDelay_set
                0x0000000083f3ac04      0x13c board/Realtek/rtl9300/librtl9300.o
                0x0000000083f3ac04                dal_phy_portPtpLinkDelay_set
 .text.dal_phy_portReset_set
                0x0000000083f3ad40      0x130 board/Realtek/rtl9300/librtl9300.o
                0x0000000083f3ad40                dal_phy_portReset_set
 .text.dal_phy_portLinkStatus_get
                0x0000000083f3ae70      0x144 board/Realtek/rtl9300/librtl9300.o
                0x0000000083f3ae70                dal_phy_portLinkStatus_get
 .text.dal_phy_portLinkMedia_get
                0x0000000083f3afb4      0x1ac board/Realtek/rtl9300/librtl9300.o
                0x0000000083f3afb4                dal_phy_portLinkMedia_get
 .text.dal_phy_portPeerAutoNegoAbility_get
                0x0000000083f3b160      0x144 board/Realtek/rtl9300/librtl9300.o
                0x0000000083f3b160                dal_phy_portPeerAutoNegoAbility_get
 .text.dal_phy_portMacIntfSerdesMode_get
                0x0000000083f3b2a4       0xc8 board/Realtek/rtl9300/librtl9300.o
                0x0000000083f3b2a4                dal_phy_portMacIntfSerdesMode_get
 .text.dal_phy_portLedMode_set
                0x0000000083f3b36c       0xc8 board/Realtek/rtl9300/librtl9300.o
                0x0000000083f3b36c                dal_phy_portLedMode_set
 .text.dal_phy_portLedCtrl_get
                0x0000000083f3b434      0x10c board/Realtek/rtl9300/librtl9300.o
                0x0000000083f3b434                dal_phy_portLedCtrl_get
 .text.dal_phy_portLedCtrl_set
                0x0000000083f3b540      0x10c board/Realtek/rtl9300/librtl9300.o
                0x0000000083f3b540                dal_phy_portLedCtrl_set
 .text.dal_phy_portMacIntfSerdesLinkStatus_get
                0x0000000083f3b64c      0x118 board/Realtek/rtl9300/librtl9300.o
                0x0000000083f3b64c                dal_phy_portMacIntfSerdesLinkStatus_get
 .text.dal_phy_portSdsEyeParam_get
                0x0000000083f3b764      0x114 board/Realtek/rtl9300/librtl9300.o
                0x0000000083f3b764                dal_phy_portSdsEyeParam_get
 .text.dal_phy_portSdsEyeParam_set
                0x0000000083f3b878      0x114 board/Realtek/rtl9300/librtl9300.o
                0x0000000083f3b878                dal_phy_portSdsEyeParam_set
 .text.dal_phy_portMdiLoopbackEnable_get
                0x0000000083f3b98c      0x144 board/Realtek/rtl9300/librtl9300.o
                0x0000000083f3b98c                dal_phy_portMdiLoopbackEnable_get
 .text.dal_phy_portMdiLoopbackEnable_set
                0x0000000083f3bad0      0x148 board/Realtek/rtl9300/librtl9300.o
                0x0000000083f3bad0                dal_phy_portMdiLoopbackEnable_set
 .text.dal_phy_portIntr_init
                0x0000000083f3bc18      0x158 board/Realtek/rtl9300/librtl9300.o
                0x0000000083f3bc18                dal_phy_portIntr_init
 .text.dal_phy_portIntrEnable_get
                0x0000000083f3bd70      0x16c board/Realtek/rtl9300/librtl9300.o
                0x0000000083f3bd70                dal_phy_portIntrEnable_get
 .text.dal_phy_portIntrEnable_set
                0x0000000083f3bedc      0x160 board/Realtek/rtl9300/librtl9300.o
                0x0000000083f3bedc                dal_phy_portIntrEnable_set
 .text.dal_phy_portIntrStatus_get
                0x0000000083f3c03c      0x16c board/Realtek/rtl9300/librtl9300.o
                0x0000000083f3c03c                dal_phy_portIntrStatus_get
 .text.dal_phy_portIntrMask_get
                0x0000000083f3c1a8      0x16c board/Realtek/rtl9300/librtl9300.o
                0x0000000083f3c1a8                dal_phy_portIntrMask_get
 .text.dal_phy_portIntrMask_set
                0x0000000083f3c314      0x160 board/Realtek/rtl9300/librtl9300.o
                0x0000000083f3c314                dal_phy_portIntrMask_set
 .text.dal_phy_portPhySdsTestMode_set
                0x0000000083f3c474      0x154 board/Realtek/rtl9300/librtl9300.o
                0x0000000083f3c474                dal_phy_portPhySdsTestMode_set
 .text.dal_phy_portPhySdsTestModeCnt_get
                0x0000000083f3c5c8      0x160 board/Realtek/rtl9300/librtl9300.o
                0x0000000083f3c5c8                dal_phy_portPhySdsTestModeCnt_get
 .text.dal_phy_portSdsLeq_get
                0x0000000083f3c728      0x160 board/Realtek/rtl9300/librtl9300.o
                0x0000000083f3c728                dal_phy_portSdsLeq_get
 .text.dal_phy_portSdsLeq_set
                0x0000000083f3c888      0x158 board/Realtek/rtl9300/librtl9300.o
                0x0000000083f3c888                dal_phy_portSdsLeq_set
 .text.dal_phy_portCtrl_get
                0x0000000083f3c9e0      0x14c board/Realtek/rtl9300/librtl9300.o
                0x0000000083f3c9e0                dal_phy_portCtrl_get
 .text.dal_phy_portCtrl_set
                0x0000000083f3cb2c      0x144 board/Realtek/rtl9300/librtl9300.o
                0x0000000083f3cb2c                dal_phy_portCtrl_set
 .text.dal_phy_debug_get
                0x0000000083f3cc70      0x440 board/Realtek/rtl9300/librtl9300.o
                0x0000000083f3cc70                dal_phy_debug_get
 .text.dal_phy_portLiteEnable_get
                0x0000000083f3d0b0      0x14c board/Realtek/rtl9300/librtl9300.o
                0x0000000083f3d0b0                dal_phy_portLiteEnable_get
 .text.dal_phy_portLiteEnable_set
                0x0000000083f3d1fc      0x150 board/Realtek/rtl9300/librtl9300.o
                0x0000000083f3d1fc                dal_phy_portLiteEnable_set
 .text.dal_phy_portSpeedDuplex_get
                0x0000000083f3d34c      0x150 board/Realtek/rtl9300/librtl9300.o
                0x0000000083f3d34c                dal_phy_portSpeedDuplex_get
 .text.dal_phy_portDbgCounter_get
                0x0000000083f3d49c      0x14c board/Realtek/rtl9300/librtl9300.o
                0x0000000083f3d49c                dal_phy_portDbgCounter_get
 .text.dal_phy_debug_batch_port_set
                0x0000000083f3d5e8       0x6c board/Realtek/rtl9300/librtl9300.o
                0x0000000083f3d5e8                dal_phy_debug_batch_port_set
 .text.dal_phy_port_macsecReg_get
                0x0000000083f3d654      0x14c board/Realtek/rtl9300/librtl9300.o
                0x0000000083f3d654                dal_phy_port_macsecReg_get
 .text.dal_phy_port_macsecReg_set
                0x0000000083f3d7a0      0x138 board/Realtek/rtl9300/librtl9300.o
                0x0000000083f3d7a0                dal_phy_port_macsecReg_set
 .text.dal_phy_macsec_port_cfg_set
                0x0000000083f3d8d8      0x134 board/Realtek/rtl9300/librtl9300.o
                0x0000000083f3d8d8                dal_phy_macsec_port_cfg_set
 .text.dal_phy_macsec_port_cfg_get
                0x0000000083f3da0c      0x134 board/Realtek/rtl9300/librtl9300.o
                0x0000000083f3da0c                dal_phy_macsec_port_cfg_get
 .text.dal_phy_macsec_sc_create
                0x0000000083f3db40      0x158 board/Realtek/rtl9300/librtl9300.o
                0x0000000083f3db40                dal_phy_macsec_sc_create
 .text.dal_phy_macsec_sc_get
                0x0000000083f3dc98      0x160 board/Realtek/rtl9300/librtl9300.o
                0x0000000083f3dc98                dal_phy_macsec_sc_get
 .text.dal_phy_macsec_sc_del
                0x0000000083f3ddf8      0x148 board/Realtek/rtl9300/librtl9300.o
                0x0000000083f3ddf8                dal_phy_macsec_sc_del
 .text.dal_phy_macsec_sc_status_get
                0x0000000083f3df40      0x160 board/Realtek/rtl9300/librtl9300.o
                0x0000000083f3df40                dal_phy_macsec_sc_status_get
 .text.dal_phy_macsec_sa_create
                0x0000000083f3e0a0      0x188 board/Realtek/rtl9300/librtl9300.o
                0x0000000083f3e0a0                dal_phy_macsec_sa_create
 .text.dal_phy_macsec_sa_get
                0x0000000083f3e228      0x188 board/Realtek/rtl9300/librtl9300.o
                0x0000000083f3e228                dal_phy_macsec_sa_get
 .text.dal_phy_macsec_sa_del
                0x0000000083f3e3b0      0x164 board/Realtek/rtl9300/librtl9300.o
                0x0000000083f3e3b0                dal_phy_macsec_sa_del
 .text.dal_phy_macsec_sa_activate
                0x0000000083f3e514      0x164 board/Realtek/rtl9300/librtl9300.o
                0x0000000083f3e514                dal_phy_macsec_sa_activate
 .text.dal_phy_macsec_rxsa_disable
                0x0000000083f3e678      0x148 board/Realtek/rtl9300/librtl9300.o
                0x0000000083f3e678                dal_phy_macsec_rxsa_disable
 .text.dal_phy_macsec_txsa_disable
                0x0000000083f3e7c0      0x134 board/Realtek/rtl9300/librtl9300.o
                0x0000000083f3e7c0                dal_phy_macsec_txsa_disable
 .text.dal_phy_macsec_stat_clear
                0x0000000083f3e8f4      0x120 board/Realtek/rtl9300/librtl9300.o
                0x0000000083f3e8f4                dal_phy_macsec_stat_clear
 .text.dal_phy_macsec_stat_port_get
                0x0000000083f3ea14      0x144 board/Realtek/rtl9300/librtl9300.o
                0x0000000083f3ea14                dal_phy_macsec_stat_port_get
 .text.dal_phy_macsec_stat_txsa_get
                0x0000000083f3eb58      0x188 board/Realtek/rtl9300/librtl9300.o
                0x0000000083f3eb58                dal_phy_macsec_stat_txsa_get
 .text.dal_phy_macsec_stat_rxsa_get
                0x0000000083f3ece0      0x188 board/Realtek/rtl9300/librtl9300.o
                0x0000000083f3ece0                dal_phy_macsec_stat_rxsa_get
 .text.dal_phy_macsec_intr_status_get
                0x0000000083f3ee68      0x134 board/Realtek/rtl9300/librtl9300.o
                0x0000000083f3ee68                dal_phy_macsec_intr_status_get
 .text.dal_phy_portSdsReg_set
                0x0000000083f3ef9c       0xf4 board/Realtek/rtl9300/librtl9300.o
                0x0000000083f3ef9c                dal_phy_portSdsReg_set
 .text.dal_phy_portSdsReg_get
                0x0000000083f3f090      0x104 board/Realtek/rtl9300/librtl9300.o
                0x0000000083f3f090                dal_phy_portSdsReg_get
 .text._dal_phy_portForceModePause_get
                0x0000000083f3f194       0x68 board/Realtek/rtl9300/librtl9300.o
                0x0000000083f3f194                _dal_phy_portForceModePause_get
 .text.dal_phy_portForceModeAbility_set
                0x0000000083f3f1fc      0x3b4 board/Realtek/rtl9300/librtl9300.o
                0x0000000083f3f1fc                dal_phy_portForceModeAbility_set
 .text.dal_phy_portAutoNegoAbility_set
                0x0000000083f3f5b0      0x298 board/Realtek/rtl9300/librtl9300.o
                0x0000000083f3f5b0                dal_phy_portAutoNegoAbility_set
 .text.dal_phyMapper_init
                0x0000000083f3f848      0x74c board/Realtek/rtl9300/librtl9300.o
                0x0000000083f3f848                dal_phyMapper_init
 .text.dal_phy_portAutoNegoEnablePortmask_set
                0x0000000083f3ff94      0x578 board/Realtek/rtl9300/librtl9300.o
                0x0000000083f3ff94                dal_phy_portAutoNegoEnablePortmask_set
 .text.dal_phy_portAutoNegoEnable_set
                0x0000000083f4050c       0xf8 board/Realtek/rtl9300/librtl9300.o
                0x0000000083f4050c                dal_phy_portAutoNegoEnable_set
 .text.dal_phy_fiberUnidirEnable_set
                0x0000000083f40604       0xf4 board/Realtek/rtl9300/librtl9300.o
                0x0000000083f40604                dal_phy_fiberUnidirEnable_set
 .text._dal_phy_macIntfSerdes_reset
                0x0000000083f406f8       0xc0 board/Realtek/rtl9300/librtl9300.o
                0x0000000083f406f8                _dal_phy_macIntfSerdes_reset
 .text._dal_phy_debug_batch_init
                0x0000000083f407b8       0xd0 board/Realtek/rtl9300/librtl9300.o
                0x0000000083f407b8                _dal_phy_debug_batch_init
 .text._dal_phy_debug_batch_entry_print
                0x0000000083f40888      0x18c board/Realtek/rtl9300/librtl9300.o
                0x0000000083f40888                _dal_phy_debug_batch_entry_print
 .text._dal_phy_debug_batch_set
                0x0000000083f40a14       0xbc board/Realtek/rtl9300/librtl9300.o
                0x0000000083f40a14                _dal_phy_debug_batch_set
 .text._dal_phy_debug_batch_run_op
                0x0000000083f40ad0      0x654 board/Realtek/rtl9300/librtl9300.o
                0x0000000083f40ad0                _dal_phy_debug_batch_run_op
 .text._dal_phy_debug_batch_loop
                0x0000000083f41124      0x154 board/Realtek/rtl9300/librtl9300.o
                0x0000000083f41124                _dal_phy_debug_batch_loop
 .text._dal_phy_debug_batch_run
                0x0000000083f41278      0x21c board/Realtek/rtl9300/librtl9300.o
                0x0000000083f41278                _dal_phy_debug_batch_run
 .text.dal_phy_debug_batch_op_set
                0x0000000083f41494      0x234 board/Realtek/rtl9300/librtl9300.o
                0x0000000083f41494                dal_phy_debug_batch_op_set
 .text.dal_common_unavail
                0x0000000083f416c8        0x8 board/Realtek/rtl9300/librtl9300.o
                0x0000000083f416c8                dal_common_unavail
 .text.rtk_init
                0x0000000083f416d0      0x100 board/Realtek/rtl9300/librtl9300.o
                0x0000000083f416d0                rtk_init
 .text.rtk_port_isolation_set
                0x0000000083f417d0       0x48 board/Realtek/rtl9300/librtl9300.o
                0x0000000083f417d0                rtk_port_isolation_set
 .text.rtk_port_adminEnable_set
                0x0000000083f41818       0x48 board/Realtek/rtl9300/librtl9300.o
                0x0000000083f41818                rtk_port_adminEnable_set
 .text.rtk_port_10gMedia_set
                0x0000000083f41860       0x48 board/Realtek/rtl9300/librtl9300.o
                0x0000000083f41860                rtk_port_10gMedia_set
 .text.rtk_port_phyIeeeTestMode_set
                0x0000000083f418a8       0x48 board/Realtek/rtl9300/librtl9300.o
                0x0000000083f418a8                rtk_port_phyIeeeTestMode_set
 .text.rtk_l2_portNewMacOp_set
                0x0000000083f418f0       0x48 board/Realtek/rtl9300/librtl9300.o
                0x0000000083f418f0                rtk_l2_portNewMacOp_set
 .text.phy_common_unavail
                0x0000000083f41938        0x8 board/Realtek/rtl9300/librtl9300.o
                0x0000000083f41938                phy_common_unavail
 .text.phy_common_autoNegoEnable_get
                0x0000000083f41940       0x50 board/Realtek/rtl9300/librtl9300.o
                0x0000000083f41940                phy_common_autoNegoEnable_get
 .text.phy_common_autoNegoEnable_set
                0x0000000083f41990       0x88 board/Realtek/rtl9300/librtl9300.o
                0x0000000083f41990                phy_common_autoNegoEnable_set
 .text.phy_common_duplex_get
                0x0000000083f41a18       0x44 board/Realtek/rtl9300/librtl9300.o
                0x0000000083f41a18                phy_common_duplex_get
 .text.phy_common_duplex_set
                0x0000000083f41a5c       0x84 board/Realtek/rtl9300/librtl9300.o
                0x0000000083f41a5c                phy_common_duplex_set
 .text.phy_common_enable_set
                0x0000000083f41ae0       0x90 board/Realtek/rtl9300/librtl9300.o
                0x0000000083f41ae0                phy_common_enable_set
 .text.phy_common_enable_get
                0x0000000083f41b70       0x54 board/Realtek/rtl9300/librtl9300.o
                0x0000000083f41b70                phy_common_enable_get
 .text.phy_common_speedDuplexStatusResReg_get
                0x0000000083f41bc4       0xc4 board/Realtek/rtl9300/librtl9300.o
                0x0000000083f41bc4                phy_common_speedDuplexStatusResReg_get
 .text.phy_common_speedStatusResReg_get
                0x0000000083f41c88       0x1c board/Realtek/rtl9300/librtl9300.o
                0x0000000083f41c88                phy_common_speedStatusResReg_get
 .text.phy_common_reg_get
                0x0000000083f41ca4        0x8 board/Realtek/rtl9300/librtl9300.o
                0x0000000083f41ca4                phy_common_reg_get
 .text.phy_common_reg_set
                0x0000000083f41cac        0x8 board/Realtek/rtl9300/librtl9300.o
                0x0000000083f41cac                phy_common_reg_set
 .text.phy_common_reg_park_get
                0x0000000083f41cb4        0x8 board/Realtek/rtl9300/librtl9300.o
                0x0000000083f41cb4                phy_common_reg_park_get
 .text.phy_common_reg_park_set
                0x0000000083f41cbc        0x8 board/Realtek/rtl9300/librtl9300.o
                0x0000000083f41cbc                phy_common_reg_park_set
 .text.phy_common_reg_mmd_get
                0x0000000083f41cc4        0x8 board/Realtek/rtl9300/librtl9300.o
                0x0000000083f41cc4                phy_common_reg_mmd_get
 .text.phy_common_reg_mmd_set
                0x0000000083f41ccc        0x8 board/Realtek/rtl9300/librtl9300.o
                0x0000000083f41ccc                phy_common_reg_mmd_set
 .text.phy_common_reg_mmd_portmask_set
                0x0000000083f41cd4       0x10 board/Realtek/rtl9300/librtl9300.o
                0x0000000083f41cd4                phy_common_reg_mmd_portmask_set
 .text.phy_common_reg_extParkPage_get
                0x0000000083f41ce4        0x8 board/Realtek/rtl9300/librtl9300.o
                0x0000000083f41ce4                phy_common_reg_extParkPage_get
 .text.phy_common_reg_extParkPage_set
                0x0000000083f41cec        0x8 board/Realtek/rtl9300/librtl9300.o
                0x0000000083f41cec                phy_common_reg_extParkPage_set
 .text.phy_common_reg_extParkPage_portmask_set
                0x0000000083f41cf4       0x10 board/Realtek/rtl9300/librtl9300.o
                0x0000000083f41cf4                phy_common_reg_extParkPage_portmask_set
 .text.phy_common_loopback_get
                0x0000000083f41d04       0x50 board/Realtek/rtl9300/librtl9300.o
                0x0000000083f41d04                phy_common_loopback_get
 .text.phy_common_loopback_set
                0x0000000083f41d54       0x90 board/Realtek/rtl9300/librtl9300.o
                0x0000000083f41d54                phy_common_loopback_set
 .text.phy_common_reset_set
                0x0000000083f41de4       0x6c board/Realtek/rtl9300/librtl9300.o
                0x0000000083f41de4                phy_common_reset_set
 .text.phy_common_linkStatus_get
                0x0000000083f41e50       0x44 board/Realtek/rtl9300/librtl9300.o
                0x0000000083f41e50                phy_common_linkStatus_get
 .text.phy_common_fiberPeerAutoNegoAbility_get
                0x0000000083f41e94       0xd8 board/Realtek/rtl9300/librtl9300.o
                0x0000000083f41e94                phy_common_fiberPeerAutoNegoAbility_get
 .text.phy_common_eyeMonPixel_get
                0x0000000083f41f6c       0x28 board/Realtek/rtl9300/librtl9300.o
                0x0000000083f41f6c                phy_common_eyeMonPixel_get
 .text.phy_common_eyeMonInfo_update
                0x0000000083f41f94       0x90 board/Realtek/rtl9300/librtl9300.o
                0x0000000083f41f94                phy_common_eyeMonInfo_update
 .text.phy_common_general_reg_mmd_get
                0x0000000083f42024        0x8 board/Realtek/rtl9300/librtl9300.o
                0x0000000083f42024                phy_common_general_reg_mmd_get
 .text.phy_common_general_reg_mmd_set
                0x0000000083f4202c        0x8 board/Realtek/rtl9300/librtl9300.o
                0x0000000083f4202c                phy_common_general_reg_mmd_set
 .text.phy_common_c45_autoNegoEnable_get
                0x0000000083f42034       0x48 board/Realtek/rtl9300/librtl9300.o
                0x0000000083f42034                phy_common_c45_autoNegoEnable_get
 .text.phy_common_c45_autoNegoEnable_set
                0x0000000083f4207c       0x8c board/Realtek/rtl9300/librtl9300.o
                0x0000000083f4207c                phy_common_c45_autoNegoEnable_set
 .text.phy_common_c45_autoNegoAbility_get
                0x0000000083f42108       0xd8 board/Realtek/rtl9300/librtl9300.o
                0x0000000083f42108                phy_common_c45_autoNegoAbility_get
 .text.phy_common_c45_copperPeerAutoNegoAbility_get
                0x0000000083f421e0       0xd8 board/Realtek/rtl9300/librtl9300.o
                0x0000000083f421e0                phy_common_c45_copperPeerAutoNegoAbility_get
 .text.phy_common_c45_masterSlave_get
                0x0000000083f422b8       0xbc board/Realtek/rtl9300/librtl9300.o
                0x0000000083f422b8                phy_common_c45_masterSlave_get
 .text.phy_common_c45_masterSlave_set
                0x0000000083f42374      0x120 board/Realtek/rtl9300/librtl9300.o
                0x0000000083f42374                phy_common_c45_masterSlave_set
 .text.phy_common_c45_speed_get
                0x0000000083f42494       0xa4 board/Realtek/rtl9300/librtl9300.o
                0x0000000083f42494                phy_common_c45_speed_get
 .text.phy_common_c45_speed_set
                0x0000000083f42538       0xd8 board/Realtek/rtl9300/librtl9300.o
                0x0000000083f42538                phy_common_c45_speed_set
 .text.phy_common_c45_enable_set
                0x0000000083f42610       0x8c board/Realtek/rtl9300/librtl9300.o
                0x0000000083f42610                phy_common_c45_enable_set
 .text.phy_common_c45_enable_get
                0x0000000083f4269c       0x4c board/Realtek/rtl9300/librtl9300.o
                0x0000000083f4269c                phy_common_c45_enable_get
 .text.phy_common_c45_loopback_get
                0x0000000083f426e8       0x48 board/Realtek/rtl9300/librtl9300.o
                0x0000000083f426e8                phy_common_c45_loopback_get
 .text.phy_common_c45_loopback_set
                0x0000000083f42730       0x90 board/Realtek/rtl9300/librtl9300.o
                0x0000000083f42730                phy_common_c45_loopback_set
 .text.phy_common_c45_reset_set
                0x0000000083f427c0       0x70 board/Realtek/rtl9300/librtl9300.o
                0x0000000083f427c0                phy_common_c45_reset_set
 .text.phy_common_c45_speedDuplexStatusResReg_get
                0x0000000083f42830       0xdc board/Realtek/rtl9300/librtl9300.o
                0x0000000083f42830                phy_common_c45_speedDuplexStatusResReg_get
 .text.phy_common_c45_speedStatusResReg_get
                0x0000000083f4290c       0x20 board/Realtek/rtl9300/librtl9300.o
                0x0000000083f4290c                phy_common_c45_speedStatusResReg_get
 .text.phy_common_c45_an_restart
                0x0000000083f4292c       0x78 board/Realtek/rtl9300/librtl9300.o
                0x0000000083f4292c                phy_common_c45_an_restart
 .text.phy_8214c_eeeEnable_get
                0x0000000083f429a4       0x50 board/Realtek/rtl9300/librtl9300.o
                0x0000000083f429a4                phy_8214c_eeeEnable_get
 .text.phy_8214c_greenEnable_set
                0x0000000083f429f4      0x174 board/Realtek/rtl9300/librtl9300.o
                0x0000000083f429f4                phy_8214c_greenEnable_set
 .text.phy_8214c_enable_set
                0x0000000083f42b68       0x8c board/Realtek/rtl9300/librtl9300.o
                0x0000000083f42b68                phy_8214c_enable_set
 .text.phy_8214c_eeeEnable_set
                0x0000000083f42bf4      0x19c board/Realtek/rtl9300/librtl9300.o
                0x0000000083f42bf4                phy_8214c_eeeEnable_set
 .text.phy_8214c_greenEnable_get
                0x0000000083f42d90       0x8c board/Realtek/rtl9300/librtl9300.o
                0x0000000083f42d90                phy_8214c_greenEnable_get
 .text.phy_8214c_init
                0x0000000083f42e1c      0x230 board/Realtek/rtl9300/librtl9300.o
                0x0000000083f42e1c                phy_8214c_init
 .text.phy_8214Cdrv_ge_mapperInit
                0x0000000083f4304c       0x60 board/Realtek/rtl9300/librtl9300.o
                0x0000000083f4304c                phy_8214Cdrv_ge_mapperInit
 .text._phy_8214c_ieeeTestModeAllPhyPort_disable
                0x0000000083f430ac       0x68 board/Realtek/rtl9300/librtl9300.o
                0x0000000083f430ac                _phy_8214c_ieeeTestModeAllPhyPort_disable
 .text.phy_8214c_ieeeTestMode_set
                0x0000000083f43114      0x300 board/Realtek/rtl9300/librtl9300.o
                0x0000000083f43114                phy_8214c_ieeeTestMode_set
 .text.phy_8224_media_get
                0x0000000083f43414        0xc board/Realtek/rtl9300/librtl9300.o
                0x0000000083f43414                phy_8224_media_get
 .text.phy_8224_linkStatus_get
                0x0000000083f43420       0x48 board/Realtek/rtl9300/librtl9300.o
                0x0000000083f43420                phy_8224_linkStatus_get
 .text.phy_8224_duplex_get
                0x0000000083f43468       0x48 board/Realtek/rtl9300/librtl9300.o
                0x0000000083f43468                phy_8224_duplex_get
 .text.phy_8224_eeeEnable_get
                0x0000000083f434b0       0xa4 board/Realtek/rtl9300/librtl9300.o
                0x0000000083f434b0                phy_8224_eeeEnable_get
 .text.phy_8224_eeepEnable_get
                0x0000000083f43554       0x48 board/Realtek/rtl9300/librtl9300.o
                0x0000000083f43554                phy_8224_eeepEnable_get
 .text.phy_8224_crossOverMode_get
                0x0000000083f4359c       0x60 board/Realtek/rtl9300/librtl9300.o
                0x0000000083f4359c                phy_8224_crossOverMode_get
 .text.phy_8224_crossOverStatus_get
                0x0000000083f435fc       0x58 board/Realtek/rtl9300/librtl9300.o
                0x0000000083f435fc                phy_8224_crossOverStatus_get
 .text.phy_8224_liteEnable_get
                0x0000000083f43654       0x80 board/Realtek/rtl9300/librtl9300.o
                0x0000000083f43654                phy_8224_liteEnable_get
 .text.phy_8224_macIntfSerdesMode_get
                0x0000000083f436d4       0xd4 board/Realtek/rtl9300/librtl9300.o
                0x0000000083f436d4                phy_8224_macIntfSerdesMode_get
 .text.phy_8224_linkDownPowerSavingEnable_get
                0x0000000083f437a8       0x48 board/Realtek/rtl9300/librtl9300.o
                0x0000000083f437a8                phy_8224_linkDownPowerSavingEnable_get
 .text.phy_8224_downSpeedEnable_get
                0x0000000083f437f0       0x48 board/Realtek/rtl9300/librtl9300.o
                0x0000000083f437f0                phy_8224_downSpeedEnable_get
 .text.phy_8224_downSpeedStatus_get
                0x0000000083f43838       0x48 board/Realtek/rtl9300/librtl9300.o
                0x0000000083f43838                phy_8224_downSpeedStatus_get
 .text.phy_8224_mdiLoopbackEnable_get
                0x0000000083f43880       0x48 board/Realtek/rtl9300/librtl9300.o
                0x0000000083f43880                phy_8224_mdiLoopbackEnable_get
 .text.phy_8224_duplex_set
                0x0000000083f438c8       0x90 board/Realtek/rtl9300/librtl9300.o
                0x0000000083f438c8                phy_8224_duplex_set
 .text.phy_8224_crossOverMode_set
                0x0000000083f43958       0xb4 board/Realtek/rtl9300/librtl9300.o
                0x0000000083f43958                phy_8224_crossOverMode_set
 .text.phy_8224_c45_ieeeTestMode_set
                0x0000000083f43a0c      0x150 board/Realtek/rtl9300/librtl9300.o
                0x0000000083f43a0c                phy_8224_c45_ieeeTestMode_set
 .text.phy_8224_linkDownPowerSavingEnable_set
                0x0000000083f43b5c       0x88 board/Realtek/rtl9300/librtl9300.o
                0x0000000083f43b5c                phy_8224_linkDownPowerSavingEnable_set
 .text.phy_8224_downSpeedEnable_set
                0x0000000083f43be4       0x88 board/Realtek/rtl9300/librtl9300.o
                0x0000000083f43be4                phy_8224_downSpeedEnable_set
 .text.phy_8224_mdiLoopbackEnable_set
                0x0000000083f43c6c       0x88 board/Realtek/rtl9300/librtl9300.o
                0x0000000083f43c6c                phy_8224_mdiLoopbackEnable_set
 .text.phy_8224_macIntfSerdesLinkStatus_get
                0x0000000083f43cf4       0x68 board/Realtek/rtl9300/librtl9300.o
                0x0000000083f43cf4                phy_8224_macIntfSerdesLinkStatus_get
 .text.phy_8224_sdsReg_get
                0x0000000083f43d5c       0x24 board/Realtek/rtl9300/librtl9300.o
                0x0000000083f43d5c                phy_8224_sdsReg_get
 .text.phy_8224_sdsReg_set
                0x0000000083f43d80       0x24 board/Realtek/rtl9300/librtl9300.o
                0x0000000083f43d80                phy_8224_sdsReg_set
 .text.phy_8224_autoNegoAbility_get
                0x0000000083f43da4       0x7c board/Realtek/rtl9300/librtl9300.o
                0x0000000083f43da4                phy_8224_autoNegoAbility_get
 .text.phy_8224_autoNegoAbility_set
                0x0000000083f43e20      0x1e4 board/Realtek/rtl9300/librtl9300.o
                0x0000000083f43e20                phy_8224_autoNegoAbility_set
 .text.phy_8224_autoNegoAbilityPeer_get
                0x0000000083f44004       0x7c board/Realtek/rtl9300/librtl9300.o
                0x0000000083f44004                phy_8224_autoNegoAbilityPeer_get
 .text.phy_8224_autoNegoAbilityLocal_get
                0x0000000083f44080       0x60 board/Realtek/rtl9300/librtl9300.o
                0x0000000083f44080                phy_8224_autoNegoAbilityLocal_get
 .text.phy_8224_rtct_start
                0x0000000083f440e0      0x248 board/Realtek/rtl9300/librtl9300.o
                0x0000000083f440e0                phy_8224_rtct_start
 .text._phy_8224_sram_get
                0x0000000083f44328       0x68 board/Realtek/rtl9300/librtl9300.o
 .text._phy_8224_mask
                0x0000000083f44390       0x38 board/Realtek/rtl9300/librtl9300.o
                0x0000000083f44390                _phy_8224_mask
 .text._phy_8224_mask_get
                0x0000000083f443c8       0x5c board/Realtek/rtl9300/librtl9300.o
                0x0000000083f443c8                _phy_8224_mask_get
 .text._phy_8224_intReg_set
                0x0000000083f44424      0x178 board/Realtek/rtl9300/librtl9300.o
 .text._phy_8224_intRegBit_set
                0x0000000083f4459c       0x38 board/Realtek/rtl9300/librtl9300.o
 .text.phy_8224_intrEnable_set
                0x0000000083f445d4      0x170 board/Realtek/rtl9300/librtl9300.o
                0x0000000083f445d4                phy_8224_intrEnable_set
 .text._phy_8224_intReg_get
                0x0000000083f44744      0x110 board/Realtek/rtl9300/librtl9300.o
 .text._phy_8224_intRegBit_get
                0x0000000083f44854       0x38 board/Realtek/rtl9300/librtl9300.o
 .text.phy_8224_intrEnable_get
                0x0000000083f4488c      0x190 board/Realtek/rtl9300/librtl9300.o
                0x0000000083f4488c                phy_8224_intrEnable_get
 .text._phy_8224_sdsRegField_set
                0x0000000083f44a1c      0x108 board/Realtek/rtl9300/librtl9300.o
 .text.phy_8224_sdsEyeParam_set
                0x0000000083f44b24      0x190 board/Realtek/rtl9300/librtl9300.o
                0x0000000083f44b24                phy_8224_sdsEyeParam_set
 .text._phy_8224_sdsRegField_get
                0x0000000083f44cb4       0xa8 board/Realtek/rtl9300/librtl9300.o
 .text.phy_8224_sdsEyeParam_get
                0x0000000083f44d5c      0x18c board/Realtek/rtl9300/librtl9300.o
                0x0000000083f44d5c                phy_8224_sdsEyeParam_get
 .text._phy_8224_interrupt_init
                0x0000000083f44ee8      0x264 board/Realtek/rtl9300/librtl9300.o
                0x0000000083f44ee8                _phy_8224_interrupt_init
 .text._phy_8224_gphyNormal_Intr_status_get
                0x0000000083f4514c       0xf4 board/Realtek/rtl9300/librtl9300.o
                0x0000000083f4514c                _phy_8224_gphyNormal_Intr_status_get
 .text.phy_8224_intrStatus_get
                0x0000000083f45240      0x28c board/Realtek/rtl9300/librtl9300.o
                0x0000000083f45240                phy_8224_intrStatus_get
 .text._phy_8224_an_restart
                0x0000000083f454cc       0x78 board/Realtek/rtl9300/librtl9300.o
                0x0000000083f454cc                _phy_8224_an_restart
 .text.phy_8224_eeeEnable_set
                0x0000000083f45544      0x1d0 board/Realtek/rtl9300/librtl9300.o
                0x0000000083f45544                phy_8224_eeeEnable_set
 .text.phy_8224_eeepEnable_set
                0x0000000083f45714       0xa4 board/Realtek/rtl9300/librtl9300.o
                0x0000000083f45714                phy_8224_eeepEnable_set
 .text.phy_8224_liteEnable_set
                0x0000000083f457b8      0x14c board/Realtek/rtl9300/librtl9300.o
                0x0000000083f457b8                phy_8224_liteEnable_set
 .text._phy_8224_led_mode_set
                0x0000000083f45904      0x28c board/Realtek/rtl9300/librtl9300.o
                0x0000000083f45904                _phy_8224_led_mode_set
 .text._phy_8224_led_mode_get
                0x0000000083f45b90      0x16c board/Realtek/rtl9300/librtl9300.o
                0x0000000083f45b90                _phy_8224_led_mode_get
 .text._phy_8224_led_config_blink_rate_set
                0x0000000083f45cfc       0x8c board/Realtek/rtl9300/librtl9300.o
                0x0000000083f45cfc                _phy_8224_led_config_blink_rate_set
 .text._phy_8224_led_config_blink_rate_get
                0x0000000083f45d88       0xb0 board/Realtek/rtl9300/librtl9300.o
                0x0000000083f45d88                _phy_8224_led_config_blink_rate_get
 .text._phy_8224_led_config_active_low_set
                0x0000000083f45e38       0xbc board/Realtek/rtl9300/librtl9300.o
                0x0000000083f45e38                _phy_8224_led_config_active_low_set
 .text._phy_8224_led_config_active_low_get
                0x0000000083f45ef4       0xcc board/Realtek/rtl9300/librtl9300.o
                0x0000000083f45ef4                _phy_8224_led_config_active_low_get
 .text._phy_8224_led_config_force_set
                0x0000000083f45fc0      0x1ac board/Realtek/rtl9300/librtl9300.o
                0x0000000083f45fc0                _phy_8224_led_config_force_set
 .text._phy_8224_led_config_force_get
                0x0000000083f4616c      0x150 board/Realtek/rtl9300/librtl9300.o
                0x0000000083f4616c                _phy_8224_led_config_force_get
 .text._phy_8224_temperature_threshold_set
                0x0000000083f462bc       0xe8 board/Realtek/rtl9300/librtl9300.o
                0x0000000083f462bc                _phy_8224_temperature_threshold_set
 .text._phy_8224_temperature_threshold_get
                0x0000000083f463a4      0x104 board/Realtek/rtl9300/librtl9300.o
                0x0000000083f463a4                _phy_8224_temperature_threshold_get
 .text._phy_8224_dbgCount_init
                0x0000000083f464a8       0xa8 board/Realtek/rtl9300/librtl9300.o
                0x0000000083f464a8                _phy_8224_dbgCount_init
 .text.phy_8224_init
                0x0000000083f46550       0x70 board/Realtek/rtl9300/librtl9300.o
                0x0000000083f46550                phy_8224_init
 .text.phy_8224_sdsAllAm_set
                0x0000000083f465c0      0x1f4 board/Realtek/rtl9300/librtl9300.o
                0x0000000083f465c0                phy_8224_sdsAllAm_set
 .text.phy_8224_sdsExtra_set
                0x0000000083f467b4       0x98 board/Realtek/rtl9300/librtl9300.o
                0x0000000083f467b4                phy_8224_sdsExtra_set
 .text.phy_8224_portPatch_backup
                0x0000000083f4684c      0x158 board/Realtek/rtl9300/librtl9300.o
                0x0000000083f4684c                phy_8224_portPatch_backup
 .text.phy_8224_portPatch_restore
                0x0000000083f469a4      0x178 board/Realtek/rtl9300/librtl9300.o
                0x0000000083f469a4                phy_8224_portPatch_restore
 .text._phy_8224_eyeMon_scan_en
                0x0000000083f46b1c      0x104 board/Realtek/rtl9300/librtl9300.o
                0x0000000083f46b1c                _phy_8224_eyeMon_scan_en
 .text._phy_8224_eyeMon_pi_set
                0x0000000083f46c20       0x34 board/Realtek/rtl9300/librtl9300.o
                0x0000000083f46c20                _phy_8224_eyeMon_pi_set
 .text._phy_8224_eyeMon_ref_set
                0x0000000083f46c54       0x30 board/Realtek/rtl9300/librtl9300.o
                0x0000000083f46c54                _phy_8224_eyeMon_ref_set
 .text._phy_8224_eyeMon_MDIOCLK
                0x0000000083f46c84      0x13c board/Realtek/rtl9300/librtl9300.o
                0x0000000083f46c84                _phy_8224_eyeMon_MDIOCLK
 .text._phy_8224_eyeMon_DBGOUT
                0x0000000083f46dc0      0x2d4 board/Realtek/rtl9300/librtl9300.o
                0x0000000083f46dc0                _phy_8224_eyeMon_DBGOUT
 .text._phy_8224_eyeMon_readOut
                0x0000000083f47094       0x60 board/Realtek/rtl9300/librtl9300.o
                0x0000000083f47094                _phy_8224_eyeMon_readOut
 .text._phy_8224_eyeMon_proc
                0x0000000083f470f4      0x16c board/Realtek/rtl9300/librtl9300.o
                0x0000000083f470f4                _phy_8224_eyeMon_proc
 .text.phy_8224_eyeMonitor_start
                0x0000000083f47260      0x138 board/Realtek/rtl9300/librtl9300.o
                0x0000000083f47260                phy_8224_eyeMonitor_start
 .text.phy_8224_eyeMonitorInfo_get
                0x0000000083f47398      0x1e8 board/Realtek/rtl9300/librtl9300.o
                0x0000000083f47398                phy_8224_eyeMonitorInfo_get
 .text.phy_8224_chipVer_get
                0x0000000083f47580       0xc0 board/Realtek/rtl9300/librtl9300.o
                0x0000000083f47580                phy_8224_chipVer_get
 .text.phy_8224_sdsOpCode_set
                0x0000000083f47640       0x4c board/Realtek/rtl9300/librtl9300.o
                0x0000000083f47640                phy_8224_sdsOpCode_set
 .text.phy_8224_sdsAmPeriod_set
                0x0000000083f4768c       0x4c board/Realtek/rtl9300/librtl9300.o
                0x0000000083f4768c                phy_8224_sdsAmPeriod_set
 .text.phy_8224_ctrl_set
                0x0000000083f476d8      0x98c board/Realtek/rtl9300/librtl9300.o
                0x0000000083f476d8                phy_8224_ctrl_set
 .text.phy_8224_sdsAmPeriod_get
                0x0000000083f48064       0x4c board/Realtek/rtl9300/librtl9300.o
                0x0000000083f48064                phy_8224_sdsAmPeriod_get
 .text.phy_8224_ctrl_get
                0x0000000083f480b0      0x60c board/Realtek/rtl9300/librtl9300.o
                0x0000000083f480b0                phy_8224_ctrl_get
 .text._phy_8224_rtctChannelLen_get
                0x0000000083f486bc      0x134 board/Realtek/rtl9300/librtl9300.o
                0x0000000083f486bc                _phy_8224_rtctChannelLen_get
 .text._phy_8224_rtctStatus_convert
                0x0000000083f487f0       0x78 board/Realtek/rtl9300/librtl9300.o
                0x0000000083f487f0                _phy_8224_rtctStatus_convert
 .text.phy_8224_rtctResult_get
                0x0000000083f48868      0x420 board/Realtek/rtl9300/librtl9300.o
                0x0000000083f48868                phy_8224_rtctResult_get
 .text._phy_8224_dbgCounterReg_get
                0x0000000083f48c88      0x140 board/Realtek/rtl9300/librtl9300.o
                0x0000000083f48c88                _phy_8224_dbgCounterReg_get
 .text.phy_8224_dbgCounter_get
                0x0000000083f48dc8       0xc4 board/Realtek/rtl9300/librtl9300.o
                0x0000000083f48dc8                phy_8224_dbgCounter_get
 .text.phy_8224drv_mapperInit
                0x0000000083f48e8c      0x2b8 board/Realtek/rtl9300/librtl9300.o
                0x0000000083f48e8c                phy_8224drv_mapperInit
 .text._phy_rtl8224_patch_mask
                0x0000000083f49144       0x34 board/Realtek/rtl9300/librtl9300.o
                0x0000000083f49144                _phy_rtl8224_patch_mask
 .text._phy_rtl8224_patch_mask_get
                0x0000000083f49178       0x5c board/Realtek/rtl9300/librtl9300.o
                0x0000000083f49178                _phy_rtl8224_patch_mask_get
 .text._phy_rtl8224_patch_wait
                0x0000000083f491d4      0x514 board/Realtek/rtl9300/librtl9300.o
                0x0000000083f491d4                _phy_rtl8224_patch_wait
 .text._phy_rtl8224_patch_wait_not_equal
                0x0000000083f496e8      0x514 board/Realtek/rtl9300/librtl9300.o
                0x0000000083f496e8                _phy_rtl8224_patch_wait_not_equal
 .text._phy_rtl8224_patch_top_get
                0x0000000083f49bfc       0x38 board/Realtek/rtl9300/librtl9300.o
                0x0000000083f49bfc                _phy_rtl8224_patch_top_get
 .text._phy_rtl8224_patch_top_set
                0x0000000083f49c34        0xc board/Realtek/rtl9300/librtl9300.o
                0x0000000083f49c34                _phy_rtl8224_patch_top_set
 .text._phy_rtl8224_patch_sds_get
                0x0000000083f49c40       0xac board/Realtek/rtl9300/librtl9300.o
                0x0000000083f49c40                _phy_rtl8224_patch_sds_get
 .text._phy_rtl8224_patch_sds_set
                0x0000000083f49cec       0xc0 board/Realtek/rtl9300/librtl9300.o
                0x0000000083f49cec                _phy_rtl8224_patch_sds_set
 .text.phy_rtl8224_patch_process_op
                0x0000000083f49dac      0x2c0 board/Realtek/rtl9300/librtl9300.o
                0x0000000083f49dac                phy_rtl8224_patch_process_op
 .text.phy_rtl8224_patch_op
                0x0000000083f4a06c       0x5c board/Realtek/rtl9300/librtl9300.o
                0x0000000083f4a06c                phy_rtl8224_patch_op
 .text._phy_rtl8224_patch_process
                0x0000000083f4a0c8       0xe8 board/Realtek/rtl9300/librtl9300.o
                0x0000000083f4a0c8                _phy_rtl8224_patch_process
 .text._phy_rtl8224_patch_assign
                0x0000000083f4a1b0      0x148 board/Realtek/rtl9300/librtl9300.o
                0x0000000083f4a1b0                _phy_rtl8224_patch_assign
 .text._phy_rtl8224_patch_version_assign
                0x0000000083f4a2f8       0x58 board/Realtek/rtl9300/librtl9300.o
                0x0000000083f4a2f8                _phy_rtl8224_patch_version_assign
 .text._phy_rtl8224_patch
                0x0000000083f4a350      0x468 board/Realtek/rtl9300/librtl9300.o
                0x0000000083f4a350                _phy_rtl8224_patch
 .text.phy_rtl8224_sdsReg_get
                0x0000000083f4a7b8       0x24 board/Realtek/rtl9300/librtl9300.o
                0x0000000083f4a7b8                phy_rtl8224_sdsReg_get
 .text.phy_rtl8224_sdsReg_set
                0x0000000083f4a7dc       0x24 board/Realtek/rtl9300/librtl9300.o
                0x0000000083f4a7dc                phy_rtl8224_sdsReg_set
 .text.phy_rtl8224_patch
                0x0000000083f4a800      0x164 board/Realtek/rtl9300/librtl9300.o
                0x0000000083f4a800                phy_rtl8224_patch
 .text.phy_8214qf_media_get
                0x0000000083f4a964       0x10 board/Realtek/rtl9300/librtl9300.o
                0x0000000083f4a964                phy_8214qf_media_get
 .text.phy_8214qf_autoNegoEnable_get
                0x0000000083f4a974        0x8 board/Realtek/rtl9300/librtl9300.o
                0x0000000083f4a974                phy_8214qf_autoNegoEnable_get
 .text.phy_8214qf_autoNegoEnable_set
                0x0000000083f4a97c        0x8 board/Realtek/rtl9300/librtl9300.o
                0x0000000083f4a97c                phy_8214qf_autoNegoEnable_set
 .text.phy_8214qf_autoNegoAbility_set
                0x0000000083f4a984      0x134 board/Realtek/rtl9300/librtl9300.o
                0x0000000083f4a984                phy_8214qf_autoNegoAbility_set
 .text.phy_8214qf_duplex_get
                0x0000000083f4aab8        0x8 board/Realtek/rtl9300/librtl9300.o
                0x0000000083f4aab8                phy_8214qf_duplex_get
 .text.phy_8214qf_duplex_set
                0x0000000083f4aac0        0x8 board/Realtek/rtl9300/librtl9300.o
                0x0000000083f4aac0                phy_8214qf_duplex_set
 .text.phy_8214qf_speedDuplexStatus_get
                0x0000000083f4aac8       0x6c board/Realtek/rtl9300/librtl9300.o
                0x0000000083f4aac8                phy_8214qf_speedDuplexStatus_get
 .text._phy_8295_regSdsModeToRtSdsMode
                0x0000000083f4ab34       0x9c board/Realtek/rtl9300/librtl9300.o
                0x0000000083f4ab34                _phy_8295_regSdsModeToRtSdsMode
 .text.phy_8295_mdxMacId_get
                0x0000000083f4abd0       0xf4 board/Realtek/rtl9300/librtl9300.o
                0x0000000083f4abd0                phy_8295_mdxMacId_get
 .text._phy_8295_portMacSmiProto_get
                0x0000000083f4acc4       0x3c board/Realtek/rtl9300/librtl9300.o
                0x0000000083f4acc4                _phy_8295_portMacSmiProto_get
 .text.phy_8295_phyReg_read.part.0
                0x0000000083f4ad00       0xfc board/Realtek/rtl9300/librtl9300.o
 .text.phy_8295_8214_chipRevId_get
                0x0000000083f4adfc       0xd4 board/Realtek/rtl9300/librtl9300.o
                0x0000000083f4adfc                phy_8295_8214_chipRevId_get
 .text.phy_8295_phyReg_write.part.1
                0x0000000083f4aed0       0xfc board/Realtek/rtl9300/librtl9300.o
 .text.phy_8295_phyReg_read
                0x0000000083f4afcc       0x1c board/Realtek/rtl9300/librtl9300.o
                0x0000000083f4afcc                phy_8295_phyReg_read
 .text.phy_8295_phyReg_write
                0x0000000083f4afe8       0x1c board/Realtek/rtl9300/librtl9300.o
                0x0000000083f4afe8                phy_8295_phyReg_write
 .text.phy_8295_sdsReg_read
                0x0000000083f4b004       0x50 board/Realtek/rtl9300/librtl9300.o
                0x0000000083f4b004                phy_8295_sdsReg_read
 .text.phy_8214qf_sdsEyeParam_get
                0x0000000083f4b054      0x200 board/Realtek/rtl9300/librtl9300.o
                0x0000000083f4b054                phy_8214qf_sdsEyeParam_get
 .text.phy_8295_sdsLeq_get
                0x0000000083f4b254      0x18c board/Realtek/rtl9300/librtl9300.o
                0x0000000083f4b254                phy_8295_sdsLeq_get
 .text.phy_8295_sdsReg_write
                0x0000000083f4b3e0       0x50 board/Realtek/rtl9300/librtl9300.o
                0x0000000083f4b3e0                phy_8295_sdsReg_write
 .text.phy_8214qf_sdsEyeParam_set
                0x0000000083f4b430      0x264 board/Realtek/rtl9300/librtl9300.o
                0x0000000083f4b430                phy_8214qf_sdsEyeParam_set
 .text.phy_8295_sdsLeq_set
                0x0000000083f4b694      0x3e4 board/Realtek/rtl9300/librtl9300.o
                0x0000000083f4b694                phy_8295_sdsLeq_set
 .text._phy_8295_portToSdsId_get
                0x0000000083f4ba78       0xd8 board/Realtek/rtl9300/librtl9300.o
                0x0000000083f4ba78                _phy_8295_portToSdsId_get
 .text.phy_8295_8214_fiberNwayForceLink_get
                0x0000000083f4bb50      0x10c board/Realtek/rtl9300/librtl9300.o
                0x0000000083f4bb50                phy_8295_8214_fiberNwayForceLink_get
 .text.phy_8295_8214_fiberNwayForceLink_set
                0x0000000083f4bc5c      0x168 board/Realtek/rtl9300/librtl9300.o
                0x0000000083f4bc5c                phy_8295_8214_fiberNwayForceLink_set
 .text.phy_8295_8214_fiberTxDis_set
                0x0000000083f4bdc4      0x1d0 board/Realtek/rtl9300/librtl9300.o
                0x0000000083f4bdc4                phy_8295_8214_fiberTxDis_set
 .text.phy_8295_8214_fiberTxDisPin_set
                0x0000000083f4bf94      0x1d8 board/Realtek/rtl9300/librtl9300.o
                0x0000000083f4bf94                phy_8295_8214_fiberTxDisPin_set
 .text.phy_8295_8214_fiberRxEnable_get
                0x0000000083f4c16c      0x110 board/Realtek/rtl9300/librtl9300.o
                0x0000000083f4c16c                phy_8295_8214_fiberRxEnable_get
 .text._phy_8295_rxCaliParam_get
                0x0000000083f4c27c      0x194 board/Realtek/rtl9300/librtl9300.o
                0x0000000083f4c27c                _phy_8295_rxCaliParam_get
 .text._phy_8295_serdesModeRegOffsetMask_get
                0x0000000083f4c410       0xa4 board/Realtek/rtl9300/librtl9300.o
                0x0000000083f4c410                _phy_8295_serdesModeRegOffsetMask_get
 .text._phy_8295_serdesModeReg_get
                0x0000000083f4c4b4       0xcc board/Realtek/rtl9300/librtl9300.o
                0x0000000083f4c4b4                _phy_8295_serdesModeReg_get
 .text.phy_8214qf_macIntfSerdesMode_get
                0x0000000083f4c580       0xd0 board/Realtek/rtl9300/librtl9300.o
                0x0000000083f4c580                phy_8214qf_macIntfSerdesMode_get
 .text.phy_8214qf_macIntfSerdesLinkStatus_get
                0x0000000083f4c650      0x224 board/Realtek/rtl9300/librtl9300.o
                0x0000000083f4c650                phy_8214qf_macIntfSerdesLinkStatus_get
 .text._phy_8295_serdesModeReg_set
                0x0000000083f4c874      0x120 board/Realtek/rtl9300/librtl9300.o
                0x0000000083f4c874                _phy_8295_serdesModeReg_set
 .text._phy_8295_portSdsMode_set
                0x0000000083f4c994       0xbc board/Realtek/rtl9300/librtl9300.o
                0x0000000083f4c994                _phy_8295_portSdsMode_set
 .text._phy_std_1000BaseXAnAdvertise_reg_to_struct
                0x0000000083f4ca50       0x3c board/Realtek/rtl9300/librtl9300.o
                0x0000000083f4ca50                _phy_std_1000BaseXAnAdvertise_reg_to_struct
 .text.phy_8214qf_autoNegoAbility_get
                0x0000000083f4ca8c       0x80 board/Realtek/rtl9300/librtl9300.o
                0x0000000083f4ca8c                phy_8214qf_autoNegoAbility_get
 .text._phy_std_speedSel_strcut_to_reg
                0x0000000083f4cb0c       0x2c board/Realtek/rtl9300/librtl9300.o
                0x0000000083f4cb0c                _phy_std_speedSel_strcut_to_reg
 .text.phy_8214qf_speed_set
                0x0000000083f4cb38       0xb0 board/Realtek/rtl9300/librtl9300.o
                0x0000000083f4cb38                phy_8214qf_speed_set
 .text._phy_std_speedSel_reg_to_strcut
                0x0000000083f4cbe8       0x14 board/Realtek/rtl9300/librtl9300.o
                0x0000000083f4cbe8                _phy_std_speedSel_reg_to_strcut
 .text.phy_8214qf_speed_get
                0x0000000083f4cbfc       0x80 board/Realtek/rtl9300/librtl9300.o
                0x0000000083f4cbfc                phy_8214qf_speed_get
 .text.phy_8295_8214_fiberRxEnable_set
                0x0000000083f4cc7c      0x3e0 board/Realtek/rtl9300/librtl9300.o
                0x0000000083f4cc7c                phy_8295_8214_fiberRxEnable_set
 .text.phy_8214qf_fiberRxEnable_set
                0x0000000083f4d05c      0x34c board/Realtek/rtl9300/librtl9300.o
                0x0000000083f4d05c                phy_8214qf_fiberRxEnable_set
 .text._phy_8295_8214_polar_get
                0x0000000083f4d3a8      0x174 board/Realtek/rtl9300/librtl9300.o
                0x0000000083f4d3a8                _phy_8295_8214_polar_get
 .text.phy_8214qf_polar_get
                0x0000000083f4d51c        0x8 board/Realtek/rtl9300/librtl9300.o
                0x0000000083f4d51c                phy_8214qf_polar_get
 .text.phy_8295_8214_polar_set
                0x0000000083f4d524      0x230 board/Realtek/rtl9300/librtl9300.o
                0x0000000083f4d524                phy_8295_8214_polar_set
 .text.phy_8214qf_polar_set
                0x0000000083f4d754        0x8 board/Realtek/rtl9300/librtl9300.o
                0x0000000083f4d754                phy_8214qf_polar_set
 .text._phy_8295_serdes01Xge_reset
                0x0000000083f4d75c      0x2b8 board/Realtek/rtl9300/librtl9300.o
                0x0000000083f4d75c                _phy_8295_serdes01Xge_reset
 .text.phy_8214qf_fiberRx_reset
                0x0000000083f4da14      0x394 board/Realtek/rtl9300/librtl9300.o
                0x0000000083f4da14                phy_8214qf_fiberRx_reset
 .text._phy_8214qf_serdes_reset
                0x0000000083f4dda8      0x1a0 board/Realtek/rtl9300/librtl9300.o
                0x0000000083f4dda8                _phy_8214qf_serdes_reset
 .text.phy_8214qf_enable_set
                0x0000000083f4df48      0x2fc board/Realtek/rtl9300/librtl9300.o
                0x0000000083f4df48                phy_8214qf_enable_set
 .text.phy_8214qf_loopback_set
                0x0000000083f4e244       0xcc board/Realtek/rtl9300/librtl9300.o
                0x0000000083f4e244                phy_8214qf_loopback_set
 .text.phy_8214qf_macIntfSerdes_reset
                0x0000000083f4e310      0x1b4 board/Realtek/rtl9300/librtl9300.o
                0x0000000083f4e310                phy_8214qf_macIntfSerdes_reset
 .text._phy_8214qf_rxCali_needed
                0x0000000083f4e4c4       0x5c board/Realtek/rtl9300/librtl9300.o
                0x0000000083f4e4c4                _phy_8214qf_rxCali_needed
 .text._phy_8214qf_rxCali
                0x0000000083f4e520      0x17c board/Realtek/rtl9300/librtl9300.o
                0x0000000083f4e520                _phy_8214qf_rxCali
 .text.phy_8214qf_init
                0x0000000083f4e69c      0x118 board/Realtek/rtl9300/librtl9300.o
                0x0000000083f4e69c                phy_8214qf_init
 .text._phy_8295_eyeMon_sds_read
                0x0000000083f4e7b4        0x8 board/Realtek/rtl9300/librtl9300.o
                0x0000000083f4e7b4                _phy_8295_eyeMon_sds_read
 .text._phy_8295_eyeMon_sds_write
                0x0000000083f4e7bc        0x8 board/Realtek/rtl9300/librtl9300.o
                0x0000000083f4e7bc                _phy_8295_eyeMon_sds_write
 .text._phy_8295_eyeMon_sds_writeBits
                0x0000000083f4e7c4      0x120 board/Realtek/rtl9300/librtl9300.o
                0x0000000083f4e7c4                _phy_8295_eyeMon_sds_writeBits
 .text._phy_8295_eyeMon_pi_set
                0x0000000083f4e8e4      0x11c board/Realtek/rtl9300/librtl9300.o
                0x0000000083f4e8e4                _phy_8295_eyeMon_pi_set
 .text._phy_8295_eyeMon_ref_set
                0x0000000083f4ea00       0x34 board/Realtek/rtl9300/librtl9300.o
                0x0000000083f4ea00                _phy_8295_eyeMon_ref_set
 .text._phy_8295_eyeMon_scan_en
                0x0000000083f4ea34      0x114 board/Realtek/rtl9300/librtl9300.o
                0x0000000083f4ea34                _phy_8295_eyeMon_scan_en
 .text._phy_8295_eyeMon_MDIOCLK
                0x0000000083f4eb48       0xcc board/Realtek/rtl9300/librtl9300.o
                0x0000000083f4eb48                _phy_8295_eyeMon_MDIOCLK
 .text._phy_8295_eyeMon_readOut
                0x0000000083f4ec14       0x34 board/Realtek/rtl9300/librtl9300.o
                0x0000000083f4ec14                _phy_8295_eyeMon_readOut
 .text._phy_8295_eyeMon_eyePointRead
                0x0000000083f4ec48       0xc4 board/Realtek/rtl9300/librtl9300.o
                0x0000000083f4ec48                _phy_8295_eyeMon_eyePointRead
 .text._phy_8295_eyeMon_proc
                0x0000000083f4ed0c      0x134 board/Realtek/rtl9300/librtl9300.o
                0x0000000083f4ed0c                _phy_8295_eyeMon_proc
 .text.phy_8295_eyeMonitor_start
                0x0000000083f4ee40      0x17c board/Realtek/rtl9300/librtl9300.o
                0x0000000083f4ee40                phy_8295_eyeMonitor_start
 .text.phy_8295_eyeMonitorInfo_get
                0x0000000083f4efbc      0x230 board/Realtek/rtl9300/librtl9300.o
                0x0000000083f4efbc                phy_8295_eyeMonitorInfo_get
 .text.phy_8214QFdrv_mapperInit
                0x0000000083f4f1ec      0x1e0 board/Realtek/rtl9300/librtl9300.o
                0x0000000083f4f1ec                phy_8214QFdrv_mapperInit
 .text._phy_8295_patch_a_init_rtl8214qf
                0x0000000083f4f3cc     0x1208 board/Realtek/rtl9300/librtl9300.o
                0x0000000083f4f3cc                _phy_8295_patch_a_init_rtl8214qf
 .text._phy_8295_patch_8214qf_config
                0x0000000083f505d4      0x628 board/Realtek/rtl9300/librtl9300.o
                0x0000000083f505d4                _phy_8295_patch_8214qf_config
 .text._phy_8295_patch_bT_sds_rst
                0x0000000083f50bfc       0x2c board/Realtek/rtl9300/librtl9300.o
                0x0000000083f50bfc                _phy_8295_patch_bT_sds_rst
 .text._phy_8295_patch_bT_init_chip
                0x0000000083f50c28      0xf7c board/Realtek/rtl9300/librtl9300.o
                0x0000000083f50c28                _phy_8295_patch_bT_init_chip
 .text._phy_8295_patch_bT_DBG
                0x0000000083f51ba4      0x1bc board/Realtek/rtl9300/librtl9300.o
                0x0000000083f51ba4                _phy_8295_patch_bT_DBG
 .text._phy_8295_patch_bT_dump_leq
                0x0000000083f51d60      0x26c board/Realtek/rtl9300/librtl9300.o
                0x0000000083f51d60                _phy_8295_patch_bT_dump_leq
 .text._phy_8295_patch_bT_Readtap0
                0x0000000083f51fcc      0x640 board/Realtek/rtl9300/librtl9300.o
                0x0000000083f51fcc                _phy_8295_patch_bT_Readtap0
 .text._phy_8295_patch_bT_Othertap
                0x0000000083f5260c     0x116c board/Realtek/rtl9300/librtl9300.o
                0x0000000083f5260c                _phy_8295_patch_bT_Othertap
 .text._phy_8295_patch_bT_input_tap0
                0x0000000083f53778       0xd8 board/Realtek/rtl9300/librtl9300.o
                0x0000000083f53778                _phy_8295_patch_bT_input_tap0
 .text._phy_8295_patch_bT_input_tap1_even
                0x0000000083f53850       0xdc board/Realtek/rtl9300/librtl9300.o
                0x0000000083f53850                _phy_8295_patch_bT_input_tap1_even
 .text._phy_8295_patch_bT_input_tap1_odd
                0x0000000083f5392c       0xd8 board/Realtek/rtl9300/librtl9300.o
                0x0000000083f5392c                _phy_8295_patch_bT_input_tap1_odd
 .text._phy_8295_patch_bT_input_tap2_even
                0x0000000083f53a04       0xd8 board/Realtek/rtl9300/librtl9300.o
                0x0000000083f53a04                _phy_8295_patch_bT_input_tap2_even
 .text._phy_8295_patch_bT_input_tap2_odd
                0x0000000083f53adc       0xdc board/Realtek/rtl9300/librtl9300.o
                0x0000000083f53adc                _phy_8295_patch_bT_input_tap2_odd
 .text._phy_8295_patch_bT_input_tap3_even
                0x0000000083f53bb8       0xdc board/Realtek/rtl9300/librtl9300.o
                0x0000000083f53bb8                _phy_8295_patch_bT_input_tap3_even
 .text._phy_8295_patch_bT_input_tap3_odd
                0x0000000083f53c94       0xd8 board/Realtek/rtl9300/librtl9300.o
                0x0000000083f53c94                _phy_8295_patch_bT_input_tap3_odd
 .text._phy_8295_patch_bT_input_tap4_even
                0x0000000083f53d6c       0xd8 board/Realtek/rtl9300/librtl9300.o
                0x0000000083f53d6c                _phy_8295_patch_bT_input_tap4_even
 .text._phy_8295_patch_bT_input_tap4_odd
                0x0000000083f53e44       0xdc board/Realtek/rtl9300/librtl9300.o
                0x0000000083f53e44                _phy_8295_patch_bT_input_tap4_odd
 .text._phy_8295_patch_bT_input_DCVS0
                0x0000000083f53f20       0xe0 board/Realtek/rtl9300/librtl9300.o
                0x0000000083f53f20                _phy_8295_patch_bT_input_DCVS0
 .text._phy_8295_patch_bT_input_DCVS1
                0x0000000083f54000       0xe8 board/Realtek/rtl9300/librtl9300.o
                0x0000000083f54000                _phy_8295_patch_bT_input_DCVS1
 .text._phy_8295_patch_bT_input_DCVS2
                0x0000000083f540e8       0xe4 board/Realtek/rtl9300/librtl9300.o
                0x0000000083f540e8                _phy_8295_patch_bT_input_DCVS2
 .text._phy_8295_patch_bT_input_DCVS3
                0x0000000083f541cc       0xe4 board/Realtek/rtl9300/librtl9300.o
                0x0000000083f541cc                _phy_8295_patch_bT_input_DCVS3
 .text._phy_8295_patch_bT_input_DCVS4
                0x0000000083f542b0       0xe4 board/Realtek/rtl9300/librtl9300.o
                0x0000000083f542b0                _phy_8295_patch_bT_input_DCVS4
 .text._phy_8295_patch_bT_input_DCVS5
                0x0000000083f54394       0xe4 board/Realtek/rtl9300/librtl9300.o
                0x0000000083f54394                _phy_8295_patch_bT_input_DCVS5
 .text._phy_8295_patch_bT_start_1d1d1
                0x0000000083f54478      0x288 board/Realtek/rtl9300/librtl9300.o
                0x0000000083f54478                _phy_8295_patch_bT_start_1d1d1
 .text._phy_8295_patch_bT_start_1d2
                0x0000000083f54700      0x27c board/Realtek/rtl9300/librtl9300.o
                0x0000000083f54700                _phy_8295_patch_bT_start_1d2
 .text._phy_8295_patch_bT_start_1d2d3
                0x0000000083f5497c      0x354 board/Realtek/rtl9300/librtl9300.o
                0x0000000083f5497c                _phy_8295_patch_bT_start_1d2d3
 .text._phy_8295_patch_bT_FGCAL_chk
                0x0000000083f54cd0      0x2dc board/Realtek/rtl9300/librtl9300.o
                0x0000000083f54cd0                _phy_8295_patch_bT_FGCAL_chk
 .text._phy_8295_patch_bT_start_1d2d4
                0x0000000083f54fac      0xdec board/Realtek/rtl9300/librtl9300.o
                0x0000000083f54fac                _phy_8295_patch_bT_start_1d2d4
 .text._phy_8295_patch_bT_start_1d3d1
                0x0000000083f55d98      0x68c board/Realtek/rtl9300/librtl9300.o
                0x0000000083f55d98                _phy_8295_patch_bT_start_1d3d1
 .text._phy_8295_patch_bT_start_1d5d2
                0x0000000083f56424      0x2f8 board/Realtek/rtl9300/librtl9300.o
                0x0000000083f56424                _phy_8295_patch_bT_start_1d5d2
 .text._phy_8295_patch_bT_input_vth
                0x0000000083f5671c      0x110 board/Realtek/rtl9300/librtl9300.o
                0x0000000083f5671c                _phy_8295_patch_bT_input_vth
 .text._phy_8295_patch_bT_start_1d4
                0x0000000083f5682c      0x424 board/Realtek/rtl9300/librtl9300.o
                0x0000000083f5682c                _phy_8295_patch_bT_start_1d4
 .text._phy_8295_patch_bT_rx_cal_nodfe
                0x0000000083f56c50      0x2a0 board/Realtek/rtl9300/librtl9300.o
                0x0000000083f56c50                _phy_8295_patch_bT_rx_cal_nodfe
 .text._phy_8295_patch_bT_startall
                0x0000000083f56ef0       0x88 board/Realtek/rtl9300/librtl9300.o
                0x0000000083f56ef0                _phy_8295_patch_bT_startall
 .text._phy_8295_rxCali_a_DBG
                0x0000000083f56f78      0x1b4 board/Realtek/rtl9300/librtl9300.o
                0x0000000083f56f78                _phy_8295_rxCali_a_DBG
 .text._phy_8295_rxCali_a_input_DCVS0
                0x0000000083f5712c       0xc8 board/Realtek/rtl9300/librtl9300.o
                0x0000000083f5712c                _phy_8295_rxCali_a_input_DCVS0
 .text._phy_8295_rxCali_a_input_DCVS1
                0x0000000083f571f4       0xd0 board/Realtek/rtl9300/librtl9300.o
                0x0000000083f571f4                _phy_8295_rxCali_a_input_DCVS1
 .text._phy_8295_rxCali_a_input_DCVS2
                0x0000000083f572c4       0xcc board/Realtek/rtl9300/librtl9300.o
                0x0000000083f572c4                _phy_8295_rxCali_a_input_DCVS2
 .text._phy_8295_rxCali_a_input_DCVS3
                0x0000000083f57390       0xcc board/Realtek/rtl9300/librtl9300.o
                0x0000000083f57390                _phy_8295_rxCali_a_input_DCVS3
 .text._phy_8295_rxCali_a_input_DCVS4
                0x0000000083f5745c       0xcc board/Realtek/rtl9300/librtl9300.o
                0x0000000083f5745c                _phy_8295_rxCali_a_input_DCVS4
 .text._phy_8295_rxCali_a_input_DCVS5
                0x0000000083f57528       0xcc board/Realtek/rtl9300/librtl9300.o
                0x0000000083f57528                _phy_8295_rxCali_a_input_DCVS5
 .text._phy_8295_rxCali_a_input_tap0
                0x0000000083f575f4       0xdc board/Realtek/rtl9300/librtl9300.o
                0x0000000083f575f4                _phy_8295_rxCali_a_input_tap0
 .text._phy_8295_rxCali_a_input_vth
                0x0000000083f576d0       0xf8 board/Realtek/rtl9300/librtl9300.o
                0x0000000083f576d0                _phy_8295_rxCali_a_input_vth
 .text._phy_8295_rxCali_a_input_tap1_even
                0x0000000083f577c8      0x16c board/Realtek/rtl9300/librtl9300.o
                0x0000000083f577c8                _phy_8295_rxCali_a_input_tap1_even
 .text._phy_8295_rxCali_a_input_tap1_odd
                0x0000000083f57934      0x168 board/Realtek/rtl9300/librtl9300.o
                0x0000000083f57934                _phy_8295_rxCali_a_input_tap1_odd
 .text._phy_8295_rxCali_a_input_tap2_even
                0x0000000083f57a9c       0xdc board/Realtek/rtl9300/librtl9300.o
                0x0000000083f57a9c                _phy_8295_rxCali_a_input_tap2_even
 .text._phy_8295_rxCali_a_input_tap2_odd
                0x0000000083f57b78       0xdc board/Realtek/rtl9300/librtl9300.o
                0x0000000083f57b78                _phy_8295_rxCali_a_input_tap2_odd
 .text._phy_8295_rxCali_a_input_tap3_even
                0x0000000083f57c54       0xdc board/Realtek/rtl9300/librtl9300.o
                0x0000000083f57c54                _phy_8295_rxCali_a_input_tap3_even
 .text._phy_8295_rxCali_a_input_tap3_odd
                0x0000000083f57d30       0xdc board/Realtek/rtl9300/librtl9300.o
                0x0000000083f57d30                _phy_8295_rxCali_a_input_tap3_odd
 .text._phy_8295_rxCali_a_input_tap4_even
                0x0000000083f57e0c       0xdc board/Realtek/rtl9300/librtl9300.o
                0x0000000083f57e0c                _phy_8295_rxCali_a_input_tap4_even
 .text._phy_8295_rxCali_a_input_tap4_odd
                0x0000000083f57ee8       0xdc board/Realtek/rtl9300/librtl9300.o
                0x0000000083f57ee8                _phy_8295_rxCali_a_input_tap4_odd
 .text._phy_8295_rxCali_a_Readtap0
                0x0000000083f57fc4      0x678 board/Realtek/rtl9300/librtl9300.o
                0x0000000083f57fc4                _phy_8295_rxCali_a_Readtap0
 .text._phy_8295_rxCali_a_Othertap
                0x0000000083f5863c     0x1330 board/Realtek/rtl9300/librtl9300.o
                0x0000000083f5863c                _phy_8295_rxCali_a_Othertap
 .text._phy_8295_rxCali_a_dump_leq
                0x0000000083f5996c      0x2b8 board/Realtek/rtl9300/librtl9300.o
                0x0000000083f5996c                _phy_8295_rxCali_a_dump_leq
 .text._phy_8295_rxCali_a_start_1d1d1
                0x0000000083f59c24      0x840 board/Realtek/rtl9300/librtl9300.o
                0x0000000083f59c24                _phy_8295_rxCali_a_start_1d1d1
 .text._phy_8295_rxCali_a_start_1d2
                0x0000000083f5a464      0x2e0 board/Realtek/rtl9300/librtl9300.o
                0x0000000083f5a464                _phy_8295_rxCali_a_start_1d2
 .text._phy_8295_rxCali_a_start_1d2d3
                0x0000000083f5a744      0x314 board/Realtek/rtl9300/librtl9300.o
                0x0000000083f5a744                _phy_8295_rxCali_a_start_1d2d3
 .text._phy_8295_rxCali_a_FGCAL_chk
                0x0000000083f5aa58      0x334 board/Realtek/rtl9300/librtl9300.o
                0x0000000083f5aa58                _phy_8295_rxCali_a_FGCAL_chk
 .text._phy_8295_rxCali_a_start_1d2d4
                0x0000000083f5ad8c      0xeac board/Realtek/rtl9300/librtl9300.o
                0x0000000083f5ad8c                _phy_8295_rxCali_a_start_1d2d4
 .text._phy_8295_rxCali_a_start_1d3d1
                0x0000000083f5bc38      0x788 board/Realtek/rtl9300/librtl9300.o
                0x0000000083f5bc38                _phy_8295_rxCali_a_start_1d3d1
 .text._phy_8295_rxCali_a_rx_cal_nodfe
                0x0000000083f5c3c0      0x628 board/Realtek/rtl9300/librtl9300.o
                0x0000000083f5c3c0                _phy_8295_rxCali_a_rx_cal_nodfe
 .text._phy_8295_rxCali_a_start_1d4
                0x0000000083f5c9e8      0x510 board/Realtek/rtl9300/librtl9300.o
                0x0000000083f5c9e8                _phy_8295_rxCali_a_start_1d4
 .text._phy_8295_rxCali_a_start_1d5d2
                0x0000000083f5cef8      0x278 board/Realtek/rtl9300/librtl9300.o
                0x0000000083f5cef8                _phy_8295_rxCali_a_start_1d5d2
 .text._phy_8295_rxCali_a_eye_scan
                0x0000000083f5d170      0x574 board/Realtek/rtl9300/librtl9300.o
                0x0000000083f5d170                _phy_8295_rxCali_a_eye_scan
 .text._phy_8295_rxCali_a_startall
                0x0000000083f5d6e4      0x184 board/Realtek/rtl9300/librtl9300.o
                0x0000000083f5d6e4                _phy_8295_rxCali_a_startall
 .text.phy_8214qf_patch_set
                0x0000000083f5d868       0xb8 board/Realtek/rtl9300/librtl9300.o
                0x0000000083f5d868                phy_8214qf_patch_set
 .text.phy_8214qf_patch_cust_set
                0x0000000083f5d920      0x178 board/Realtek/rtl9300/librtl9300.o
                0x0000000083f5d920                phy_8214qf_patch_cust_set
 .text.phy_8295_rxCali_start
                0x0000000083f5da98      0x118 board/Realtek/rtl9300/librtl9300.o
                0x0000000083f5da98                phy_8295_rxCali_start
 .text.phy_8295_rxCaliParamDefault_get
                0x0000000083f5dbb0       0x50 board/Realtek/rtl9300/librtl9300.o
                0x0000000083f5dbb0                phy_8295_rxCaliParamDefault_get
 .text.phy_8214qf_rxCaliConf_set
                0x0000000083f5dc00      0x114 board/Realtek/rtl9300/librtl9300.o
                0x0000000083f5dc00                phy_8214qf_rxCaliConf_set
 .text.phy_8214qf_rxCaliConf_get
                0x0000000083f5dd14       0xa4 board/Realtek/rtl9300/librtl9300.o
                0x0000000083f5dd14                phy_8214qf_rxCaliConf_get
 .text.phy_experimental_8211FS_init
                0x0000000083f5ddb8        0x8 board/Realtek/rtl9300/librtl9300.o
                0x0000000083f5ddb8                phy_experimental_8211FS_init
 .text.phy_experimental_8211FS_mapperInit
                0x0000000083f5ddc0       0x30 board/Realtek/rtl9300/librtl9300.o
                0x0000000083f5ddc0                phy_experimental_8211FS_mapperInit
 .text.r9300_init
                0x0000000083f5ddf0       0x24 board/Realtek/rtl9300/librtl9300.o
                0x0000000083f5ddf0                r9300_init
 .text.r9300_pkt_tx
                0x0000000083f5de14        0x8 board/Realtek/rtl9300/librtl9300.o
                0x0000000083f5de14                r9300_pkt_tx
 .text.r9300_rx_start
                0x0000000083f5de1c        0x8 board/Realtek/rtl9300/librtl9300.o
                0x0000000083f5de1c                r9300_rx_start
 .text.r9300_rx_stop
                0x0000000083f5de24        0x8 board/Realtek/rtl9300/librtl9300.o
                0x0000000083f5de24                r9300_rx_stop
 .text.r9300_rx_register
                0x0000000083f5de2c        0x8 board/Realtek/rtl9300/librtl9300.o
                0x0000000083f5de2c                r9300_rx_register
 .text.r9300_rx_unregister
                0x0000000083f5de34        0x8 board/Realtek/rtl9300/librtl9300.o
                0x0000000083f5de34                r9300_rx_unregister
 .text.r9300_pkt_alloc
                0x0000000083f5de3c        0x8 board/Realtek/rtl9300/librtl9300.o
                0x0000000083f5de3c                r9300_pkt_alloc
 .text.r9300_pkt_free
                0x0000000083f5de44        0x8 board/Realtek/rtl9300/librtl9300.o
                0x0000000083f5de44                r9300_pkt_free
 .text.r9300_debug_set
                0x0000000083f5de4c        0x8 board/Realtek/rtl9300/librtl9300.o
                0x0000000083f5de4c                r9300_debug_set
 .text.r9300_debug_get
                0x0000000083f5de54        0x8 board/Realtek/rtl9300/librtl9300.o
                0x0000000083f5de54                r9300_debug_get
 .text.r9300_counter_dump
                0x0000000083f5de5c        0x8 board/Realtek/rtl9300/librtl9300.o
                0x0000000083f5de5c                r9300_counter_dump
 .text.r9300_counter_clear
                0x0000000083f5de64        0x8 board/Realtek/rtl9300/librtl9300.o
                0x0000000083f5de64                r9300_counter_clear
 .text.r9300_bufStatus_dump
                0x0000000083f5de6c        0x8 board/Realtek/rtl9300/librtl9300.o
                0x0000000083f5de6c                r9300_bufStatus_dump
 .text.r9300_pkthdrMbuf_dump
                0x0000000083f5de74        0x8 board/Realtek/rtl9300/librtl9300.o
                0x0000000083f5de74                r9300_pkthdrMbuf_dump
 .text.r9300_rxStatus_get
                0x0000000083f5de7c        0x8 board/Realtek/rtl9300/librtl9300.o
                0x0000000083f5de7c                r9300_rxStatus_get
 .text.r9300_ringInfo_get
                0x0000000083f5de84       0x38 board/Realtek/rtl9300/librtl9300.o
                0x0000000083f5de84                r9300_ringInfo_get
 .text.r9300_cpuPortTxRxEnable_set
                0x0000000083f5debc       0x60 board/Realtek/rtl9300/librtl9300.o
                0x0000000083f5debc                r9300_cpuPortTxRxEnable_set
 .text.r9300_intrMask_get
                0x0000000083f5df1c       0xd8 board/Realtek/rtl9300/librtl9300.o
                0x0000000083f5df1c                r9300_intrMask_get
 .text.r9300_intrMask_set
                0x0000000083f5dff4       0xd8 board/Realtek/rtl9300/librtl9300.o
                0x0000000083f5dff4                r9300_intrMask_set
 .text.r9300_intrSts_get
                0x0000000083f5e0cc       0xd8 board/Realtek/rtl9300/librtl9300.o
                0x0000000083f5e0cc                r9300_intrSts_get
 .text.r9300_intrSts_set
                0x0000000083f5e1a4       0xac board/Realtek/rtl9300/librtl9300.o
                0x0000000083f5e1a4                r9300_intrSts_set
 .text.r9300_swNicRst_get
                0x0000000083f5e250       0x2c board/Realtek/rtl9300/librtl9300.o
                0x0000000083f5e250                r9300_swNicRst_get
 .text.r9300_swNicRst_set
                0x0000000083f5e27c       0x30 board/Realtek/rtl9300/librtl9300.o
                0x0000000083f5e27c                r9300_swNicRst_set
 .text.r9300_swQueRst_get
                0x0000000083f5e2ac       0x2c board/Realtek/rtl9300/librtl9300.o
                0x0000000083f5e2ac                r9300_swQueRst_get
 .text.r9300_swQueRst_set
                0x0000000083f5e2d8       0x38 board/Realtek/rtl9300/librtl9300.o
                0x0000000083f5e2d8                r9300_swQueRst_set
 .text.r9300_cpuL2FloodMask_add
                0x0000000083f5e310       0x70 board/Realtek/rtl9300/librtl9300.o
                0x0000000083f5e310                r9300_cpuL2FloodMask_add
 .text.r9300_cpuL2FloodMask_remove
                0x0000000083f5e380       0x74 board/Realtek/rtl9300/librtl9300.o
                0x0000000083f5e380                r9300_cpuL2FloodMask_remove
 .text.r9300_cpuForceLinkupEnable_set
                0x0000000083f5e3f4       0xac board/Realtek/rtl9300/librtl9300.o
                0x0000000083f5e3f4                r9300_cpuForceLinkupEnable_set
 .text.r9300_holRingSize_set
                0x0000000083f5e4a0       0x50 board/Realtek/rtl9300/librtl9300.o
                0x0000000083f5e4a0                r9300_holRingSize_set
 .text.r9300_holRingCnt_get
                0x0000000083f5e4f0       0x70 board/Realtek/rtl9300/librtl9300.o
                0x0000000083f5e4f0                r9300_holRingCnt_get
 .text.r9300_holRingCnt_set
                0x0000000083f5e560       0x48 board/Realtek/rtl9300/librtl9300.o
                0x0000000083f5e560                r9300_holRingCnt_set
 .text.r9300_ntfyBaseAddr_get
                0x0000000083f5e5a8       0x24 board/Realtek/rtl9300/librtl9300.o
                0x0000000083f5e5a8                r9300_ntfyBaseAddr_get
 .text.r9300_ntfyBaseAddr_set
                0x0000000083f5e5cc       0x24 board/Realtek/rtl9300/librtl9300.o
                0x0000000083f5e5cc                r9300_ntfyBaseAddr_set
 .text.r9300_ringBaseAddr_get
                0x0000000083f5e5f0       0x3c board/Realtek/rtl9300/librtl9300.o
                0x0000000083f5e5f0                r9300_ringBaseAddr_get
 .text.r9300_ringBaseAddr_set
                0x0000000083f5e62c       0x3c board/Realtek/rtl9300/librtl9300.o
                0x0000000083f5e62c                r9300_ringBaseAddr_set
 .text.r9300_ringCurAddr_get
                0x0000000083f5e668       0x3c board/Realtek/rtl9300/librtl9300.o
                0x0000000083f5e668                r9300_ringCurAddr_get
 .text.r9300_rxTruncateLength_get
                0x0000000083f5e6a4       0x2c board/Realtek/rtl9300/librtl9300.o
                0x0000000083f5e6a4                r9300_rxTruncateLength_get
 .text.r9300_rxTruncateLength_set
                0x0000000083f5e6d0       0x2c board/Realtek/rtl9300/librtl9300.o
                0x0000000083f5e6d0                r9300_rxTruncateLength_set
 .text.r9300_nicEnable_get
                0x0000000083f5e6fc       0x48 board/Realtek/rtl9300/librtl9300.o
                0x0000000083f5e6fc                r9300_nicEnable_get
 .text.r9300_nicEnable_set
                0x0000000083f5e744       0x48 board/Realtek/rtl9300/librtl9300.o
                0x0000000083f5e744                r9300_nicEnable_set
 .text.r9300_nicTxFetch_set
                0x0000000083f5e78c       0x44 board/Realtek/rtl9300/librtl9300.o
                0x0000000083f5e78c                r9300_nicTxFetch_set
 .text.r9300_nicTxBusySts_get
                0x0000000083f5e7d0       0x44 board/Realtek/rtl9300/librtl9300.o
                0x0000000083f5e7d0                r9300_nicTxBusySts_get
 .text.r9300_cpuTagId_get
                0x0000000083f5e814       0x2c board/Realtek/rtl9300/librtl9300.o
                0x0000000083f5e814                r9300_cpuTagId_get
 .text.r9300_cpuTagId_set
                0x0000000083f5e840       0x2c board/Realtek/rtl9300/librtl9300.o
                0x0000000083f5e840                r9300_cpuTagId_set
 .text.r9300_supportJumboSize_get
                0x0000000083f5e86c       0x10 board/Realtek/rtl9300/librtl9300.o
                0x0000000083f5e86c                r9300_supportJumboSize_get
 .text.r9300_cpuTagFromRaw_cnvt
                0x0000000083f5e87c      0x4bc board/Realtek/rtl9300/librtl9300.o
                0x0000000083f5e87c                r9300_cpuTagFromRaw_cnvt
 .text.r9300_cpuTagToRaw_cnvt
                0x0000000083f5ed38      0x2a0 board/Realtek/rtl9300/librtl9300.o
                0x0000000083f5ed38                r9300_cpuTagToRaw_cnvt
 .text.r9300_cpuTag_dump
                0x0000000083f5efd8      0x298 board/Realtek/rtl9300/librtl9300.o
                0x0000000083f5efd8                r9300_cpuTag_dump
 .text.r9300_rawTag_dump
                0x0000000083f5f270      0x240 board/Realtek/rtl9300/librtl9300.o
                0x0000000083f5f270                r9300_rawTag_dump
 .text.r9300_rtl8231_init
                0x0000000083f5f4b0      0x130 board/Realtek/rtl9300/librtl9300.o
                0x0000000083f5f4b0                r9300_rtl8231_init
 .text.r9300_rtl8231_mdc_read
                0x0000000083f5f5e0      0x184 board/Realtek/rtl9300/librtl9300.o
                0x0000000083f5f5e0                r9300_rtl8231_mdc_read
 .text.r9300_rtl8231_mdc_write
                0x0000000083f5f764      0x17c board/Realtek/rtl9300/librtl9300.o
                0x0000000083f5f764                r9300_rtl8231_mdc_write
 .text.r9300_rtl8231_pinIntrEnable_set
                0x0000000083f5f8e0       0xf4 board/Realtek/rtl9300/librtl9300.o
                0x0000000083f5f8e0                r9300_rtl8231_pinIntrEnable_set
 .text.r9300_rtl8231_pinIntrEnable_get
                0x0000000083f5f9d4      0x120 board/Realtek/rtl9300/librtl9300.o
                0x0000000083f5f9d4                r9300_rtl8231_pinIntrEnable_get
 .text.r9300_rtl8231_pinIntrMode_set
                0x0000000083f5faf4      0x1a4 board/Realtek/rtl9300/librtl9300.o
                0x0000000083f5faf4                r9300_rtl8231_pinIntrMode_set
 .text.r9300_rtl8231_pinIntrMode_get
                0x0000000083f5fc98      0x120 board/Realtek/rtl9300/librtl9300.o
                0x0000000083f5fc98                r9300_rtl8231_pinIntrMode_get
 .text.r9300_rtl8231_extGPIOIntrStatus_get
                0x0000000083f5fdb8       0xc0 board/Realtek/rtl9300/librtl9300.o
                0x0000000083f5fdb8                r9300_rtl8231_extGPIOIntrStatus_get
 .text.r9300_rtl8231_pinIntrStatus_get
                0x0000000083f5fe78      0x114 board/Realtek/rtl9300/librtl9300.o
                0x0000000083f5fe78                r9300_rtl8231_pinIntrStatus_get
 .text.r9300_rtl8231_pinIntrStatus_clear
                0x0000000083f5ff8c      0x160 board/Realtek/rtl9300/librtl9300.o
                0x0000000083f5ff8c                r9300_rtl8231_pinIntrStatus_clear
 .text.r9300_rtl8231_directAccess_set
                0x0000000083f600ec      0x164 board/Realtek/rtl9300/librtl9300.o
                0x0000000083f600ec                r9300_rtl8231_directAccess_set
 .text.r9300_i2c_execution
                0x0000000083f60250       0xe8 board/Realtek/rtl9300/librtl9300.o
                0x0000000083f60250                r9300_i2c_execution
 .text.r9300_i2c_init
                0x0000000083f60338       0x44 board/Realtek/rtl9300/librtl9300.o
                0x0000000083f60338                r9300_i2c_init
 .text.r9300_i2c_dev_init
                0x0000000083f6037c      0x510 board/Realtek/rtl9300/librtl9300.o
                0x0000000083f6037c                r9300_i2c_dev_init
 .text.r9300_i2c_read
                0x0000000083f6088c      0x2bc board/Realtek/rtl9300/librtl9300.o
                0x0000000083f6088c                r9300_i2c_read
 .text.r9300_i2c_write
                0x0000000083f60b48      0x2b8 board/Realtek/rtl9300/librtl9300.o
                0x0000000083f60b48                r9300_i2c_write
 .text.phy_9300_media_get
                0x0000000083f60e00       0x1c board/Realtek/rtl9300/librtl9300.o
                0x0000000083f60e00                phy_9300_media_get
 .text.phy_9300_10gmedia_get
                0x0000000083f60e1c       0x74 board/Realtek/rtl9300/librtl9300.o
                0x0000000083f60e1c                phy_9300_10gmedia_get
 .text.phy_9300_fiberRxEnable_get
                0x0000000083f60e90       0x74 board/Realtek/rtl9300/librtl9300.o
                0x0000000083f60e90                phy_9300_fiberRxEnable_get
 .text.phy_rtl9300_sds_get
                0x0000000083f60f04       0x48 board/Realtek/rtl9300/librtl9300.o
                0x0000000083f60f04                phy_rtl9300_sds_get
 .text.phy_9300_serdes_loopback_get
                0x0000000083f60f4c       0x98 board/Realtek/rtl9300/librtl9300.o
                0x0000000083f60f4c                phy_9300_serdes_loopback_get
 .text._phy_9300_speedStdReg_set
                0x0000000083f60fe4      0x104 board/Realtek/rtl9300/librtl9300.o
 .text.phy_9300_polar_set
                0x0000000083f610e8      0x158 board/Realtek/rtl9300/librtl9300.o
                0x0000000083f610e8                phy_9300_polar_set
 .text.phy_9300_10gMedia_set
                0x0000000083f61240      0x2ac board/Realtek/rtl9300/librtl9300.o
                0x0000000083f61240                phy_9300_10gMedia_set
 .text.phy_9300_enable_set
                0x0000000083f614ec      0x1d0 board/Realtek/rtl9300/librtl9300.o
                0x0000000083f614ec                phy_9300_enable_set
 .text._phy_9300_fiberRxEnable_set
                0x0000000083f616bc      0x264 board/Realtek/rtl9300/librtl9300.o
 .text.phy_9300_fiberNwayForceLink_set
                0x0000000083f61920       0x54 board/Realtek/rtl9300/librtl9300.o
                0x0000000083f61920                phy_9300_fiberNwayForceLink_set
 .text.phy_9300_init
                0x0000000083f61974      0x128 board/Realtek/rtl9300/librtl9300.o
                0x0000000083f61974                phy_9300_init
 .text.phy_9300_fiberNwayForceLink_get
                0x0000000083f61a9c       0x70 board/Realtek/rtl9300/librtl9300.o
                0x0000000083f61a9c                phy_9300_fiberNwayForceLink_get
 .text.phy_9300_serdes_loopback_set
                0x0000000083f61b0c      0x164 board/Realtek/rtl9300/librtl9300.o
                0x0000000083f61b0c                phy_9300_serdes_loopback_set
 .text.phy_rtl9300_sds_set
                0x0000000083f61c70      0x210 board/Realtek/rtl9300/librtl9300.o
                0x0000000083f61c70                phy_rtl9300_sds_set
 .text.phy_9300_remoteFault_handle
                0x0000000083f61e80      0x2fc board/Realtek/rtl9300/librtl9300.o
                0x0000000083f61e80                phy_9300_remoteFault_handle
 .text.phy_9300_fiberUnidirEnable_set
                0x0000000083f6217c       0xe8 board/Realtek/rtl9300/librtl9300.o
                0x0000000083f6217c                phy_9300_fiberUnidirEnable_set
 .text.phy_9300_speed_get
                0x0000000083f62264       0xc8 board/Realtek/rtl9300/librtl9300.o
                0x0000000083f62264                phy_9300_speed_get
 .text.phy_9300_duplex_get
                0x0000000083f6232c       0xdc board/Realtek/rtl9300/librtl9300.o
                0x0000000083f6232c                phy_9300_duplex_get
 .text.phy_9300_autoNegoEnable_get
                0x0000000083f62408       0xd8 board/Realtek/rtl9300/librtl9300.o
                0x0000000083f62408                phy_9300_autoNegoEnable_get
 .text.phy_9300_speed_set
                0x0000000083f624e0       0xd4 board/Realtek/rtl9300/librtl9300.o
                0x0000000083f624e0                phy_9300_speed_set
 .text.phy_9300_duplex_set
                0x0000000083f625b4      0x114 board/Realtek/rtl9300/librtl9300.o
                0x0000000083f625b4                phy_9300_duplex_set
 .text.phy_9300_autoNegoEnable_set
                0x0000000083f626c8      0x118 board/Realtek/rtl9300/librtl9300.o
                0x0000000083f626c8                phy_9300_autoNegoEnable_set
 .text.phy_9300_autoNegoAbility_set
                0x0000000083f627e0      0x220 board/Realtek/rtl9300/librtl9300.o
                0x0000000083f627e0                phy_9300_autoNegoAbility_set
 .text.phy_9300_fiberRxEnable_set
                0x0000000083f62a00       0x94 board/Realtek/rtl9300/librtl9300.o
                0x0000000083f62a00                phy_9300_fiberRxEnable_set
 .text.phy_9300_autoNegoAbility_get
                0x0000000083f62a94      0x164 board/Realtek/rtl9300/librtl9300.o
                0x0000000083f62a94                phy_9300_autoNegoAbility_get
 .text.phy_9300_polar_get
                0x0000000083f62bf8       0xe4 board/Realtek/rtl9300/librtl9300.o
                0x0000000083f62bf8                phy_9300_polar_get
 .text._phy_9300_serdesFiber10g_handeler
                0x0000000083f62cdc      0x1d8 board/Realtek/rtl9300/librtl9300.o
                0x0000000083f62cdc                _phy_9300_serdesFiber10g_handeler
 .text._phy_9300_serdesFiber1g_handeler
                0x0000000083f62eb4      0x194 board/Realtek/rtl9300/librtl9300.o
                0x0000000083f62eb4                _phy_9300_serdesFiber1g_handeler
 .text.phy_9300_serdesFiberRx_check
                0x0000000083f63048      0x240 board/Realtek/rtl9300/librtl9300.o
                0x0000000083f63048                phy_9300_serdesFiberRx_check
 .text._phy_9300_serdesFiber1g_reset
                0x0000000083f63288       0xd8 board/Realtek/rtl9300/librtl9300.o
                0x0000000083f63288                _phy_9300_serdesFiber1g_reset
 .text.phy_9300_serdesFiberRx_reset
                0x0000000083f63360      0x314 board/Realtek/rtl9300/librtl9300.o
                0x0000000083f63360                phy_9300_serdesFiberRx_reset
 .text.phy_9300_serdes_mapperInit
                0x0000000083f63674      0x1c8 board/Realtek/rtl9300/librtl9300.o
                0x0000000083f63674                phy_9300_serdes_mapperInit
 .text.rtl9300_port_probe
                0x0000000083f6383c        0x8 board/Realtek/rtl9300/librtl9300.o
                0x0000000083f6383c                rtl9300_port_probe
 .text.rtl9300_miim_extParkPage_read
                0x0000000083f63844        0x8 board/Realtek/rtl9300/librtl9300.o
                0x0000000083f63844                rtl9300_miim_extParkPage_read
 .text.rtl9300_miim_extParkPage_write
                0x0000000083f6384c        0x8 board/Realtek/rtl9300/librtl9300.o
                0x0000000083f6384c                rtl9300_miim_extParkPage_write
 .text.rtl9300_miim_extParkPage_portmask_write
                0x0000000083f63854       0x10 board/Realtek/rtl9300/librtl9300.o
                0x0000000083f63854                rtl9300_miim_extParkPage_portmask_write
 .text.rtl9300_serdes_rst
                0x0000000083f63864      0x1a8 board/Realtek/rtl9300/librtl9300.o
                0x0000000083f63864                rtl9300_serdes_rst
 .text.rtl9300_miim_portSmiMdxProto_set
                0x0000000083f63a0c      0x124 board/Realtek/rtl9300/librtl9300.o
                0x0000000083f63a0c                rtl9300_miim_portSmiMdxProto_set
 .text.rtl9300_miim_portSmiMdxProto_get
                0x0000000083f63b30      0x11c board/Realtek/rtl9300/librtl9300.o
                0x0000000083f63b30                rtl9300_miim_portSmiMdxProto_get
 .text.rtl9300_miim_park_read
                0x0000000083f63c4c      0x320 board/Realtek/rtl9300/librtl9300.o
                0x0000000083f63c4c                rtl9300_miim_park_read
 .text.rtl9300_miim_park_write
                0x0000000083f63f6c      0x32c board/Realtek/rtl9300/librtl9300.o
                0x0000000083f63f6c                rtl9300_miim_park_write
 .text.rtl9300_miim_portmask_write
                0x0000000083f64298      0x2a0 board/Realtek/rtl9300/librtl9300.o
                0x0000000083f64298                rtl9300_miim_portmask_write
 .text.rtl9300_miim_mmd_read
                0x0000000083f64538      0x2b4 board/Realtek/rtl9300/librtl9300.o
                0x0000000083f64538                rtl9300_miim_mmd_read
 .text.rtl9300_miim_mmd_write
                0x0000000083f647ec      0x2a0 board/Realtek/rtl9300/librtl9300.o
                0x0000000083f647ec                rtl9300_miim_mmd_write
 .text.rtl9300_miim_mmd_portmask_write
                0x0000000083f64a8c      0x2b8 board/Realtek/rtl9300/librtl9300.o
                0x0000000083f64a8c                rtl9300_miim_mmd_portmask_write
 .text.rtl9300_table_read
                0x0000000083f64d44      0x4cc board/Realtek/rtl9300/librtl9300.o
                0x0000000083f64d44                rtl9300_table_read
 .text.rtl9300_table_write
                0x0000000083f65210      0x44c board/Realtek/rtl9300/librtl9300.o
                0x0000000083f65210                rtl9300_table_write
 .text.rtl9300_drv_serdes_write
                0x0000000083f6565c       0xd8 board/Realtek/rtl9300/librtl9300.o
                0x0000000083f6565c                rtl9300_drv_serdes_write
 .text.rtl9300_drv_serdes_read
                0x0000000083f65734       0xb8 board/Realtek/rtl9300/librtl9300.o
                0x0000000083f65734                rtl9300_drv_serdes_read
 .text.rtl9300_miim_pollingEnable_get
                0x0000000083f657ec       0xc0 board/Realtek/rtl9300/librtl9300.o
                0x0000000083f657ec                rtl9300_miim_pollingEnable_get
 .text.rtl9300_miim_pollingEnable_set
                0x0000000083f658ac      0x108 board/Realtek/rtl9300/librtl9300.o
                0x0000000083f658ac                rtl9300_miim_pollingEnable_set
 .text._rtl9300_port_phyAddr_get
                0x0000000083f659b4       0xd8 board/Realtek/rtl9300/librtl9300.o
                0x0000000083f659b4                _rtl9300_port_phyAddr_get
 .text._rtl9300_port_phyAddr_set
                0x0000000083f65a8c       0xc4 board/Realtek/rtl9300/librtl9300.o
                0x0000000083f65a8c                _rtl9300_port_phyAddr_set
 .text._rtl9300_port_smiSel_set
                0x0000000083f65b50       0xcc board/Realtek/rtl9300/librtl9300.o
                0x0000000083f65b50                _rtl9300_port_smiSel_set
 .text._rtl9300_extSmiAccCtrlRegField_set
                0x0000000083f65c1c       0xd8 board/Realtek/rtl9300/librtl9300.o
                0x0000000083f65c1c                _rtl9300_extSmiAccCtrlRegField_set
 .text.rtl9300_smi_read
                0x0000000083f65cf4      0x1f8 board/Realtek/rtl9300/librtl9300.o
                0x0000000083f65cf4                rtl9300_smi_read
 .text.rtl9300_smi_write
                0x0000000083f65eec      0x1e0 board/Realtek/rtl9300/librtl9300.o
                0x0000000083f65eec                rtl9300_smi_write
 .text._rtl9300_smiAddr_init
                0x0000000083f660cc      0x108 board/Realtek/rtl9300/librtl9300.o
                0x0000000083f660cc                _rtl9300_smiAddr_init
 .text._rtl9300_smiMacType_init
                0x0000000083f661d4      0x1cc board/Realtek/rtl9300/librtl9300.o
                0x0000000083f661d4                _rtl9300_smiMacType_init
 .text.rtl9300_init
                0x0000000083f663a0       0x78 board/Realtek/rtl9300/librtl9300.o
                0x0000000083f663a0                rtl9300_init
 .text._rtl9300_miim_write
                0x0000000083f66418      0x1dc board/Realtek/rtl9300/librtl9300.o
                0x0000000083f66418                _rtl9300_miim_write
 .text.rtl9300_miim_read
                0x0000000083f665f4      0x304 board/Realtek/rtl9300/librtl9300.o
                0x0000000083f665f4                rtl9300_miim_read
 .text.rtl9300_miim_write
                0x0000000083f668f8      0x138 board/Realtek/rtl9300/librtl9300.o
                0x0000000083f668f8                rtl9300_miim_write
 .text.rtl9300_miim_broadcast_write
                0x0000000083f66a30      0x14c board/Realtek/rtl9300/librtl9300.o
                0x0000000083f66a30                rtl9300_miim_broadcast_write
 .text.drv_rtl9300_sds2XsgmSds_get
                0x0000000083f66b7c       0x74 board/Realtek/rtl9300/librtl9300.o
                0x0000000083f66b7c                drv_rtl9300_sds2XsgmSds_get
 .text._rtl9300_led_regDefault_init
                0x0000000083f66bf0       0x54 board/Realtek/rtl9300/librtl9300.o
                0x0000000083f66bf0                _rtl9300_led_regDefault_init
 .text._rtl9300_led_num_config
                0x0000000083f66c44      0x12c board/Realtek/rtl9300/librtl9300.o
                0x0000000083f66c44                _rtl9300_led_num_config
 .text._rtl9300_led_interface_select
                0x0000000083f66d70       0xec board/Realtek/rtl9300/librtl9300.o
                0x0000000083f66d70                _rtl9300_led_interface_select
 .text._rtl9300_led_portMsk_config
                0x0000000083f66e5c      0x234 board/Realtek/rtl9300/librtl9300.o
                0x0000000083f66e5c                _rtl9300_led_portMsk_config
 .text._rtl9300_led_mode_config
                0x0000000083f67090      0x278 board/Realtek/rtl9300/librtl9300.o
                0x0000000083f67090                _rtl9300_led_mode_config
 .text._rtl9300_led_stack_sync_config
                0x0000000083f67308       0x50 board/Realtek/rtl9300/librtl9300.o
                0x0000000083f67308                _rtl9300_led_stack_sync_config
 .text.rtl9300_led_config
                0x0000000083f67358       0x68 board/Realtek/rtl9300/librtl9300.o
                0x0000000083f67358                rtl9300_led_config
 .text._rtl9300_gpio_intrEnable_init
                0x0000000083f673c0       0x3c board/Realtek/rtl9300/librtl9300.o
                0x0000000083f673c0                _rtl9300_gpio_intrEnable_init
 .text._rtl9300_gpio_imPinOffsetPortA_get
                0x0000000083f673fc       0xa0 board/Realtek/rtl9300/librtl9300.o
                0x0000000083f673fc                _rtl9300_gpio_imPinOffsetPortA_get
 .text._rtl9300_gpio_imPinOffsetPortB_get
                0x0000000083f6749c       0xa8 board/Realtek/rtl9300/librtl9300.o
                0x0000000083f6749c                _rtl9300_gpio_imPinOffsetPortB_get
 .text._rtl9300_gpio_imPinOffsetPortC_get
                0x0000000083f67544       0xa0 board/Realtek/rtl9300/librtl9300.o
                0x0000000083f67544                _rtl9300_gpio_imPinOffsetPortC_get
 .text.rtl9300_gpio_init
                0x0000000083f675e4       0x48 board/Realtek/rtl9300/librtl9300.o
                0x0000000083f675e4                rtl9300_gpio_init
 .text.rtl9300_gpio_direction_set
                0x0000000083f6762c       0xd8 board/Realtek/rtl9300/librtl9300.o
                0x0000000083f6762c                rtl9300_gpio_direction_set
 .text.rtl9300_gpio_intrMode_set
                0x0000000083f67704      0x110 board/Realtek/rtl9300/librtl9300.o
                0x0000000083f67704                rtl9300_gpio_intrMode_set
 .text.rtl9300_gpio_dataBit_get
                0x0000000083f67814       0x8c board/Realtek/rtl9300/librtl9300.o
                0x0000000083f67814                rtl9300_gpio_dataBit_get
 .text.rtl9300_gpio_dataBit_set
                0x0000000083f678a0       0xc4 board/Realtek/rtl9300/librtl9300.o
                0x0000000083f678a0                rtl9300_gpio_dataBit_set
 .text.rtl9300_gpio_intrStatus_get
                0x0000000083f67964       0x8c board/Realtek/rtl9300/librtl9300.o
                0x0000000083f67964                rtl9300_gpio_intrStatus_get
 .text.rtl9300_gpio_intrStatus_clear
                0x0000000083f679f0       0x44 board/Realtek/rtl9300/librtl9300.o
                0x0000000083f679f0                rtl9300_gpio_intrStatus_clear
 .text.rtl9300_gpio_portRange_get
                0x0000000083f67a34       0x14 board/Realtek/rtl9300/librtl9300.o
                0x0000000083f67a34                rtl9300_gpio_portRange_get
 .text.dal_longan_init
                0x0000000083f67a48       0xa8 board/Realtek/rtl9300/librtl9300.o
                0x0000000083f67a48                dal_longan_init
 .text.dal_longanMapper_init
                0x0000000083f67af0       0x44 board/Realtek/rtl9300/librtl9300.o
                0x0000000083f67af0                dal_longanMapper_init
 .text.dal_longan_port_isolationRestrictRoute_set
                0x0000000083f67b34       0xf8 board/Realtek/rtl9300/librtl9300.o
                0x0000000083f67b34                dal_longan_port_isolationRestrictRoute_set
 .text.dal_longan_port_specialCongest_set
                0x0000000083f67c2c      0x1b4 board/Realtek/rtl9300/librtl9300.o
                0x0000000083f67c2c                dal_longan_port_specialCongest_set
 .text.dal_longan_port_backpressureEnable_set
                0x0000000083f67de0      0x158 board/Realtek/rtl9300/librtl9300.o
                0x0000000083f67de0                dal_longan_port_backpressureEnable_set
 .text.dal_longan_port_vlanBasedIsolationEgrBypass_set
                0x0000000083f67f38      0x148 board/Realtek/rtl9300/librtl9300.o
                0x0000000083f67f38                dal_longan_port_vlanBasedIsolationEgrBypass_set
 .text.dal_longan_port_adminEnable_get
                0x0000000083f68080      0x11c board/Realtek/rtl9300/librtl9300.o
                0x0000000083f68080                dal_longan_port_adminEnable_get
 .text.dal_longan_port_linkChange_register
                0x0000000083f6819c       0xc0 board/Realtek/rtl9300/librtl9300.o
                0x0000000083f6819c                dal_longan_port_linkChange_register
 .text.dal_longan_port_linkChange_unregister
                0x0000000083f6825c       0xac board/Realtek/rtl9300/librtl9300.o
                0x0000000083f6825c                dal_longan_port_linkChange_unregister
 .text._dal_longan_port_macForceLink_get
                0x0000000083f68308      0x1f4 board/Realtek/rtl9300/librtl9300.o
                0x0000000083f68308                _dal_longan_port_macForceLink_get
 .text.dal_longan_port_txEnable_get
                0x0000000083f684fc      0x168 board/Realtek/rtl9300/librtl9300.o
                0x0000000083f684fc                dal_longan_port_txEnable_get
 .text.dal_longan_port_rxEnable_get
                0x0000000083f68664      0x168 board/Realtek/rtl9300/librtl9300.o
                0x0000000083f68664                dal_longan_port_rxEnable_get
 .text.dal_longan_port_specialCongest_get
                0x0000000083f687cc      0x150 board/Realtek/rtl9300/librtl9300.o
                0x0000000083f687cc                dal_longan_port_specialCongest_get
 .text.dal_longan_port_backpressureEnable_get
                0x0000000083f6891c      0x158 board/Realtek/rtl9300/librtl9300.o
                0x0000000083f6891c                dal_longan_port_backpressureEnable_get
 .text.dal_longan_port_vlanBasedIsolationEntry_get
                0x0000000083f68a74      0x1fc board/Realtek/rtl9300/librtl9300.o
                0x0000000083f68a74                dal_longan_port_vlanBasedIsolationEntry_get
 .text.dal_longan_port_vlanBasedIsolationEgrBypass_get
                0x0000000083f68c70      0x148 board/Realtek/rtl9300/librtl9300.o
                0x0000000083f68c70                dal_longan_port_vlanBasedIsolationEgrBypass_get
 .text._dal_longan_port_macForceLink_set
                0x0000000083f68db8      0x3e0 board/Realtek/rtl9300/librtl9300.o
                0x0000000083f68db8                _dal_longan_port_macForceLink_set
 .text.dal_longan_port_cpuPortId_get
                0x0000000083f69198      0x11c board/Realtek/rtl9300/librtl9300.o
                0x0000000083f69198                dal_longan_port_cpuPortId_get
 .text.dal_longan_port_isolationRestrictRoute_get
                0x0000000083f692b4      0x100 board/Realtek/rtl9300/librtl9300.o
                0x0000000083f692b4                dal_longan_port_isolationRestrictRoute_get
 .text.dal_longan_port_linkMedia_get
                0x0000000083f693b4      0x214 board/Realtek/rtl9300/librtl9300.o
                0x0000000083f693b4                dal_longan_port_linkMedia_get
 .text.dal_longan_port_fiberUnidirEnable_get
                0x0000000083f695c8      0x1c8 board/Realtek/rtl9300/librtl9300.o
                0x0000000083f695c8                dal_longan_port_fiberUnidirEnable_get
 .text.dal_longan_port_txEnable_set
                0x0000000083f69790      0x160 board/Realtek/rtl9300/librtl9300.o
                0x0000000083f69790                dal_longan_port_txEnable_set
 .text.dal_longan_port_rxEnable_set
                0x0000000083f698f0      0x2d8 board/Realtek/rtl9300/librtl9300.o
                0x0000000083f698f0                dal_longan_port_rxEnable_set
 .text.dal_longan_port_isolation_get
                0x0000000083f69bc8      0x19c board/Realtek/rtl9300/librtl9300.o
                0x0000000083f69bc8                dal_longan_port_isolation_get
 .text.dal_longan_port_isolationExt_get
                0x0000000083f69d64      0x170 board/Realtek/rtl9300/librtl9300.o
                0x0000000083f69d64                dal_longan_port_isolationExt_get
 .text.dal_longan_port_vlanBasedIsolationEntry_set
                0x0000000083f69ed4      0x244 board/Realtek/rtl9300/librtl9300.o
                0x0000000083f69ed4                dal_longan_port_vlanBasedIsolationEntry_set
 .text.dal_longan_port_isolation_set
                0x0000000083f6a118      0x1a8 board/Realtek/rtl9300/librtl9300.o
                0x0000000083f6a118                dal_longan_port_isolation_set
 .text.dal_longan_port_isolation_add
                0x0000000083f6a2c0      0x160 board/Realtek/rtl9300/librtl9300.o
                0x0000000083f6a2c0                dal_longan_port_isolation_add
 .text.dal_longan_port_isolation_del
                0x0000000083f6a420      0x164 board/Realtek/rtl9300/librtl9300.o
                0x0000000083f6a420                dal_longan_port_isolation_del
 .text.dal_longan_port_isolationExt_set
                0x0000000083f6a584      0x17c board/Realtek/rtl9300/librtl9300.o
                0x0000000083f6a584                dal_longan_port_isolationExt_set
 .text.dal_longan_port_adminEnable_set
                0x0000000083f6a700      0x48c board/Realtek/rtl9300/librtl9300.o
                0x0000000083f6a700                dal_longan_port_adminEnable_set
 .text.dal_longan_port_flowCtrlEnable_get
                0x0000000083f6ab8c      0x120 board/Realtek/rtl9300/librtl9300.o
                0x0000000083f6ab8c                dal_longan_port_flowCtrlEnable_get
 .text.dal_longan_port_fiberUnidirEnable_set
                0x0000000083f6acac      0x2a8 board/Realtek/rtl9300/librtl9300.o
                0x0000000083f6acac                dal_longan_port_fiberUnidirEnable_set
 .text.dal_longan_port_miscCtrl_get
                0x0000000083f6af54      0x144 board/Realtek/rtl9300/librtl9300.o
                0x0000000083f6af54                dal_longan_port_miscCtrl_get
 .text.dal_longan_port_miscCtrl_set
                0x0000000083f6b098      0x13c board/Realtek/rtl9300/librtl9300.o
                0x0000000083f6b098                dal_longan_port_miscCtrl_set
 .text.dal_longan_port_link_get
                0x0000000083f6b1d4      0x17c board/Realtek/rtl9300/librtl9300.o
                0x0000000083f6b1d4                dal_longan_port_link_get
 .text.dal_longan_port_speedDuplex_get
                0x0000000083f6b350      0x290 board/Realtek/rtl9300/librtl9300.o
                0x0000000083f6b350                dal_longan_port_speedDuplex_get
 .text.dal_longan_port_flowctrl_get
                0x0000000083f6b5e0      0x220 board/Realtek/rtl9300/librtl9300.o
                0x0000000083f6b5e0                dal_longan_port_flowctrl_get
 .text.dal_longan_portMapper_init
                0x0000000083f6b800      0x1f4 board/Realtek/rtl9300/librtl9300.o
                0x0000000083f6b800                dal_longan_portMapper_init
 .text.dal_longan_port_smiMacType_set
                0x0000000083f6b9f4       0xa0 board/Realtek/rtl9300/librtl9300.o
                0x0000000083f6b9f4                dal_longan_port_smiMacType_set
 .text.dal_longan_port_phySds_set
                0x0000000083f6ba94      0x258 board/Realtek/rtl9300/librtl9300.o
                0x0000000083f6ba94                dal_longan_port_phySds_set
 .text.dal_longan_port_cpuPortId_set
                0x0000000083f6bcec      0x110 board/Realtek/rtl9300/librtl9300.o
                0x0000000083f6bcec                dal_longan_port_cpuPortId_set
 .text.dal_longan_port_init
                0x0000000083f6bdfc      0x228 board/Realtek/rtl9300/librtl9300.o
                0x0000000083f6bdfc                dal_longan_port_init
 .text._dal_longan_port_macForceFc_set
                0x0000000083f6c024       0xe8 board/Realtek/rtl9300/librtl9300.o
                0x0000000083f6c024                _dal_longan_port_macForceFc_set
 .text.dal_longan_port_flowCtrlEnable_set
                0x0000000083f6c10c      0x220 board/Realtek/rtl9300/librtl9300.o
                0x0000000083f6c10c                dal_longan_port_flowCtrlEnable_set
 .text.dal_longan_port_phyAutoNegoEnable_set
                0x0000000083f6c32c      0x184 board/Realtek/rtl9300/librtl9300.o
                0x0000000083f6c32c                dal_longan_port_phyAutoNegoEnable_set
 .text.dal_longan_port_phyForceModeAbility_set
                0x0000000083f6c4b0      0x12c board/Realtek/rtl9300/librtl9300.o
                0x0000000083f6c4b0                dal_longan_port_phyForceModeAbility_set
 .text.dal_longan_port_sem_lock
                0x0000000083f6c5dc       0x4c board/Realtek/rtl9300/librtl9300.o
                0x0000000083f6c5dc                dal_longan_port_sem_lock
 .text.dal_longan_port_sem_unlock
                0x0000000083f6c628       0x48 board/Realtek/rtl9300/librtl9300.o
                0x0000000083f6c628                dal_longan_port_sem_unlock
 .text._dal_longan_l2_entryToHashKey
                0x0000000083f6c670      0x12c board/Realtek/rtl9300/librtl9300.o
 .text._dal_longan_l2_setL2Entry
                0x0000000083f6c79c      0x400 board/Realtek/rtl9300/librtl9300.o
 .text.dal_longan_l2_agingTime_get
                0x0000000083f6cb9c      0x1b8 board/Realtek/rtl9300/librtl9300.o
                0x0000000083f6cb9c                dal_longan_l2_agingTime_get
 .text.dal_longan_l2_bucketHashAlgo_get
                0x0000000083f6cd54      0x12c board/Realtek/rtl9300/librtl9300.o
                0x0000000083f6cd54                dal_longan_l2_bucketHashAlgo_get
 .text.dal_longan_l2_hashAlgo_get
                0x0000000083f6ce80       0x10 board/Realtek/rtl9300/librtl9300.o
                0x0000000083f6ce80                dal_longan_l2_hashAlgo_get
 .text.dal_longan_l2_bucketHashAlgo_set
                0x0000000083f6ce90      0x178 board/Realtek/rtl9300/librtl9300.o
                0x0000000083f6ce90                dal_longan_l2_bucketHashAlgo_set
 .text.dal_longan_l2_fidLimitLearningEntry_set
                0x0000000083f6d008      0x2d8 board/Realtek/rtl9300/librtl9300.o
                0x0000000083f6d008                dal_longan_l2_fidLimitLearningEntry_set
 .text.dal_longan_l2_fidLearningCnt_reset
                0x0000000083f6d2e0      0x124 board/Realtek/rtl9300/librtl9300.o
                0x0000000083f6d2e0                dal_longan_l2_fidLearningCnt_reset
 .text.dal_longan_l2_status_get
                0x0000000083f6d404      0x168 board/Realtek/rtl9300/librtl9300.o
                0x0000000083f6d404                dal_longan_l2_status_get
 .text.dal_longan_l2_hashIdx_get
                0x0000000083f6d56c      0x13c board/Realtek/rtl9300/librtl9300.o
                0x0000000083f6d56c                dal_longan_l2_hashIdx_get
 .text.dal_longan_l2_flushLinkDownPortAddrEnable_get
                0x0000000083f6d6a8      0x108 board/Realtek/rtl9300/librtl9300.o
                0x0000000083f6d6a8                dal_longan_l2_flushLinkDownPortAddrEnable_get
 .text.dal_longan_l2_learningFullAction_get
                0x0000000083f6d7b0      0x158 board/Realtek/rtl9300/librtl9300.o
                0x0000000083f6d7b0                dal_longan_l2_learningFullAction_get
 .text.dal_longan_l2_lookupMissFloodPortMask_get
                0x0000000083f6d908      0x138 board/Realtek/rtl9300/librtl9300.o
                0x0000000083f6d908                dal_longan_l2_lookupMissFloodPortMask_get
 .text.dal_longan_l2_exceptionAddrAction_get
                0x0000000083f6da40      0x160 board/Realtek/rtl9300/librtl9300.o
                0x0000000083f6da40                dal_longan_l2_exceptionAddrAction_get
 .text.dal_longan_l2_zeroSALearningEnable_get
                0x0000000083f6dba0      0x108 board/Realtek/rtl9300/librtl9300.o
                0x0000000083f6dba0                dal_longan_l2_zeroSALearningEnable_get
 .text.dal_longan_l2_stkLearningEnable_get
                0x0000000083f6dca8      0x108 board/Realtek/rtl9300/librtl9300.o
                0x0000000083f6dca8                dal_longan_l2_stkLearningEnable_get
 .text.dal_longan_l2_stkKeepUcastEntryValid_get
                0x0000000083f6ddb0      0x108 board/Realtek/rtl9300/librtl9300.o
                0x0000000083f6ddb0                dal_longan_l2_stkKeepUcastEntryValid_get
 .text.dal_longan_l2_flushLinkDownPortAddrEnable_set
                0x0000000083f6deb8      0x100 board/Realtek/rtl9300/librtl9300.o
                0x0000000083f6deb8                dal_longan_l2_flushLinkDownPortAddrEnable_set
 .text.dal_longan_l2_ucastAddr_flush
                0x0000000083f6dfb8      0x618 board/Realtek/rtl9300/librtl9300.o
                0x0000000083f6dfb8                dal_longan_l2_ucastAddr_flush
 .text.dal_longan_l2_hashAlgo_set
                0x0000000083f6e5d0       0x58 board/Realtek/rtl9300/librtl9300.o
                0x0000000083f6e5d0                dal_longan_l2_hashAlgo_set
 .text.dal_longan_l2_learningFullAction_set
                0x0000000083f6e628      0x148 board/Realtek/rtl9300/librtl9300.o
                0x0000000083f6e628                dal_longan_l2_learningFullAction_set
 .text.dal_longan_l2_exceptionAddrAction_set
                0x0000000083f6e770      0x158 board/Realtek/rtl9300/librtl9300.o
                0x0000000083f6e770                dal_longan_l2_exceptionAddrAction_set
 .text.dal_longan_l2_zeroSALearningEnable_set
                0x0000000083f6e8c8      0x100 board/Realtek/rtl9300/librtl9300.o
                0x0000000083f6e8c8                dal_longan_l2_zeroSALearningEnable_set
 .text.dal_longan_l2_stkLearningEnable_set
                0x0000000083f6e9c8      0x100 board/Realtek/rtl9300/librtl9300.o
                0x0000000083f6e9c8                dal_longan_l2_stkLearningEnable_set
 .text.dal_longan_l2_stkKeepUcastEntryValid_set
                0x0000000083f6eac8      0x100 board/Realtek/rtl9300/librtl9300.o
                0x0000000083f6eac8                dal_longan_l2_stkKeepUcastEntryValid_set
 .text.dal_longan_l2_macLearningCnt_get
                0x0000000083f6ebc8      0x280 board/Realtek/rtl9300/librtl9300.o
                0x0000000083f6ebc8                dal_longan_l2_macLearningCnt_get
 .text.dal_longan_l2_limitLearningNum_get
                0x0000000083f6ee48      0x2f4 board/Realtek/rtl9300/librtl9300.o
                0x0000000083f6ee48                dal_longan_l2_limitLearningNum_get
 .text.dal_longan_l2_limitLearningAction_get
                0x0000000083f6f13c      0x290 board/Realtek/rtl9300/librtl9300.o
                0x0000000083f6f13c                dal_longan_l2_limitLearningAction_get
 .text.dal_longan_l2_fidLimitLearningEntry_get
                0x0000000083f6f3cc      0x240 board/Realtek/rtl9300/librtl9300.o
                0x0000000083f6f3cc                dal_longan_l2_fidLimitLearningEntry_get
 .text.dal_longan_l2_portAgingEnable_get
                0x0000000083f6f60c      0x168 board/Realtek/rtl9300/librtl9300.o
                0x0000000083f6f60c                dal_longan_l2_portAgingEnable_get
 .text.dal_longan_l2_trkAgingEnable_get
                0x0000000083f6f774      0x150 board/Realtek/rtl9300/librtl9300.o
                0x0000000083f6f774                dal_longan_l2_trkAgingEnable_get
 .text.dal_longan_l2_portMoveAction_get
                0x0000000083f6f8c4      0x220 board/Realtek/rtl9300/librtl9300.o
                0x0000000083f6f8c4                dal_longan_l2_portMoveAction_get
 .text.dal_longan_l2_portMoveLearn_get
                0x0000000083f6fae4      0x1e4 board/Realtek/rtl9300/librtl9300.o
                0x0000000083f6fae4                dal_longan_l2_portMoveLearn_get
 .text.dal_longan_l2_portUcastLookupMissAction_get
                0x0000000083f6fcc8      0x1ac board/Realtek/rtl9300/librtl9300.o
                0x0000000083f6fcc8                dal_longan_l2_portUcastLookupMissAction_get
 .text.dal_longan_l2_portLookupMissAction_get
                0x0000000083f6fe74       0x20 board/Realtek/rtl9300/librtl9300.o
                0x0000000083f6fe74                dal_longan_l2_portLookupMissAction_get
 .text.dal_longan_l2_srcPortEgrFilterMask_get
                0x0000000083f6fe94      0x1d8 board/Realtek/rtl9300/librtl9300.o
                0x0000000083f6fe94                dal_longan_l2_srcPortEgrFilterMask_get
 .text.dal_longan_l2_portDynamicPortMoveForbidEnable_get
                0x0000000083f7006c      0x168 board/Realtek/rtl9300/librtl9300.o
                0x0000000083f7006c                dal_longan_l2_portDynamicPortMoveForbidEnable_get
 .text.dal_longan_l2_trkDynamicPortMoveForbidEnable_get
                0x0000000083f701d4      0x150 board/Realtek/rtl9300/librtl9300.o
                0x0000000083f701d4                dal_longan_l2_trkDynamicPortMoveForbidEnable_get
 .text.dal_longan_l2_portMacFilterEnable_get
                0x0000000083f70324      0x18c board/Realtek/rtl9300/librtl9300.o
                0x0000000083f70324                dal_longan_l2_portMacFilterEnable_get
 .text.dal_longan_l2_portCtrl_get
                0x0000000083f704b0      0x18c board/Realtek/rtl9300/librtl9300.o
                0x0000000083f704b0                dal_longan_l2_portCtrl_get
 .text.dal_longan_l2_limitLearningNum_set
                0x0000000083f7063c      0x394 board/Realtek/rtl9300/librtl9300.o
                0x0000000083f7063c                dal_longan_l2_limitLearningNum_set
 .text.dal_longan_l2_limitLearningAction_set
                0x0000000083f709d0      0x2ac board/Realtek/rtl9300/librtl9300.o
                0x0000000083f709d0                dal_longan_l2_limitLearningAction_set
 .text.dal_longan_l2_portAgingEnable_set
                0x0000000083f70c7c      0x160 board/Realtek/rtl9300/librtl9300.o
                0x0000000083f70c7c                dal_longan_l2_portAgingEnable_set
 .text.dal_longan_l2_trkAgingEnable_set
                0x0000000083f70ddc      0x148 board/Realtek/rtl9300/librtl9300.o
                0x0000000083f70ddc                dal_longan_l2_trkAgingEnable_set
 .text.dal_longan_l2_portMoveAction_set
                0x0000000083f70f24      0x224 board/Realtek/rtl9300/librtl9300.o
                0x0000000083f70f24                dal_longan_l2_portMoveAction_set
 .text.dal_longan_l2_portMoveLearn_set
                0x0000000083f71148      0x1cc board/Realtek/rtl9300/librtl9300.o
                0x0000000083f71148                dal_longan_l2_portMoveLearn_set
 .text.dal_longan_l2_portUcastLookupMissAction_set
                0x0000000083f71314      0x1a4 board/Realtek/rtl9300/librtl9300.o
                0x0000000083f71314                dal_longan_l2_portUcastLookupMissAction_set
 .text.dal_longan_l2_portLookupMissAction_set
                0x0000000083f714b8       0x20 board/Realtek/rtl9300/librtl9300.o
                0x0000000083f714b8                dal_longan_l2_portLookupMissAction_set
 .text.dal_longan_l2_portDynamicPortMoveForbidEnable_set
                0x0000000083f714d8      0x160 board/Realtek/rtl9300/librtl9300.o
                0x0000000083f714d8                dal_longan_l2_portDynamicPortMoveForbidEnable_set
 .text.dal_longan_l2_trkDynamicPortMoveForbidEnable_set
                0x0000000083f71638      0x148 board/Realtek/rtl9300/librtl9300.o
                0x0000000083f71638                dal_longan_l2_trkDynamicPortMoveForbidEnable_set
 .text.dal_longan_l2_portMacFilterEnable_set
                0x0000000083f71780      0x180 board/Realtek/rtl9300/librtl9300.o
                0x0000000083f71780                dal_longan_l2_portMacFilterEnable_set
 .text.dal_longan_l2_portCtrl_set
                0x0000000083f71900      0x180 board/Realtek/rtl9300/librtl9300.o
                0x0000000083f71900                dal_longan_l2_portCtrl_set
 .text.dal_longan_l2_addr_init
                0x0000000083f71a80       0xb8 board/Realtek/rtl9300/librtl9300.o
                0x0000000083f71a80                dal_longan_l2_addr_init
 .text.dal_longan_l2_mcastAddr_init
                0x0000000083f71b38       0xb0 board/Realtek/rtl9300/librtl9300.o
                0x0000000083f71b38                dal_longan_l2_mcastAddr_init
 .text._dal_longan_l2_compareEntry
                0x0000000083f71be8       0x7c board/Realtek/rtl9300/librtl9300.o
 .text.dal_longan_l2_lookupMissFloodPortMask_set
                0x0000000083f71c64      0x158 board/Realtek/rtl9300/librtl9300.o
                0x0000000083f71c64                dal_longan_l2_lookupMissFloodPortMask_set
 .text.dal_longan_l2_init
                0x0000000083f71dbc      0x508 board/Realtek/rtl9300/librtl9300.o
                0x0000000083f71dbc                dal_longan_l2_init
 .text.dal_longan_l2_lookupMissFloodPortMask_add
                0x0000000083f722c4       0xf8 board/Realtek/rtl9300/librtl9300.o
                0x0000000083f722c4                dal_longan_l2_lookupMissFloodPortMask_add
 .text.dal_longan_l2_lookupMissFloodPortMask_del
                0x0000000083f723bc       0xfc board/Realtek/rtl9300/librtl9300.o
                0x0000000083f723bc                dal_longan_l2_lookupMissFloodPortMask_del
 .text.dal_longan_l2_srcPortEgrFilterMask_set
                0x0000000083f724b8      0x1d0 board/Realtek/rtl9300/librtl9300.o
                0x0000000083f724b8                dal_longan_l2_srcPortEgrFilterMask_set
 .text.dal_longan_l2_srcPortEgrFilterMask_add
                0x0000000083f72688      0x128 board/Realtek/rtl9300/librtl9300.o
                0x0000000083f72688                dal_longan_l2_srcPortEgrFilterMask_add
 .text.dal_longan_l2_srcPortEgrFilterMask_del
                0x0000000083f727b0      0x12c board/Realtek/rtl9300/librtl9300.o
                0x0000000083f727b0                dal_longan_l2_srcPortEgrFilterMask_del
 .text._dal_longan_l2_mcastFwdIndex_alloc
                0x0000000083f728dc      0x170 board/Realtek/rtl9300/librtl9300.o
                0x0000000083f728dc                _dal_longan_l2_mcastFwdIndex_alloc
 .text.dal_longan_l2_mcastFwdIndex_alloc
                0x0000000083f72a4c      0x114 board/Realtek/rtl9300/librtl9300.o
                0x0000000083f72a4c                dal_longan_l2_mcastFwdIndex_alloc
 .text._dal_longan_l2_mcastFwdPortmaskEntry_get
                0x0000000083f72b60       0x7c board/Realtek/rtl9300/librtl9300.o
                0x0000000083f72b60                _dal_longan_l2_mcastFwdPortmaskEntry_get
 .text.dal_longan_l2_mcastFwdPortmaskEntry_get
                0x0000000083f72bdc      0x130 board/Realtek/rtl9300/librtl9300.o
                0x0000000083f72bdc                dal_longan_l2_mcastFwdPortmaskEntry_get
 .text._dal_longan_l2_mcastFwdPortmaskEntry_set
                0x0000000083f72d0c       0x88 board/Realtek/rtl9300/librtl9300.o
                0x0000000083f72d0c                _dal_longan_l2_mcastFwdPortmaskEntry_set
 .text._dal_longan_l2_mcastFwdIndex_free
                0x0000000083f72d94      0x160 board/Realtek/rtl9300/librtl9300.o
                0x0000000083f72d94                _dal_longan_l2_mcastFwdIndex_free
 .text.dal_longan_l2_mcastFwdIndex_free
                0x0000000083f72ef4      0x10c board/Realtek/rtl9300/librtl9300.o
                0x0000000083f72ef4                dal_longan_l2_mcastFwdIndex_free
 .text._dal_longan_l2_addr_delByMac
                0x0000000083f73000      0x69c board/Realtek/rtl9300/librtl9300.o
 .text.dal_longan_l2_addr_delByMac
                0x0000000083f7369c      0x1a4 board/Realtek/rtl9300/librtl9300.o
                0x0000000083f7369c                dal_longan_l2_addr_delByMac
 .text.dal_longan_l2_mcastFwdPortmaskEntry_set
                0x0000000083f73840      0x130 board/Realtek/rtl9300/librtl9300.o
                0x0000000083f73840                dal_longan_l2_mcastFwdPortmaskEntry_set
 .text._dal_longan_l2_getL2Entry
                0x0000000083f73970      0x3c0 board/Realtek/rtl9300/librtl9300.o
                0x0000000083f73970                _dal_longan_l2_getL2Entry
 .text._dal_longan_l2_getExistOrFreeL2Entry
                0x0000000083f73d30      0x3b0 board/Realtek/rtl9300/librtl9300.o
 .text.dal_longan_l2_addr_del
                0x0000000083f740e0      0x190 board/Realtek/rtl9300/librtl9300.o
                0x0000000083f740e0                dal_longan_l2_addr_del
 .text.dal_longan_l2_addr_get
                0x0000000083f74270      0x280 board/Realtek/rtl9300/librtl9300.o
                0x0000000083f74270                dal_longan_l2_addr_get
 .text.dal_longan_l2_addr_set
                0x0000000083f744f0      0x678 board/Realtek/rtl9300/librtl9300.o
                0x0000000083f744f0                dal_longan_l2_addr_set
 .text.dal_longan_l2_mcastAddr_del
                0x0000000083f74b68      0x19c board/Realtek/rtl9300/librtl9300.o
                0x0000000083f74b68                dal_longan_l2_mcastAddr_del
 .text.dal_longan_l2_mcastAddr_get
                0x0000000083f74d04      0x1f4 board/Realtek/rtl9300/librtl9300.o
                0x0000000083f74d04                dal_longan_l2_mcastAddr_get
 .text.dal_longan_l2_mcastAddr_set
                0x0000000083f74ef8      0x2d4 board/Realtek/rtl9300/librtl9300.o
                0x0000000083f74ef8                dal_longan_l2_mcastAddr_set
 .text.dal_longan_l2_cpuMacAddr_add
                0x0000000083f751cc      0x1e8 board/Realtek/rtl9300/librtl9300.o
                0x0000000083f751cc                dal_longan_l2_cpuMacAddr_add
 .text.dal_longan_l2_cpuMacAddr_del
                0x0000000083f753b4      0x148 board/Realtek/rtl9300/librtl9300.o
                0x0000000083f753b4                dal_longan_l2_cpuMacAddr_del
 .text._dal_longan_l2_getFirstDynamicEntry
                0x0000000083f754fc      0x29c board/Realtek/rtl9300/librtl9300.o
 .text.dal_longan_l2_addr_add
                0x0000000083f75798      0x788 board/Realtek/rtl9300/librtl9300.o
                0x0000000083f75798                dal_longan_l2_addr_add
 .text.dal_longan_l2_mcastAddr_addByIndex
                0x0000000083f75f20      0x480 board/Realtek/rtl9300/librtl9300.o
                0x0000000083f75f20                dal_longan_l2_mcastAddr_addByIndex
 .text.dal_longan_l2_mcastAddr_add
                0x0000000083f763a0       0x38 board/Realtek/rtl9300/librtl9300.o
                0x0000000083f763a0                dal_longan_l2_mcastAddr_add
 .text.dal_longan_l2_addr_delAll
                0x0000000083f763d8      0x320 board/Realtek/rtl9300/librtl9300.o
                0x0000000083f763d8                dal_longan_l2_addr_delAll
 .text.dal_longan_l2_addrEntry_get
                0x0000000083f766f8      0x3e8 board/Realtek/rtl9300/librtl9300.o
                0x0000000083f766f8                dal_longan_l2_addrEntry_get
 .text.dal_longan_l2_entryCnt_get
                0x0000000083f76ae0      0x258 board/Realtek/rtl9300/librtl9300.o
                0x0000000083f76ae0                dal_longan_l2_entryCnt_get
 .text.dal_longan_l2_conflictAddr_get
                0x0000000083f76d38      0x654 board/Realtek/rtl9300/librtl9300.o
                0x0000000083f76d38                dal_longan_l2_conflictAddr_get
 .text.dal_longan_l2_hwNextValidAddr_get
                0x0000000083f7738c      0x600 board/Realtek/rtl9300/librtl9300.o
                0x0000000083f7738c                dal_longan_l2_hwNextValidAddr_get
 .text.dal_longan_l2_nextValidAddr_get
                0x0000000083f7798c       0xd4 board/Realtek/rtl9300/librtl9300.o
                0x0000000083f7798c                dal_longan_l2_nextValidAddr_get
 .text.dal_longan_l2_nextValidMcastAddr_get
                0x0000000083f77a60       0xd0 board/Realtek/rtl9300/librtl9300.o
                0x0000000083f77a60                dal_longan_l2_nextValidMcastAddr_get
 .text.dal_longan_l2Mapper_init
                0x0000000083f77b30      0x404 board/Realtek/rtl9300/librtl9300.o
                0x0000000083f77b30                dal_longan_l2Mapper_init
 .text._dal_longan_l2_agingTime_set
                0x0000000083f77f34      0x294 board/Realtek/rtl9300/librtl9300.o
                0x0000000083f77f34                _dal_longan_l2_agingTime_set
 .text.dal_longan_l2_agingTime_set
                0x0000000083f781c8       0x40 board/Realtek/rtl9300/librtl9300.o
                0x0000000083f781c8                dal_longan_l2_agingTime_set
 .text._dal_longan_l2_portNewMacOp_get
                0x0000000083f78208       0xc0 board/Realtek/rtl9300/librtl9300.o
                0x0000000083f78208                _dal_longan_l2_portNewMacOp_get
 .text.dal_longan_l2_portNewMacOp_get
                0x0000000083f782c8      0x1f8 board/Realtek/rtl9300/librtl9300.o
                0x0000000083f782c8                dal_longan_l2_portNewMacOp_get
 .text._dal_longan_l2_portNewMacOp_set
                0x0000000083f784c0      0x1fc board/Realtek/rtl9300/librtl9300.o
                0x0000000083f784c0                _dal_longan_l2_portNewMacOp_set
 .text.dal_longan_l2_portNewMacOp_set
                0x0000000083f786bc      0x1cc board/Realtek/rtl9300/librtl9300.o
                0x0000000083f786bc                dal_longan_l2_portNewMacOp_set
 .text.dal_longan_flowctrl_init
                0x0000000083f78888       0x90 board/Realtek/rtl9300/librtl9300.o
                0x0000000083f78888                dal_longan_flowctrl_init
 .text.dal_longan_stack_devId_get
                0x0000000083f78918      0x104 board/Realtek/rtl9300/librtl9300.o
                0x0000000083f78918                dal_longan_stack_devId_get
 .text.dal_longan_stack_masterDevId_get
                0x0000000083f78a1c      0x104 board/Realtek/rtl9300/librtl9300.o
                0x0000000083f78a1c                dal_longan_stack_masterDevId_get
 .text.dal_longan_stack_loopGuard_get
                0x0000000083f78b20      0x10c board/Realtek/rtl9300/librtl9300.o
                0x0000000083f78b20                dal_longan_stack_loopGuard_get
 .text.dal_longan_stack_port_get
                0x0000000083f78c2c       0xc0 board/Realtek/rtl9300/librtl9300.o
                0x0000000083f78c2c                dal_longan_stack_port_get
 .text.dal_longan_stack_devId_set
                0x0000000083f78cec      0x154 board/Realtek/rtl9300/librtl9300.o
                0x0000000083f78cec                dal_longan_stack_devId_set
 .text.dal_longan_stack_masterDevId_set
                0x0000000083f78e40      0x124 board/Realtek/rtl9300/librtl9300.o
                0x0000000083f78e40                dal_longan_stack_masterDevId_set
 .text.dal_longan_stack_loopGuard_set
                0x0000000083f78f64      0x104 board/Realtek/rtl9300/librtl9300.o
                0x0000000083f78f64                dal_longan_stack_loopGuard_set
 .text.dal_longan_stack_shrink_set
                0x0000000083f79068       0xfc board/Realtek/rtl9300/librtl9300.o
                0x0000000083f79068                dal_longan_stack_shrink_set
 .text.dal_longan_stack_devPortMap_set
                0x0000000083f79164      0x174 board/Realtek/rtl9300/librtl9300.o
                0x0000000083f79164                dal_longan_stack_devPortMap_set
 .text.dal_longan_stack_nonUcastBlockPort_set
                0x0000000083f792d8      0x174 board/Realtek/rtl9300/librtl9300.o
                0x0000000083f792d8                dal_longan_stack_nonUcastBlockPort_set
 .text.dal_longan_stack_shrink_get
                0x0000000083f7944c      0x114 board/Realtek/rtl9300/librtl9300.o
                0x0000000083f7944c                dal_longan_stack_shrink_get
 .text.dal_longan_stack_port_set
                0x0000000083f79560      0x360 board/Realtek/rtl9300/librtl9300.o
                0x0000000083f79560                dal_longan_stack_port_set
 .text.dal_longan_stack_init
                0x0000000083f798c0      0x2b0 board/Realtek/rtl9300/librtl9300.o
                0x0000000083f798c0                dal_longan_stack_init
 .text.dal_longan_stack_cascadeMode_init
                0x0000000083f79b70      0x5c4 board/Realtek/rtl9300/librtl9300.o
                0x0000000083f79b70                dal_longan_stack_cascadeMode_init
 .text.dal_longan_stack_devPortMap_get
                0x0000000083f7a134      0x178 board/Realtek/rtl9300/librtl9300.o
                0x0000000083f7a134                dal_longan_stack_devPortMap_get
 .text.dal_longan_stack_nonUcastBlockPort_get
                0x0000000083f7a2ac      0x180 board/Realtek/rtl9300/librtl9300.o
                0x0000000083f7a2ac                dal_longan_stack_nonUcastBlockPort_get
 .text.dal_longan_stackMapper_init
                0x0000000083f7a42c       0xc8 board/Realtek/rtl9300/librtl9300.o
                0x0000000083f7a42c                dal_longan_stackMapper_init
 .text._dal_longan_stack_port_del
                0x0000000083f7a4f4      0x1a0 board/Realtek/rtl9300/librtl9300.o
                0x0000000083f7a4f4                _dal_longan_stack_port_del
 .text._dal_longan_stack_port_add
                0x0000000083f7a694      0x19c board/Realtek/rtl9300/librtl9300.o
                0x0000000083f7a694                _dal_longan_stack_port_add
 .text.dal_longan_trunk_srcPortMap_get
                0x0000000083f7a830      0x1b0 board/Realtek/rtl9300/librtl9300.o
                0x0000000083f7a830                dal_longan_trunk_srcPortMap_get
 .text.dal_longan_trunk_srcPortMap_set
                0x0000000083f7a9e0      0x2a4 board/Realtek/rtl9300/librtl9300.o
                0x0000000083f7a9e0                dal_longan_trunk_srcPortMap_set
 .text.dal_longan_trunk_mode_get
                0x0000000083f7ac84      0x104 board/Realtek/rtl9300/librtl9300.o
                0x0000000083f7ac84                dal_longan_trunk_mode_get
 .text.dal_longan_trunk_distributionAlgorithmShiftGbl_get
                0x0000000083f7ad88      0x270 board/Realtek/rtl9300/librtl9300.o
                0x0000000083f7ad88                dal_longan_trunk_distributionAlgorithmShiftGbl_get
 .text.dal_longan_trunk_distributionAlgorithmShiftGbl_set
                0x0000000083f7aff8      0x390 board/Realtek/rtl9300/librtl9300.o
                0x0000000083f7aff8                dal_longan_trunk_distributionAlgorithmShiftGbl_set
 .text.dal_longan_trunk_trafficSeparateDivision_get
                0x0000000083f7b388      0x104 board/Realtek/rtl9300/librtl9300.o
                0x0000000083f7b388                dal_longan_trunk_trafficSeparateDivision_get
 .text.dal_longan_trunk_stkTrkHash_get
                0x0000000083f7b48c      0x104 board/Realtek/rtl9300/librtl9300.o
                0x0000000083f7b48c                dal_longan_trunk_stkTrkHash_get
 .text.dal_longan_trunk_stkTrkHash_set
                0x0000000083f7b590      0x108 board/Realtek/rtl9300/librtl9300.o
                0x0000000083f7b590                dal_longan_trunk_stkTrkHash_set
 .text.dal_longan_trunk_localFirst_get
                0x0000000083f7b698      0x100 board/Realtek/rtl9300/librtl9300.o
                0x0000000083f7b698                dal_longan_trunk_localFirst_get
 .text.dal_longan_trunk_localFirst_set
                0x0000000083f7b798      0x104 board/Realtek/rtl9300/librtl9300.o
                0x0000000083f7b798                dal_longan_trunk_localFirst_set
 .text.dal_longan_trunk_localFirstFailOver_get
                0x0000000083f7b89c      0x170 board/Realtek/rtl9300/librtl9300.o
                0x0000000083f7b89c                dal_longan_trunk_localFirstFailOver_get
 .text.dal_longan_trunk_localFirstFailOver_set
                0x0000000083f7ba0c      0x160 board/Realtek/rtl9300/librtl9300.o
                0x0000000083f7ba0c                dal_longan_trunk_localFirstFailOver_set
 .text.dal_longan_trunk_init
                0x0000000083f7bb6c      0x3d0 board/Realtek/rtl9300/librtl9300.o
                0x0000000083f7bb6c                dal_longan_trunk_init
 .text.dal_longan_trunk_distributionAlgorithmTypeBind_get
                0x0000000083f7bf3c      0x214 board/Realtek/rtl9300/librtl9300.o
                0x0000000083f7bf3c                dal_longan_trunk_distributionAlgorithmTypeBind_get
 .text.dal_longan_trunk_trafficSeparateEnable_get
                0x0000000083f7c150      0x21c board/Realtek/rtl9300/librtl9300.o
                0x0000000083f7c150                dal_longan_trunk_trafficSeparateEnable_get
 .text.dal_longan_trunk_egrPort_get
                0x0000000083f7c36c      0x498 board/Realtek/rtl9300/librtl9300.o
                0x0000000083f7c36c                dal_longan_trunk_egrPort_get
 .text.dal_longan_trunk_distributionAlgorithmTypeParam_get
                0x0000000083f7c804      0x170 board/Realtek/rtl9300/librtl9300.o
                0x0000000083f7c804                dal_longan_trunk_distributionAlgorithmTypeParam_get
 .text.dal_longan_trunk_localPort_get
                0x0000000083f7c974      0x1dc board/Realtek/rtl9300/librtl9300.o
                0x0000000083f7c974                dal_longan_trunk_localPort_get
 .text.dal_longan_trunk_port_get
                0x0000000083f7cb50       0x18 board/Realtek/rtl9300/librtl9300.o
                0x0000000083f7cb50                dal_longan_trunk_port_get
 .text.dal_longan_trunk_stkDistributionAlgorithmTypeBind_get
                0x0000000083f7cb68      0x19c board/Realtek/rtl9300/librtl9300.o
                0x0000000083f7cb68                dal_longan_trunk_stkDistributionAlgorithmTypeBind_get
 .text.dal_longan_trunk_distributionAlgorithmTypeParam_set
                0x0000000083f7cd04      0x184 board/Realtek/rtl9300/librtl9300.o
                0x0000000083f7cd04                dal_longan_trunk_distributionAlgorithmTypeParam_set
 .text.dal_longan_trunk_stkTrkPort_get
                0x0000000083f7ce88      0x174 board/Realtek/rtl9300/librtl9300.o
                0x0000000083f7ce88                dal_longan_trunk_stkTrkPort_get
 .text.dal_longan_trunk_stkTrkPort_set
                0x0000000083f7cffc      0x1b4 board/Realtek/rtl9300/librtl9300.o
                0x0000000083f7cffc                dal_longan_trunk_stkTrkPort_set
 .text.dal_longan_trunk_tbl_refresh
                0x0000000083f7d1b0      0x12c board/Realtek/rtl9300/librtl9300.o
                0x0000000083f7d1b0                dal_longan_trunk_tbl_refresh
 .text.dal_longan_trunk_mode_set
                0x0000000083f7d2dc      0x11c board/Realtek/rtl9300/librtl9300.o
                0x0000000083f7d2dc                dal_longan_trunk_mode_set
 .text.dal_longan_trunk_distributionAlgorithmTypeBind_set
                0x0000000083f7d3f8      0x268 board/Realtek/rtl9300/librtl9300.o
                0x0000000083f7d3f8                dal_longan_trunk_distributionAlgorithmTypeBind_set
 .text.dal_longan_trunk_trafficSeparateEnable_set
                0x0000000083f7d660      0x248 board/Realtek/rtl9300/librtl9300.o
                0x0000000083f7d660                dal_longan_trunk_trafficSeparateEnable_set
 .text.dal_longan_trunk_trafficSeparateDivision_set
                0x0000000083f7d8a8      0x110 board/Realtek/rtl9300/librtl9300.o
                0x0000000083f7d8a8                dal_longan_trunk_trafficSeparateDivision_set
 .text.dal_longan_trunk_localPort_set
                0x0000000083f7d9b8      0x72c board/Realtek/rtl9300/librtl9300.o
                0x0000000083f7d9b8                dal_longan_trunk_localPort_set
 .text.dal_longan_trunk_egrPort_set
                0x0000000083f7e0e4      0x5b4 board/Realtek/rtl9300/librtl9300.o
                0x0000000083f7e0e4                dal_longan_trunk_egrPort_set
 .text.dal_longan_trunk_port_set
                0x0000000083f7e698      0x430 board/Realtek/rtl9300/librtl9300.o
                0x0000000083f7e698                dal_longan_trunk_port_set
 .text.dal_longan_trunk_stkDistributionAlgorithmTypeBind_set
                0x0000000083f7eac8      0x1b0 board/Realtek/rtl9300/librtl9300.o
                0x0000000083f7eac8                dal_longan_trunk_stkDistributionAlgorithmTypeBind_set
 .text.dal_longan_trunkMapper_init
                0x0000000083f7ec78      0x17c board/Realtek/rtl9300/librtl9300.o
                0x0000000083f7ec78                dal_longan_trunkMapper_init
 .text.dal_longan_eee_portEnable_set
                0x0000000083f7edf4      0x2bc board/Realtek/rtl9300/librtl9300.o
                0x0000000083f7edf4                dal_longan_eee_portEnable_set
 .text.dal_longan_eee_init
                0x0000000083f7f0b0      0x124 board/Realtek/rtl9300/librtl9300.o
                0x0000000083f7f0b0                dal_longan_eee_init
 .text.dal_longan_sds_rxCaliConf_set
                0x0000000083f7f1d4       0xe0 board/Realtek/rtl9300/librtl9300.o
                0x0000000083f7f1d4                dal_longan_sds_rxCaliConf_set
 .text._dal_longan_sds_rxCali_TAP_Manual.part.18
                0x0000000083f7f2b4      0x3c4 board/Realtek/rtl9300/librtl9300.o
 .text.dal_longan_sds_reg_get
                0x0000000083f7f678       0x94 board/Realtek/rtl9300/librtl9300.o
                0x0000000083f7f678                dal_longan_sds_reg_get
 .text.dal_longan_sds_reg_set
                0x0000000083f7f70c       0x84 board/Realtek/rtl9300/librtl9300.o
                0x0000000083f7f70c                dal_longan_sds_reg_set
 .text.dal_longan_sds_field_read
                0x0000000083f7f790       0xbc board/Realtek/rtl9300/librtl9300.o
                0x0000000083f7f790                dal_longan_sds_field_read
 .text._dal_longan_sds_mode_get
                0x0000000083f7f84c      0x234 board/Realtek/rtl9300/librtl9300.o
 .text.dal_longan_sds_mode_get
                0x0000000083f7fa80      0x118 board/Realtek/rtl9300/librtl9300.o
                0x0000000083f7fa80                dal_longan_sds_mode_get
 .text.dal_longan_sds_field_write
                0x0000000083f7fb98       0xac board/Realtek/rtl9300/librtl9300.o
                0x0000000083f7fb98                dal_longan_sds_field_write
 .text.dal_longan_sds_rx_rst
                0x0000000083f7fc44      0x1ec board/Realtek/rtl9300/librtl9300.o
                0x0000000083f7fc44                dal_longan_sds_rx_rst
 .text.dal_longan_sds_xsg_field_read
                0x0000000083f7fe30       0xfc board/Realtek/rtl9300/librtl9300.o
                0x0000000083f7fe30                dal_longan_sds_xsg_field_read
 .text.dal_longan_sds_linkSts_get
                0x0000000083f7ff2c      0x314 board/Realtek/rtl9300/librtl9300.o
                0x0000000083f7ff2c                dal_longan_sds_linkSts_get
 .text.dal_longan_sds_xsg_field_write
                0x0000000083f80240       0xe8 board/Realtek/rtl9300/librtl9300.o
                0x0000000083f80240                dal_longan_sds_xsg_field_write
 .text.dal_longan_sds_symErr_clear
                0x0000000083f80328      0x48c board/Realtek/rtl9300/librtl9300.o
                0x0000000083f80328                dal_longan_sds_symErr_clear
 .text.dal_longan_sds_symErr_get
                0x0000000083f807b4      0x5a8 board/Realtek/rtl9300/librtl9300.o
                0x0000000083f807b4                dal_longan_sds_symErr_get
 .text.dal_longan_sds_clkRdy_get
                0x0000000083f80d5c      0x1a4 board/Realtek/rtl9300/librtl9300.o
                0x0000000083f80d5c                dal_longan_sds_clkRdy_get
 .text._dal_longan_sds_clk_wait
                0x0000000083f80f00       0xb0 board/Realtek/rtl9300/librtl9300.o
                0x0000000083f80f00                _dal_longan_sds_clk_wait
 .text._dal_longan_sds_clk_routine
                0x0000000083f80fb0      0x944 board/Realtek/rtl9300/librtl9300.o
                0x0000000083f80fb0                _dal_longan_sds_clk_routine
 .text.dal_longan_sds_clk_routine
                0x0000000083f818f4       0xbc board/Realtek/rtl9300/librtl9300.o
                0x0000000083f818f4                dal_longan_sds_clk_routine
 .text.dal_longan_sds_modeReg_set
                0x0000000083f819b0      0x258 board/Realtek/rtl9300/librtl9300.o
                0x0000000083f819b0                dal_longan_sds_modeReg_set
 .text._dal_longan_sds_10gSdsMode_force
                0x0000000083f81c08      0xa60 board/Realtek/rtl9300/librtl9300.o
                0x0000000083f81c08                _dal_longan_sds_10gSdsMode_force
 .text.dal_longan_sds_clk_inv
                0x0000000083f82668      0x168 board/Realtek/rtl9300/librtl9300.o
                0x0000000083f82668                dal_longan_sds_clk_inv
 .text.dal_longan_sds_linkFault_get
                0x0000000083f827d0      0x188 board/Realtek/rtl9300/librtl9300.o
                0x0000000083f827d0                dal_longan_sds_linkFault_get
 .text.dal_longan_sds_10gRxIdle_get
                0x0000000083f82958      0x1a4 board/Realtek/rtl9300/librtl9300.o
                0x0000000083f82958                dal_longan_sds_10gRxIdle_get
 .text.dal_longan_sds_linkFault_check
                0x0000000083f82afc      0x168 board/Realtek/rtl9300/librtl9300.o
                0x0000000083f82afc                dal_longan_sds_linkFault_check
 .text.dal_longan_sds_10gBerNotify_get
                0x0000000083f82c64      0x1a4 board/Realtek/rtl9300/librtl9300.o
                0x0000000083f82c64                dal_longan_sds_10gBerNotify_get
 .text._dal_longan_sds_10gRxIdleRdy_wait
                0x0000000083f82e08       0xa8 board/Realtek/rtl9300/librtl9300.o
                0x0000000083f82e08                _dal_longan_sds_10gRxIdleRdy_wait
 .text._dal_longan_sds_rxCali_foregroundOffsetCal_Read
                0x0000000083f82eb0      0x198 board/Realtek/rtl9300/librtl9300.o
                0x0000000083f82eb0                _dal_longan_sds_rxCali_foregroundOffsetCal_Read
 .text._dal_longan_sds_rxCali_DCVS_Manual
                0x0000000083f83048      0x3a8 board/Realtek/rtl9300/librtl9300.o
                0x0000000083f83048                _dal_longan_sds_rxCali_DCVS_Manual
 .text._dal_longan_sds_rxCali_DCVS_Read
                0x0000000083f833f0      0x54c board/Realtek/rtl9300/librtl9300.o
                0x0000000083f833f0                _dal_longan_sds_rxCali_DCVS_Read
 .text._dal_longan_sds_rxCali_LEQ_Manual
                0x0000000083f8393c       0xc4 board/Realtek/rtl9300/librtl9300.o
                0x0000000083f8393c                _dal_longan_sds_rxCali_LEQ_Manual
 .text.dal_longan_sds_leq_set
                0x0000000083f83a00      0x128 board/Realtek/rtl9300/librtl9300.o
                0x0000000083f83a00                dal_longan_sds_leq_set
 .text._dal_longan_sds_rxCali_LEQ_Offset_Manual
                0x0000000083f83b28       0x68 board/Realtek/rtl9300/librtl9300.o
                0x0000000083f83b28                _dal_longan_sds_rxCali_LEQ_Offset_Manual
 .text._dal_longan_sds_rxCali_gray_to_bin
                0x0000000083f83b90       0xbc board/Realtek/rtl9300/librtl9300.o
                0x0000000083f83b90                _dal_longan_sds_rxCali_gray_to_bin
 .text._dal_longan_sds_rxCali_LEQ_Read
                0x0000000083f83c4c      0x17c board/Realtek/rtl9300/librtl9300.o
                0x0000000083f83c4c                _dal_longan_sds_rxCali_LEQ_Read
 .text.dal_longan_sds_leq_get
                0x0000000083f83dc8      0x128 board/Realtek/rtl9300/librtl9300.o
                0x0000000083f83dc8                dal_longan_sds_leq_get
 .text._dal_longan_sds_rxCali_a_start_1d1
                0x0000000083f83ef0      0x8b8 board/Realtek/rtl9300/librtl9300.o
                0x0000000083f83ef0                _dal_longan_sds_rxCali_a_start_1d1
 .text._dal_longan_sds_rxCali_a_start_1d2d1
                0x0000000083f847a8       0xd8 board/Realtek/rtl9300/librtl9300.o
                0x0000000083f847a8                _dal_longan_sds_rxCali_a_start_1d2d1
 .text._dal_longan_sds_rxCali_a_start_1d2d2
                0x0000000083f84880       0xbc board/Realtek/rtl9300/librtl9300.o
                0x0000000083f84880                _dal_longan_sds_rxCali_a_start_1d2d2
 .text._dal_longan_sds_rxCali_a_start_1d2d3
                0x0000000083f8493c      0x158 board/Realtek/rtl9300/librtl9300.o
                0x0000000083f8493c                _dal_longan_sds_rxCali_a_start_1d2d3
 .text._dal_longan_sds_rxCali_a_start_1d2d6
                0x0000000083f84a94       0x84 board/Realtek/rtl9300/librtl9300.o
                0x0000000083f84a94                _dal_longan_sds_rxCali_a_start_1d2d6
 .text._dal_longan_sds_rxCali_a_start_1d2
                0x0000000083f84b18       0x68 board/Realtek/rtl9300/librtl9300.o
                0x0000000083f84b18                _dal_longan_sds_rxCali_a_start_1d2
 .text._dal_longan_sds_rxCali_a_start_1d3d1
                0x0000000083f84b80      0x10c board/Realtek/rtl9300/librtl9300.o
                0x0000000083f84b80                _dal_longan_sds_rxCali_a_start_1d3d1
 .text._dal_longan_sds_rxCali_a_start_1d3d2
                0x0000000083f84c8c      0x26c board/Realtek/rtl9300/librtl9300.o
                0x0000000083f84c8c                _dal_longan_sds_rxCali_a_start_1d3d2
 .text._dal_longan_sds_rxCali_a_start_1d3
                0x0000000083f84ef8       0x40 board/Realtek/rtl9300/librtl9300.o
                0x0000000083f84ef8                _dal_longan_sds_rxCali_a_start_1d3
 .text._dal_longan_sds_rxCali_a_start_1d5d1
                0x0000000083f84f38       0x98 board/Realtek/rtl9300/librtl9300.o
                0x0000000083f84f38                _dal_longan_sds_rxCali_a_start_1d5d1
 .text._dal_longan_sds_rxCali_a_start_1d5d2
                0x0000000083f84fd0      0x104 board/Realtek/rtl9300/librtl9300.o
                0x0000000083f84fd0                _dal_longan_sds_rxCali_a_start_1d5d2
 .text._dal_longan_sds_rxCali_a_start_1d5
                0x0000000083f850d4       0x58 board/Realtek/rtl9300/librtl9300.o
                0x0000000083f850d4                _dal_longan_sds_rxCali_a_start_1d5
 .text._dal_longan_sds_rxCali_a_startall
                0x0000000083f8512c       0x98 board/Realtek/rtl9300/librtl9300.o
                0x0000000083f8512c                _dal_longan_sds_rxCali_a_startall
 .text.dal_longan_sds_rxCaliStatus_clear
                0x0000000083f851c4      0x114 board/Realtek/rtl9300/librtl9300.o
                0x0000000083f851c4                dal_longan_sds_rxCaliStatus_clear
 .text.dal_longan_rxCaliProcessSts_get
                0x0000000083f852d8       0xe0 board/Realtek/rtl9300/librtl9300.o
                0x0000000083f852d8                dal_longan_rxCaliProcessSts_get
 .text.dal_longan_rxCaliProcessSts_set
                0x0000000083f853b8       0xdc board/Realtek/rtl9300/librtl9300.o
                0x0000000083f853b8                dal_longan_rxCaliProcessSts_set
 .text._dal_longan_sds_rxReCali_check
                0x0000000083f85494      0x19c board/Realtek/rtl9300/librtl9300.o
                0x0000000083f85494                _dal_longan_sds_rxReCali_check
 .text.dal_longan_sds_rxCali_start
                0x0000000083f85630      0x160 board/Realtek/rtl9300/librtl9300.o
                0x0000000083f85630                dal_longan_sds_rxCali_start
 .text.dal_longan_sds_rxCali
                0x0000000083f85790       0xe0 board/Realtek/rtl9300/librtl9300.o
                0x0000000083f85790                dal_longan_sds_rxCali
 .text.dal_longan_sds_rxCaliRegDefault_init
                0x0000000083f85870      0x168 board/Realtek/rtl9300/librtl9300.o
                0x0000000083f85870                dal_longan_sds_rxCaliRegDefault_init
 .text.dal_longan_sds_mode_set
                0x0000000083f859d8      0x2d0 board/Realtek/rtl9300/librtl9300.o
                0x0000000083f859d8                dal_longan_sds_mode_set
 .text.dal_longan_sds_rxCaliConf_cust
                0x0000000083f85ca8      0x120 board/Realtek/rtl9300/librtl9300.o
                0x0000000083f85ca8                dal_longan_sds_rxCaliConf_cust
 .text.dal_longan_sds_txParam_cust
                0x0000000083f85dc8      0x40c board/Realtek/rtl9300/librtl9300.o
                0x0000000083f85dc8                dal_longan_sds_txParam_cust
 .text.dal_longan_sds_txParam_config_init
                0x0000000083f861d4      0x430 board/Realtek/rtl9300/librtl9300.o
                0x0000000083f861d4                dal_longan_sds_txParam_config_init
 .text.dal_longan_sds_init
                0x0000000083f86604      0x37c board/Realtek/rtl9300/librtl9300.o
                0x0000000083f86604                dal_longan_sds_init
 .text.dal_longan_sds_fiberUnidirEnable_get
                0x0000000083f86980      0x1b4 board/Realtek/rtl9300/librtl9300.o
                0x0000000083f86980                dal_longan_sds_fiberUnidirEnable_get
 .text.dal_longan_sds_fiberUnidirEnable_set
                0x0000000083f86b34      0x19c board/Realtek/rtl9300/librtl9300.o
                0x0000000083f86b34                dal_longan_sds_fiberUnidirEnable_set
 .text.dal_longan_sds_macSds_set
                0x0000000083f86cd0      0x124 board/Realtek/rtl9300/librtl9300.o
                0x0000000083f86cd0                dal_longan_sds_macSds_set
 .text._rtl9300_serdes_reg_write
                0x0000000083f86df4       0xbc board/Realtek/rtl9300/librtl9300.o
 .text._rtl9300_mac_serdes_patch_set
                0x0000000083f86eb0      0x168 board/Realtek/rtl9300/librtl9300.o
 .text._dal_longan_sds_usxgmii_cfg_set
                0x0000000083f87018      0x3d4 board/Realtek/rtl9300/librtl9300.o
 .text._dal_longan_construct_phy_powerOnOff
                0x0000000083f873ec      0x174 board/Realtek/rtl9300/librtl9300.o
                0x0000000083f873ec                _dal_longan_construct_phy_powerOnOff
 .text._dal_longan_port_smiPollSel_set
                0x0000000083f87560       0x68 board/Realtek/rtl9300/librtl9300.o
                0x0000000083f87560                _dal_longan_port_smiPollSel_set
 .text.dal_longan_construct_default_init
                0x0000000083f875c8     0x1080 board/Realtek/rtl9300/librtl9300.o
                0x0000000083f875c8                dal_longan_construct_default_init
 .text.dal_longan_construct_phy_reset
                0x0000000083f88648        0x8 board/Realtek/rtl9300/librtl9300.o
                0x0000000083f88648                dal_longan_construct_phy_reset
 .text.dal_longan_construct_macConfig_init
                0x0000000083f88650      0x1d4 board/Realtek/rtl9300/librtl9300.o
                0x0000000083f88650                dal_longan_construct_macConfig_init
 .text.dal_longan_construct_pollingPhy_enable
                0x0000000083f88824       0xdc board/Realtek/rtl9300/librtl9300.o
                0x0000000083f88824                dal_longan_construct_pollingPhy_enable
 .text.dal_longan_construct_pollingPhy_disable
                0x0000000083f88900       0xe8 board/Realtek/rtl9300/librtl9300.o
                0x0000000083f88900                dal_longan_construct_pollingPhy_disable
 .text.dal_longan_construct_MacPollingPhy_init
                0x0000000083f889e8      0x3e8 board/Realtek/rtl9300/librtl9300.o
                0x0000000083f889e8                dal_longan_construct_MacPollingPhy_init
 .text.dal_longan_construct_serdes_off
                0x0000000083f88dd0       0x6c board/Realtek/rtl9300/librtl9300.o
                0x0000000083f88dd0                dal_longan_construct_serdes_off
 .text.dal_longan_construct_serdesMode_force
                0x0000000083f88e3c      0x6f4 board/Realtek/rtl9300/librtl9300.o
                0x0000000083f88e3c                dal_longan_construct_serdesMode_force
 .text.dal_longan_construct_serdesRxauiplus_initial
                0x0000000083f89530      0x1a8 board/Realtek/rtl9300/librtl9300.o
                0x0000000083f89530                dal_longan_construct_serdesRxauiplus_initial
 .text.dal_longan_construct_serdesRxauiplus_on
                0x0000000083f896d8      0x3c4 board/Realtek/rtl9300/librtl9300.o
                0x0000000083f896d8                dal_longan_construct_serdesRxauiplus_on
 .text.dal_longan_construct_serdes_on
                0x0000000083f89a9c      0x238 board/Realtek/rtl9300/librtl9300.o
                0x0000000083f89a9c                dal_longan_construct_serdes_on
 .text.dal_longan_construct_mac_default_10gmedia_fiber
                0x0000000083f89cd4      0x108 board/Realtek/rtl9300/librtl9300.o
                0x0000000083f89cd4                dal_longan_construct_mac_default_10gmedia_fiber
 .text.dal_longan_construct_phyConfig_init
                0x0000000083f89ddc       0x28 board/Realtek/rtl9300/librtl9300.o
                0x0000000083f89ddc                dal_longan_construct_phyConfig_init
 .text.dal_longan_construc_serdesConfig_cust
                0x0000000083f89e04      0x104 board/Realtek/rtl9300/librtl9300.o
                0x0000000083f89e04                dal_longan_construc_serdesConfig_cust
 .text.dal_longan_construct_serdesConfig_init
                0x0000000083f89f08      0x344 board/Realtek/rtl9300/librtl9300.o
                0x0000000083f89f08                dal_longan_construct_serdesConfig_init
 .text.dal_longan_construct_miscConfig_init
                0x0000000083f8a24c        0x8 board/Realtek/rtl9300/librtl9300.o
                0x0000000083f8a24c                dal_longan_construct_miscConfig_init
                0x0000000083f8a254                . = ALIGN (0x4)
 *(EXCLUDE_FILE(arch/otto40/cpu/mips34kc/libmips34kc.o) .data*)
 .data.init_sequence
                0x0000000083f8a254       0x1c arch/otto40/lib/libotto40.o
                0x0000000083f8a254                init_sequence
 .data.enable_message
                0x0000000083f8a270        0x4 arch/otto40/lib/libotto40.o
 .data.norsf_info
                0x0000000083f8a274       0x28 arch/otto40/lib/libotto40.o
                0x0000000083f8a274                norsf_info
 .data.cmn_cmd_info
                0x0000000083f8a29c       0x14 arch/otto40/lib/libotto40.o
                0x0000000083f8a29c                cmn_cmd_info
 .data.cmn_read_cmd
                0x0000000083f8a2b0        0xc arch/otto40/lib/libotto40.o
                0x0000000083f8a2b0                cmn_read_cmd
 .data.cmn_erase_cmds
                0x0000000083f8a2bc       0x30 arch/otto40/lib/libotto40.o
                0x0000000083f8a2bc                cmn_erase_cmds
 .data.norsf_mx25l51245f_info_4b_cmd
                0x0000000083f8a2ec       0x28 arch/otto40/lib/libotto40.o
                0x0000000083f8a2ec                norsf_mx25l51245f_info_4b_cmd
 .data.norsf_mx25l25635f_info_4b_cmd
                0x0000000083f8a314       0x28 arch/otto40/lib/libotto40.o
                0x0000000083f8a314                norsf_mx25l25635f_info_4b_cmd
 .data.norsf_mx25l12835f_info
                0x0000000083f8a33c       0x28 arch/otto40/lib/libotto40.o
                0x0000000083f8a33c                norsf_mx25l12835f_info
 .data.norsf_mx25l6435e_info
                0x0000000083f8a364       0x28 arch/otto40/lib/libotto40.o
                0x0000000083f8a364                norsf_mx25l6435e_info
 .data.mxic_cmd_info_4b_cmd
                0x0000000083f8a38c       0x14 arch/otto40/lib/libotto40.o
                0x0000000083f8a38c                mxic_cmd_info_4b_cmd
 .data.mxic_cmd_info_3b
                0x0000000083f8a3a0       0x14 arch/otto40/lib/libotto40.o
                0x0000000083f8a3a0                mxic_cmd_info_3b
 .data.mxic_read_cmd_4b_cmd
                0x0000000083f8a3b4        0xc arch/otto40/lib/libotto40.o
                0x0000000083f8a3b4                mxic_read_cmd_4b_cmd
 .data.mxic_read_cmd_3b
                0x0000000083f8a3c0        0xc arch/otto40/lib/libotto40.o
                0x0000000083f8a3c0                mxic_read_cmd_3b
 .data.mxic_erase_cmds_4b_cmd
                0x0000000083f8a3cc       0x30 arch/otto40/lib/libotto40.o
                0x0000000083f8a3cc                mxic_erase_cmds_4b_cmd
 .data.mxic_erase_cmds_3b
                0x0000000083f8a3fc       0x30 arch/otto40/lib/libotto40.o
                0x0000000083f8a3fc                mxic_erase_cmds_3b
 .data.norsf_fl256saif00_info_4b_cmd
                0x0000000083f8a42c       0x28 arch/otto40/lib/libotto40.o
                0x0000000083f8a42c                norsf_fl256saif00_info_4b_cmd
 .data.norsf_fl128saif00_info
                0x0000000083f8a454       0x28 arch/otto40/lib/libotto40.o
                0x0000000083f8a454                norsf_fl128saif00_info
 .data.spansion_cmd_info_4b_cmd
                0x0000000083f8a47c       0x14 arch/otto40/lib/libotto40.o
                0x0000000083f8a47c                spansion_cmd_info_4b_cmd
 .data.spansion_cmd_info_3b
                0x0000000083f8a490       0x14 arch/otto40/lib/libotto40.o
                0x0000000083f8a490                spansion_cmd_info_3b
 .data.spansion_read_cmd_4b_cmd
                0x0000000083f8a4a4        0xc arch/otto40/lib/libotto40.o
                0x0000000083f8a4a4                spansion_read_cmd_4b_cmd
 .data.spansion_read_cmd_3b
                0x0000000083f8a4b0        0xc arch/otto40/lib/libotto40.o
                0x0000000083f8a4b0                spansion_read_cmd_3b
 .data.spansion_erase_cmds_4b_cmd
                0x0000000083f8a4bc       0x20 arch/otto40/lib/libotto40.o
                0x0000000083f8a4bc                spansion_erase_cmds_4b_cmd
 .data.spansion_erase_cmds_3b
                0x0000000083f8a4dc       0x20 arch/otto40/lib/libotto40.o
                0x0000000083f8a4dc                spansion_erase_cmds_3b
 .data.norsf_w25q512jv_info_4b_cmd
                0x0000000083f8a4fc       0x28 arch/otto40/lib/libotto40.o
                0x0000000083f8a4fc                norsf_w25q512jv_info_4b_cmd
 .data.norsf_w25q256fv_info_en_4b
                0x0000000083f8a524       0x28 arch/otto40/lib/libotto40.o
                0x0000000083f8a524                norsf_w25q256fv_info_en_4b
 .data.norsf_w25q128fvfg_info
                0x0000000083f8a54c       0x28 arch/otto40/lib/libotto40.o
                0x0000000083f8a54c                norsf_w25q128fvfg_info
 .data.norsf_w25q64fvfg_info
                0x0000000083f8a574       0x28 arch/otto40/lib/libotto40.o
                0x0000000083f8a574                norsf_w25q64fvfg_info
 .data.norsf_w25q32bv_info
                0x0000000083f8a59c       0x28 arch/otto40/lib/libotto40.o
                0x0000000083f8a59c                norsf_w25q32bv_info
 .data.winbond_jv_cmd_info_4b_cmd
                0x0000000083f8a5c4       0x14 arch/otto40/lib/libotto40.o
                0x0000000083f8a5c4                winbond_jv_cmd_info_4b_cmd
 .data.winbond_3b_cmd_info
                0x0000000083f8a5d8       0x14 arch/otto40/lib/libotto40.o
                0x0000000083f8a5d8                winbond_3b_cmd_info
 .data.winbond_read_cmd_4b_cmd
                0x0000000083f8a5ec        0xc arch/otto40/lib/libotto40.o
                0x0000000083f8a5ec                winbond_read_cmd_4b_cmd
 .data.winbond_read_cmds_3b
                0x0000000083f8a5f8        0xc arch/otto40/lib/libotto40.o
                0x0000000083f8a5f8                winbond_read_cmds_3b
 .data.winbond_erase_cmds_4b_cmd
                0x0000000083f8a604       0x20 arch/otto40/lib/libotto40.o
                0x0000000083f8a604                winbond_erase_cmds_4b_cmd
 .data.winbond_erase_cmds_3b
                0x0000000083f8a624       0x30 arch/otto40/lib/libotto40.o
                0x0000000083f8a624                winbond_erase_cmds_3b
 .data.norsf_gd25q256c_info
                0x0000000083f8a654       0x28 arch/otto40/lib/libotto40.o
                0x0000000083f8a654                norsf_gd25q256c_info
 .data.norsf_gd25q128c_info
                0x0000000083f8a67c       0x28 arch/otto40/lib/libotto40.o
                0x0000000083f8a67c                norsf_gd25q128c_info
 .data.norsf_gd25q64c_info
                0x0000000083f8a6a4       0x28 arch/otto40/lib/libotto40.o
                0x0000000083f8a6a4                norsf_gd25q64c_info
 .data.gd_cmd_info_4b_cmd
                0x0000000083f8a6cc       0x14 arch/otto40/lib/libotto40.o
                0x0000000083f8a6cc                gd_cmd_info_4b_cmd
 .data.gd_cmd_info_3b
                0x0000000083f8a6e0       0x14 arch/otto40/lib/libotto40.o
                0x0000000083f8a6e0                gd_cmd_info_3b
 .data.gd_read_cmd_4b_cmd
                0x0000000083f8a6f4        0xc arch/otto40/lib/libotto40.o
                0x0000000083f8a6f4                gd_read_cmd_4b_cmd
 .data.gd_read_cmds_3b
                0x0000000083f8a700        0xc arch/otto40/lib/libotto40.o
                0x0000000083f8a700                gd_read_cmds_3b
 .data.gd_erase_cmds_4b_cmd
                0x0000000083f8a70c       0x30 arch/otto40/lib/libotto40.o
                0x0000000083f8a70c                gd_erase_cmds_4b_cmd
 .data.gd_erase_cmds_3b
                0x0000000083f8a73c       0x30 arch/otto40/lib/libotto40.o
                0x0000000083f8a73c                gd_erase_cmds_3b
 .data.norsf_mt25ql512aba8esf_info_4b_cmd
                0x0000000083f8a76c       0x28 arch/otto40/lib/libotto40.o
                0x0000000083f8a76c                norsf_mt25ql512aba8esf_info_4b_cmd
 .data.norsf_mt25ql256aba8esf_info_4b_cmd
                0x0000000083f8a794       0x28 arch/otto40/lib/libotto40.o
                0x0000000083f8a794                norsf_mt25ql256aba8esf_info_4b_cmd
 .data.norsf_n25q128a_info
                0x0000000083f8a7bc       0x28 arch/otto40/lib/libotto40.o
                0x0000000083f8a7bc                norsf_n25q128a_info
 .data.norsf_n25q64a_info
                0x0000000083f8a7e4       0x28 arch/otto40/lib/libotto40.o
                0x0000000083f8a7e4                norsf_n25q64a_info
 .data.micron_cmd_info_4b_cmd
                0x0000000083f8a80c       0x14 arch/otto40/lib/libotto40.o
                0x0000000083f8a80c                micron_cmd_info_4b_cmd
 .data.micron_cmd_info_3b
                0x0000000083f8a820       0x14 arch/otto40/lib/libotto40.o
                0x0000000083f8a820                micron_cmd_info_3b
 .data.micron_read_cmd_4b_cmd
                0x0000000083f8a834        0xc arch/otto40/lib/libotto40.o
                0x0000000083f8a834                micron_read_cmd_4b_cmd
 .data.micron_read_cmd_3b
                0x0000000083f8a840        0xc arch/otto40/lib/libotto40.o
                0x0000000083f8a840                micron_read_cmd_3b
 .data.micron_erase_cmds_4b_cmd
                0x0000000083f8a84c       0x20 arch/otto40/lib/libotto40.o
                0x0000000083f8a84c                micron_erase_cmds_4b_cmd
 .data.micron_erase_cmds_3b
                0x0000000083f8a86c       0x20 arch/otto40/lib/libotto40.o
                0x0000000083f8a86c                micron_erase_cmds_3b
 .data.cmd_bootm_sub
                0x0000000083f8a88c       0x90 common/libcommon.o
 .data.do_echo  0x0000000083f8a91c        0x4 common/libcommon.o
 .data.dp_last_length
                0x0000000083f8a920        0x4 common/libcommon.o
 .data.cmd_env_sub
                0x0000000083f8a924      0x108 common/libcommon.o
 .data.env_id   0x0000000083f8aa2c        0x4 common/libcommon.o
 .data.load_addr
                0x0000000083f8aa30        0x4 common/libcommon.o
                0x0000000083f8aa30                load_addr
 .data.env_name_spec
                0x0000000083f8aa34        0x4 common/libcommon.o
                0x0000000083f8aa34                env_name_spec
 .data.hist_cur
                0x0000000083f8aa38        0x4 common/libcommon.o
 .data.stdio_names
                0x0000000083f8aa3c        0xc common/libcommon.o
                0x0000000083f8aa3c                stdio_names
 .data.mem_malloc_brk
                0x0000000083f8aa48        0x4 common/libcommon.o
                0x0000000083f8aa48                mem_malloc_brk
 .data.mem_malloc_end
                0x0000000083f8aa4c        0x4 common/libcommon.o
                0x0000000083f8aa4c                mem_malloc_end
 .data.mem_malloc_start
                0x0000000083f8aa50        0x4 common/libcommon.o
                0x0000000083f8aa50                mem_malloc_start
 .data.top_pad  0x0000000083f8aa54        0x4 common/libcommon.o
 .data.trim_threshold
                0x0000000083f8aa58        0x4 common/libcommon.o
 .data.sbrk_base
                0x0000000083f8aa5c        0x4 common/libcommon.o
 .data.current_mallinfo
                0x0000000083f8aa60       0x28 common/libcommon.o
 .data.av_      0x0000000083f8aa88      0x408 common/libcommon.o
 .data.max_total_mem
                0x0000000083f8ae90        0x4 common/libcommon.o
 .data.mmapped_mem
                0x0000000083f8ae94        0x4 common/libcommon.o
 .data.max_sbrked_mem
                0x0000000083f8ae98        0x4 common/libcommon.o
 .data.NetOurNativeVLAN
                0x0000000083f8ae9c        0x2 net/libnet.o
                0x0000000083f8ae9c                NetOurNativeVLAN
 .data.NetOurVLAN
                0x0000000083f8ae9e        0x2 net/libnet.o
                0x0000000083f8ae9e                NetOurVLAN
 .data.NetBcastAddr
                0x0000000083f8aea0        0x8 net/libnet.o
                0x0000000083f8aea0                NetBcastAddr
 .data.TftpBlkSizeOption
                0x0000000083f8aea8        0x2 net/libnet.o
 .data.TftpBlkSize
                0x0000000083f8aeaa        0x2 net/libnet.o
 .data.TftpRRQTimeoutCountMax
                0x0000000083f8aeac        0x4 net/libnet.o
                0x0000000083f8aeac                TftpRRQTimeoutCountMax
 .data.TftpTimeoutCountMax
                0x0000000083f8aeb0        0x4 net/libnet.o
 .data.TftpTimeoutMSecs
                0x0000000083f8aeb4        0x4 net/libnet.o
 .data.rtk_flash_partition_size
                0x0000000083f8aeb8       0x4c board/Realtek/rtl9300/librtl9300.o
                0x0000000083f8aeb8                rtk_flash_partition_size
 .data.uboot_cmd_sdsMode_str
                0x0000000083f8af04      0x420 board/Realtek/rtl9300/librtl9300.o
                0x0000000083f8af04                uboot_cmd_sdsMode_str
 .data.pkt_content
                0x0000000083f8b324       0x4c board/Realtek/rtl9300/librtl9300.o
                0x0000000083f8b324                pkt_content
 .data.hwp_defaultHwp
                0x0000000083f8b370       0x34 board/Realtek/rtl9300/librtl9300.o
 .data.hwp_forcedHwp
                0x0000000083f8b3a4       0x34 board/Realtek/rtl9300/librtl9300.o
 .data.hwp_hwProfile_list
                0x0000000083f8b3d8       0x78 board/Realtek/rtl9300/librtl9300.o
                0x0000000083f8b3d8                hwp_hwProfile_list
 .data.rtl9303_6x8254L_6xspi
                0x0000000083f8b450       0x58 board/Realtek/rtl9300/librtl9300.o
 .data.rtl9303_6x8254L_6xspi_swDescp5
                0x0000000083f8b4a8      0x668 board/Realtek/rtl9300/librtl9300.o
 .data.rtl9303_6x8254L_6xspi_swDescp4
                0x0000000083f8bb10      0x668 board/Realtek/rtl9300/librtl9300.o
 .data.rtl9303_6x8254L_6xspi_swDescp3
                0x0000000083f8c178      0x668 board/Realtek/rtl9300/librtl9300.o
 .data.rtl9303_6x8254L_6xspi_swDescp2
                0x0000000083f8c7e0      0x668 board/Realtek/rtl9300/librtl9300.o
 .data.rtl9303_6x8254L_6xspi_swDescp1
                0x0000000083f8ce48      0x668 board/Realtek/rtl9300/librtl9300.o
 .data.rtl9303_6x8254L_6xspi_swDescp0
                0x0000000083f8d4b0      0x668 board/Realtek/rtl9300/librtl9300.o
 .data.rtl9303_2x8254L_demo
                0x0000000083f8db18       0x58 board/Realtek/rtl9300/librtl9300.o
 .data.rtl9303_2x8254L_swDescp
                0x0000000083f8db70      0x668 board/Realtek/rtl9300/librtl9300.o
 .data.rtl9301_3x8218e_4xge
                0x0000000083f8e1d8       0x58 board/Realtek/rtl9300/librtl9300.o
 .data.rtl9301_3x8218e_4xge_swDescp
                0x0000000083f8e230      0x668 board/Realtek/rtl9300/librtl9300.o
 .data.rtl9301_3x8218d_2x8226card_2xge
                0x0000000083f8e898       0x58 board/Realtek/rtl9300/librtl9300.o
 .data.rtl9301_3x8218d_2x8226card_2xge_swDescp
                0x0000000083f8e8f0      0x668 board/Realtek/rtl9300/librtl9300.o
 .data.rtl9302d_6x8224qf_2xge
                0x0000000083f8ef58       0x58 board/Realtek/rtl9300/librtl9300.o
 .data.rtl9302d_6x8224qf_2xge_swDescp
                0x0000000083f8efb0      0x668 board/Realtek/rtl9300/librtl9300.o
 .data.rtl9302c_4x8284_4xge
                0x0000000083f8f618       0x58 board/Realtek/rtl9300/librtl9300.o
 .data.rtl9302c_4x8284_4xg_swDescp
                0x0000000083f8f670      0x668 board/Realtek/rtl9300/librtl9300.o
 .data.rtl9302c_2x8224_2xge_2x8261n
                0x0000000083f8fcd8       0x58 board/Realtek/rtl9300/librtl9300.o
 .data.rtl9302c_2x8224_2xge_2x8261n_swDescp
                0x0000000083f8fd30      0x668 board/Realtek/rtl9300/librtl9300.o
 .data.rtl9302c_2x8224_2xge
                0x0000000083f90398       0x58 board/Realtek/rtl9300/librtl9300.o
 .data.rtl9302c_2x8224_2xge_swDescp
                0x0000000083f903f0      0x668 board/Realtek/rtl9300/librtl9300.o
 .data.rtl9302c_2x8284_2xge
                0x0000000083f90a58       0x58 board/Realtek/rtl9300/librtl9300.o
 .data.rtl9302c_2x8284_2xge_swDescp
                0x0000000083f90ab0      0x668 board/Realtek/rtl9300/librtl9300.o
 .data.rtl9302b_2x8218e_2x8224qf_4xge
                0x0000000083f91118       0x58 board/Realtek/rtl9300/librtl9300.o
 .data.rtl9302b_2x8218e_2x8224qf_4xge_swDescp
                0x0000000083f91170      0x668 board/Realtek/rtl9300/librtl9300.o
 .data.rtl9302b_2x8218d_2x8284_4xge
                0x0000000083f917d8       0x58 board/Realtek/rtl9300/librtl9300.o
 .data.rtl9302b_2x8218d_2x8284_4xge_swDescp
                0x0000000083f91830      0x668 board/Realtek/rtl9300/librtl9300.o
 .data.rtl9302b_2x8218d_2xcust1_4xge
                0x0000000083f91e98       0x58 board/Realtek/rtl9300/librtl9300.o
 .data.rtl9302b_2x8218d_2xcust1_4xge_swDescp
                0x0000000083f91ef0      0x668 board/Realtek/rtl9300/librtl9300.o
 .data.rtl9302c_4xcust1
                0x0000000083f92558       0x58 board/Realtek/rtl9300/librtl9300.o
 .data.rtl9302c_4xcust1_swDescp
                0x0000000083f925b0      0x668 board/Realtek/rtl9300/librtl9300.o
 .data.rtl9303_2xcust1
                0x0000000083f92c18       0x58 board/Realtek/rtl9300/librtl9300.o
 .data.rtl9303_2xcust1_swDescp
                0x0000000083f92c70      0x668 board/Realtek/rtl9300/librtl9300.o
 .data.rtl9301_2x8218b_4x8218d_2x8295r_cascade
                0x0000000083f932d8       0x58 board/Realtek/rtl9300/librtl9300.o
 .data.rtl9301_2x8218b_4x8218d_2x8295r_swDescp2
                0x0000000083f93330      0x668 board/Realtek/rtl9300/librtl9300.o
                0x0000000083f93330                rtl9301_2x8218b_4x8218d_2x8295r_swDescp2
 .data.rtl9301_2x8218b_4x8218d_2x8295r_swDescp1
                0x0000000083f93998      0x668 board/Realtek/rtl9300/librtl9300.o
                0x0000000083f93998                rtl9301_2x8218b_4x8218d_2x8295r_swDescp1
 .data.rtl9301_6x8218d_2x8295r_cascade
                0x0000000083f94000       0x58 board/Realtek/rtl9300/librtl9300.o
 .data.rtl9301_6x8218d_2x8295r_swDescp2
                0x0000000083f94058      0x668 board/Realtek/rtl9300/librtl9300.o
                0x0000000083f94058                rtl9301_6x8218d_2x8295r_swDescp2
 .data.rtl9301_6x8218d_2x8295r_swDescp1
                0x0000000083f946c0      0x668 board/Realtek/rtl9300/librtl9300.o
                0x0000000083f946c0                rtl9301_6x8218d_2x8295r_swDescp1
 .data.rtl9301_2x8214fc_4x8214qf_4xge
                0x0000000083f94d28       0x58 board/Realtek/rtl9300/librtl9300.o
 .data.rtl9301_2x8214fc_4x8214qf_4xge_swDescp
                0x0000000083f94d80      0x668 board/Realtek/rtl9300/librtl9300.o
 .data.rtl9301_6x8214qf_4xge
                0x0000000083f953e8       0x58 board/Realtek/rtl9300/librtl9300.o
 .data.rtl9301_6x8214qf_4xge_swDescp
                0x0000000083f95440      0x668 board/Realtek/rtl9300/librtl9300.o
 .data.rtl9301_3x8218d_4xge
                0x0000000083f95aa8       0x58 board/Realtek/rtl9300/librtl9300.o
 .data.rtl9301_3x8218d_4xge_swDescp
                0x0000000083f95b00      0x668 board/Realtek/rtl9300/librtl9300.o
 .data.rtl9302de_2xRTL8284
                0x0000000083f96168       0x58 board/Realtek/rtl9300/librtl9300.o
 .data.rtl9302de_2xRTL8284_swDescp
                0x0000000083f961c0      0x668 board/Realtek/rtl9300/librtl9300.o
 .data.rtl9303_8x8226
                0x0000000083f96828       0x58 board/Realtek/rtl9300/librtl9300.o
 .data.rtl9303_8x8226_swDescp
                0x0000000083f96880      0x668 board/Realtek/rtl9300/librtl9300.o
 .data.rtl9303_8x2_5g
                0x0000000083f96ee8       0x58 board/Realtek/rtl9300/librtl9300.o
 .data.rtl9303_8x2_5ge_swDescp
                0x0000000083f96f40      0x668 board/Realtek/rtl9300/librtl9300.o
 .data.rtl9303_8xge
                0x0000000083f975a8       0x58 board/Realtek/rtl9300/librtl9300.o
 .data.rtl9303_8xge_swDescp
                0x0000000083f97600      0x668 board/Realtek/rtl9300/librtl9300.o
 .data.rtl9301_14qf_4xge_18b_4xge_cascade
                0x0000000083f97c68       0x58 board/Realtek/rtl9300/librtl9300.o
 .data.rtl9301_14qf_4xge_18b_4xge_cascade_swDescp2
                0x0000000083f97cc0      0x668 board/Realtek/rtl9300/librtl9300.o
                0x0000000083f97cc0                rtl9301_14qf_4xge_18b_4xge_cascade_swDescp2
 .data.rtl9301_14qf_4xge_18b_4xge_cascade_swDescp1
                0x0000000083f98328      0x668 board/Realtek/rtl9300/librtl9300.o
                0x0000000083f98328                rtl9301_14qf_4xge_18b_4xge_cascade_swDescp1
 .data.rtl9301_2x8214qf_4xge_cascade
                0x0000000083f98990       0x58 board/Realtek/rtl9300/librtl9300.o
 .data.rtl9301_2x8214qf_4xge_swDescp2
                0x0000000083f989e8      0x668 board/Realtek/rtl9300/librtl9300.o
                0x0000000083f989e8                rtl9301_2x8214qf_4xge_swDescp2
 .data.rtl9301_2x8214qf_4xge_swDescp1
                0x0000000083f99050      0x668 board/Realtek/rtl9300/librtl9300.o
                0x0000000083f99050                rtl9301_2x8214qf_4xge_swDescp1
 .data.rtl9301_8218b_4xge_cascade
                0x0000000083f996b8       0x58 board/Realtek/rtl9300/librtl9300.o
 .data.rtl9301_8218b_4xge_swDescp2
                0x0000000083f99710      0x668 board/Realtek/rtl9300/librtl9300.o
                0x0000000083f99710                rtl9301_8218b_4xge_swDescp2
 .data.rtl9301_8218b_4xge_swDescp1
                0x0000000083f99d78      0x668 board/Realtek/rtl9300/librtl9300.o
                0x0000000083f99d78                rtl9301_8218b_4xge_swDescp1
 .data.rtl9301_8218b_4xge
                0x0000000083f9a3e0       0x58 board/Realtek/rtl9300/librtl9300.o
 .data.rtl9301_8218b_4xge_swDescp
                0x0000000083f9a438      0x668 board/Realtek/rtl9300/librtl9300.o
 .data.rtl9301_3x8218b_4xge
                0x0000000083f9aaa0       0x58 board/Realtek/rtl9300/librtl9300.o
 .data.rtl9301_3x8218b_4xge_swDescp
                0x0000000083f9aaf8      0x668 board/Realtek/rtl9300/librtl9300.o
 .data.rtl9301_2x8214qf_4xge
                0x0000000083f9b160       0x58 board/Realtek/rtl9300/librtl9300.o
 .data.rtl9301_2x8214qf_4xge_swDescp
                0x0000000083f9b1b8      0x668 board/Realtek/rtl9300/librtl9300.o
 .data.nic_if   0x0000000083f9b820       0x40 board/Realtek/rtl9300/librtl9300.o
                0x0000000083f9b820                nic_if
 .data.nic_ops  0x0000000083f9b860       0xc8 board/Realtek/rtl9300/librtl9300.o
                0x0000000083f9b860                nic_ops
 .data.rtl8231_if
                0x0000000083f9b928       0x40 board/Realtek/rtl9300/librtl9300.o
                0x0000000083f9b928                rtl8231_if
 .data.rtl8231_ops
                0x0000000083f9b968       0x3c board/Realtek/rtl9300/librtl9300.o
                0x0000000083f9b968                rtl8231_ops
 .data.gpio_if  0x0000000083f9b9a4       0x40 board/Realtek/rtl9300/librtl9300.o
                0x0000000083f9b9a4                gpio_if
 .data.gpio_ops
                0x0000000083f9b9e4       0x28 board/Realtek/rtl9300/librtl9300.o
                0x0000000083f9b9e4                gpio_ops
 .data.i2c_if   0x0000000083f9ba0c       0x40 board/Realtek/rtl9300/librtl9300.o
                0x0000000083f9ba0c                i2c_if
 .data.i2c_ops  0x0000000083f9ba4c       0x18 board/Realtek/rtl9300/librtl9300.o
                0x0000000083f9ba4c                i2c_ops
 .data.supported_devices
                0x0000000083f9ba64      0x258 board/Realtek/rtl9300/librtl9300.o
 .data.rtl9300_macPpInfo
                0x0000000083f9bcbc       0x48 board/Realtek/rtl9300/librtl9300.o
 *fill*         0x0000000083f9bd04        0x4 
 .data.rtl9300_capacityInfo
                0x0000000083f9bd08      0x288 board/Realtek/rtl9300/librtl9300.o
 .data.rtl9300_port_info_2_5GE
                0x0000000083f9bf90      0x100 board/Realtek/rtl9300/librtl9300.o
 .data.rtl9300_port_info_2_5GE_2XG
                0x0000000083f9c090      0x100 board/Realtek/rtl9300/librtl9300.o
 .data.rtl9300_port_info_2_5GE_4XG
                0x0000000083f9c190      0x100 board/Realtek/rtl9300/librtl9300.o
 .data.rtl9300_port_info_16G_2_5GE_4XG
                0x0000000083f9c290      0x100 board/Realtek/rtl9300/librtl9300.o
 .data.rtl9300_port_info_8G_2_5GE_4XG
                0x0000000083f9c390      0x100 board/Realtek/rtl9300/librtl9300.o
 .data.rtl9300_port_info_24G_2_5GE
                0x0000000083f9c490      0x100 board/Realtek/rtl9300/librtl9300.o
 .data.rtl9300_port_info_8XG
                0x0000000083f9c590      0x100 board/Realtek/rtl9300/librtl9300.o
 .data.rtl9300_port_info_24G_4XG
                0x0000000083f9c690      0x100 board/Realtek/rtl9300/librtl9300.o
 .data.rt_major_driver_table
                0x0000000083f9c790        0x4 board/Realtek/rtl9300/librtl9300.o
                0x0000000083f9c790                rt_major_driver_table
 .data.rtl8214qf_basicSlave_rxCaliConf_default
                0x0000000083f9c794       0x1c board/Realtek/rtl9300/librtl9300.o
                0x0000000083f9c794                rtl8214qf_basicSlave_rxCaliConf_default
 .data.rtl8214qf_basic_rxCaliConf_default
                0x0000000083f9c7b0       0x1c board/Realtek/rtl9300/librtl9300.o
                0x0000000083f9c7b0                rtl8214qf_basic_rxCaliConf_default
 .data.supported_int_phys
                0x0000000083f9c7cc       0x20 board/Realtek/rtl9300/librtl9300.o
 .data.supported_phys
                0x0000000083f9c7ec       0x80 board/Realtek/rtl9300/librtl9300.o
 .data.constructEntry_930x
                0x0000000083f9c86c      0x330 board/Realtek/rtl9300/librtl9300.o
                0x0000000083f9c86c                constructEntry_930x
 .data.batch_size
                0x0000000083f9cb9c        0x4 board/Realtek/rtl9300/librtl9300.o
 .data.phy_8214C_info
                0x0000000083f9cba0       0x48 board/Realtek/rtl9300/librtl9300.o
                0x0000000083f9cba0                phy_8214C_info
 .data.port_map_ledpad
                0x0000000083f9cbe8       0x40 board/Realtek/rtl9300/librtl9300.o
                0x0000000083f9cbe8                port_map_ledpad
 .data.phy_8224_info
                0x0000000083f9cc28       0x48 board/Realtek/rtl9300/librtl9300.o
                0x0000000083f9cc28                phy_8224_info
 .data.rtl8224_a_patch_sds_conf
                0x0000000083f9cc70       0xa0 board/Realtek/rtl9300/librtl9300.o
                0x0000000083f9cc70                rtl8224_a_patch_sds_conf
 .data.rtl8224_a_patch_afe_conf
                0x0000000083f9cd10       0x14 board/Realtek/rtl9300/librtl9300.o
                0x0000000083f9cd10                rtl8224_a_patch_afe_conf
 .data.rtl8224_a_patch_fwlm_conf
                0x0000000083f9cd24      0x1f4 board/Realtek/rtl9300/librtl9300.o
                0x0000000083f9cd24                rtl8224_a_patch_fwlm_conf
 .data.rtl8224_a_patch_fwpr_conf
                0x0000000083f9cf18      0x3c0 board/Realtek/rtl9300/librtl9300.o
                0x0000000083f9cf18                rtl8224_a_patch_fwpr_conf
 .data.rtl8224_b_patch_sds_conf
                0x0000000083f9d2d8      0x118 board/Realtek/rtl9300/librtl9300.o
                0x0000000083f9d2d8                rtl8224_b_patch_sds_conf
 .data.rtl8224_b_patch_afe_conf
                0x0000000083f9d3f0       0x14 board/Realtek/rtl9300/librtl9300.o
                0x0000000083f9d3f0                rtl8224_b_patch_afe_conf
 .data.rtl8224_b_patch_fwlm_conf
                0x0000000083f9d404      0xac8 board/Realtek/rtl9300/librtl9300.o
                0x0000000083f9d404                rtl8224_b_patch_fwlm_conf
 .data.rtl8224_b_patch_fwpr_conf
                0x0000000083f9decc     0x1e5c board/Realtek/rtl9300/librtl9300.o
                0x0000000083f9decc                rtl8224_b_patch_fwpr_conf
 .data.rtl8224_patch_sds_conf
                0x0000000083f9fd28      0x118 board/Realtek/rtl9300/librtl9300.o
                0x0000000083f9fd28                rtl8224_patch_sds_conf
 .data.rtl8224_patch_afe_conf
                0x0000000083f9fe40       0x14 board/Realtek/rtl9300/librtl9300.o
                0x0000000083f9fe40                rtl8224_patch_afe_conf
 .data.rtl8224_patch_fwlm_conf
                0x0000000083f9fe54      0x6e0 board/Realtek/rtl9300/librtl9300.o
                0x0000000083f9fe54                rtl8224_patch_fwlm_conf
 .data.rtl8224_patch_fwpr_conf
                0x0000000083fa0534      0xb90 board/Realtek/rtl9300/librtl9300.o
                0x0000000083fa0534                rtl8224_patch_fwpr_conf
 .data.phy_8214QF_info
                0x0000000083fa10c4       0x48 board/Realtek/rtl9300/librtl9300.o
                0x0000000083fa10c4                phy_8214QF_info
 .data.phy_8211FS_info
                0x0000000083fa110c       0x48 board/Realtek/rtl9300/librtl9300.o
                0x0000000083fa110c                phy_8211FS_info
 .data.txRingIdSize_9300
                0x0000000083fa1154        0x8 board/Realtek/rtl9300/librtl9300.o
 .data.rxRingIdSize_9300
                0x0000000083fa115c       0x80 board/Realtek/rtl9300/librtl9300.o
 .data.phy_9300sds_info
                0x0000000083fa11dc       0x48 board/Realtek/rtl9300/librtl9300.o
                0x0000000083fa11dc                phy_9300sds_info
 .data.rtl9300_macdrv
                0x0000000083fa1224       0x64 board/Realtek/rtl9300/librtl9300.o
                0x0000000083fa1224                rtl9300_macdrv
 .data.rtl9300_a_driver
                0x0000000083fa1288       0x2c board/Realtek/rtl9300/librtl9300.o
                0x0000000083fa1288                rtl9300_a_driver
 .data.rtl9300_table_list
                0x0000000083fa12b4       0x8c board/Realtek/rtl9300/librtl9300.o
 .data.rtl9300_reg_list
                0x0000000083fa1340      0xb74 board/Realtek/rtl9300/librtl9300.o
 .data.DMY_REG4_EGRESS_CTRL_RTL9300_FIELDS
                0x0000000083fa1eb4        0x8 board/Realtek/rtl9300/librtl9300.o
                0x0000000083fa1eb4                DMY_REG4_EGRESS_CTRL_RTL9300_FIELDS
 .data.DMY_REG0_INGRESS_CTRL_2_RTL9300_FIELDS
                0x0000000083fa1ebc        0x8 board/Realtek/rtl9300/librtl9300.o
                0x0000000083fa1ebc                DMY_REG0_INGRESS_CTRL_2_RTL9300_FIELDS
 .data.DMY_REG3_EGRESS_CTRL_RTL9300_FIELDS
                0x0000000083fa1ec4        0x8 board/Realtek/rtl9300/librtl9300.o
                0x0000000083fa1ec4                DMY_REG3_EGRESS_CTRL_RTL9300_FIELDS
 .data.TXERR_CNT_RTL9300_FIELDS
                0x0000000083fa1ecc        0x8 board/Realtek/rtl9300/librtl9300.o
                0x0000000083fa1ecc                TXERR_CNT_RTL9300_FIELDS
 .data.AUTO_RECOVER_EVENT_FLAG_ERR_MAC_RTL9300_FIELDS
                0x0000000083fa1ed4       0x10 board/Realtek/rtl9300/librtl9300.o
                0x0000000083fa1ed4                AUTO_RECOVER_EVENT_FLAG_ERR_MAC_RTL9300_FIELDS
 .data.AUTO_RECOVER_EVENT_FLAG_ERR_EGRESS_RTL9300_FIELDS
                0x0000000083fa1ee4       0x18 board/Realtek/rtl9300/librtl9300.o
                0x0000000083fa1ee4                AUTO_RECOVER_EVENT_FLAG_ERR_EGRESS_RTL9300_FIELDS
 .data.AUTO_RECOVER_EVENT_FLAG_ERR_INGRESS_RTL9300_FIELDS
                0x0000000083fa1efc       0x20 board/Realtek/rtl9300/librtl9300.o
                0x0000000083fa1efc                AUTO_RECOVER_EVENT_FLAG_ERR_INGRESS_RTL9300_FIELDS
 .data.AUTO_RECOVER_EVENT_FLAG_STS_MAC_RTL9300_FIELDS
                0x0000000083fa1f1c       0x10 board/Realtek/rtl9300/librtl9300.o
                0x0000000083fa1f1c                AUTO_RECOVER_EVENT_FLAG_STS_MAC_RTL9300_FIELDS
 .data.AUTO_RECOVER_EVENT_FLAG_STS_EGRESS_RTL9300_FIELDS
                0x0000000083fa1f2c       0x18 board/Realtek/rtl9300/librtl9300.o
                0x0000000083fa1f2c                AUTO_RECOVER_EVENT_FLAG_STS_EGRESS_RTL9300_FIELDS
 .data.AUTO_RECOVER_EVENT_FLAG_STS_INGRESS_RTL9300_FIELDS
                0x0000000083fa1f44       0x20 board/Realtek/rtl9300/librtl9300.o
                0x0000000083fa1f44                AUTO_RECOVER_EVENT_FLAG_STS_INGRESS_RTL9300_FIELDS
 .data.TRIG_AUTO_RECOVER_CTRL_MAC_RTL9300_FIELDS
                0x0000000083fa1f64       0x10 board/Realtek/rtl9300/librtl9300.o
                0x0000000083fa1f64                TRIG_AUTO_RECOVER_CTRL_MAC_RTL9300_FIELDS
 .data.TRIG_AUTO_RECOVER_CTRL_EGRESS_RTL9300_FIELDS
                0x0000000083fa1f74       0x18 board/Realtek/rtl9300/librtl9300.o
                0x0000000083fa1f74                TRIG_AUTO_RECOVER_CTRL_EGRESS_RTL9300_FIELDS
 .data.TRIG_AUTO_RECOVER_CTRL_INGRESS_RTL9300_FIELDS
                0x0000000083fa1f8c       0x20 board/Realtek/rtl9300/librtl9300.o
                0x0000000083fa1f8c                TRIG_AUTO_RECOVER_CTRL_INGRESS_RTL9300_FIELDS
 .data.SW_Q_RST_CNT_RTL9300_FIELDS
                0x0000000083fa1fac       0x10 board/Realtek/rtl9300/librtl9300.o
                0x0000000083fa1fac                SW_Q_RST_CNT_RTL9300_FIELDS
 .data.TOKEN_ERR_RTL9300_FIELDS
                0x0000000083fa1fbc        0x8 board/Realtek/rtl9300/librtl9300.o
                0x0000000083fa1fbc                TOKEN_ERR_RTL9300_FIELDS
 .data.TOKEN_STS_RTL9300_FIELDS
                0x0000000083fa1fc4        0x8 board/Realtek/rtl9300/librtl9300.o
                0x0000000083fa1fc4                TOKEN_STS_RTL9300_FIELDS
 .data.PINGPONG_PLUS_ERR_RTL9300_FIELDS
                0x0000000083fa1fcc        0x8 board/Realtek/rtl9300/librtl9300.o
                0x0000000083fa1fcc                PINGPONG_PLUS_ERR_RTL9300_FIELDS
 .data.PINGPONG_PLUS_STS_RTL9300_FIELDS
                0x0000000083fa1fd4        0x8 board/Realtek/rtl9300/librtl9300.o
                0x0000000083fa1fd4                PINGPONG_PLUS_STS_RTL9300_FIELDS
 .data.TXFIFO_RDEMPTY_ERR_RTL9300_FIELDS
                0x0000000083fa1fdc        0x8 board/Realtek/rtl9300/librtl9300.o
                0x0000000083fa1fdc                TXFIFO_RDEMPTY_ERR_RTL9300_FIELDS
 .data.TXFIFO_RDEMPTY_STS_RTL9300_FIELDS
                0x0000000083fa1fe4        0x8 board/Realtek/rtl9300/librtl9300.o
                0x0000000083fa1fe4                TXFIFO_RDEMPTY_STS_RTL9300_FIELDS
 .data.TXFIFO_OVERFLOW_ERR_RTL9300_FIELDS
                0x0000000083fa1fec        0x8 board/Realtek/rtl9300/librtl9300.o
                0x0000000083fa1fec                TXFIFO_OVERFLOW_ERR_RTL9300_FIELDS
 .data.TXFIFO_OVERFLOW_STS_RTL9300_FIELDS
                0x0000000083fa1ff4        0x8 board/Realtek/rtl9300/librtl9300.o
                0x0000000083fa1ff4                TXFIFO_OVERFLOW_STS_RTL9300_FIELDS
 .data.RXFIFO_RDEMPTY_ERR_RTL9300_FIELDS
                0x0000000083fa1ffc        0x8 board/Realtek/rtl9300/librtl9300.o
                0x0000000083fa1ffc                RXFIFO_RDEMPTY_ERR_RTL9300_FIELDS
 .data.RXFIFO_RDEMPTY_STS_RTL9300_FIELDS
                0x0000000083fa2004        0x8 board/Realtek/rtl9300/librtl9300.o
                0x0000000083fa2004                RXFIFO_RDEMPTY_STS_RTL9300_FIELDS
 .data.RXFIFO_OVERFLOW_ERR_RTL9300_FIELDS
                0x0000000083fa200c        0x8 board/Realtek/rtl9300/librtl9300.o
                0x0000000083fa200c                RXFIFO_OVERFLOW_ERR_RTL9300_FIELDS
 .data.RXFIFO_OVERFLOW_STS_RTL9300_FIELDS
                0x0000000083fa2014        0x8 board/Realtek/rtl9300/librtl9300.o
                0x0000000083fa2014                RXFIFO_OVERFLOW_STS_RTL9300_FIELDS
 .data.TX_DSC_CHK_TMR_RTL9300_FIELDS
                0x0000000083fa201c       0x10 board/Realtek/rtl9300/librtl9300.o
                0x0000000083fa201c                TX_DSC_CHK_TMR_RTL9300_FIELDS
 .data.LD_TX_DSC_ERR_RTL9300_FIELDS
                0x0000000083fa202c        0x8 board/Realtek/rtl9300/librtl9300.o
                0x0000000083fa202c                LD_TX_DSC_ERR_RTL9300_FIELDS
 .data.LD_TX_DSC_STS_RTL9300_FIELDS
                0x0000000083fa2034        0x8 board/Realtek/rtl9300/librtl9300.o
                0x0000000083fa2034                LD_TX_DSC_STS_RTL9300_FIELDS
 .data.DMY_REG1TO28_INGRESS_CTRL_2_RTL9300_FIELDS
                0x0000000083fa203c        0x8 board/Realtek/rtl9300/librtl9300.o
                0x0000000083fa203c                DMY_REG1TO28_INGRESS_CTRL_2_RTL9300_FIELDS
 .data.SW_Q_RST_P_THR_RTL9300_FIELDS
                0x0000000083fa2044       0x10 board/Realtek/rtl9300/librtl9300.o
                0x0000000083fa2044                SW_Q_RST_P_THR_RTL9300_FIELDS
 .data.SW_Q_RST_SYS_THR_RTL9300_FIELDS
                0x0000000083fa2054       0x10 board/Realtek/rtl9300/librtl9300.o
                0x0000000083fa2054                SW_Q_RST_SYS_THR_RTL9300_FIELDS
 .data.RXPORT_DSC_ERR_RTL9300_FIELDS
                0x0000000083fa2064        0x8 board/Realtek/rtl9300/librtl9300.o
                0x0000000083fa2064                RXPORT_DSC_ERR_RTL9300_FIELDS
 .data.RXPORT_DSC_STS_RTL9300_FIELDS
                0x0000000083fa206c        0x8 board/Realtek/rtl9300/librtl9300.o
                0x0000000083fa206c                RXPORT_DSC_STS_RTL9300_FIELDS
 .data.DMY_REG0_HSA_RTL9300_FIELDS
                0x0000000083fa2074        0x8 board/Realtek/rtl9300/librtl9300.o
                0x0000000083fa2074                DMY_REG0_HSA_RTL9300_FIELDS
 .data.HSA_DATA21_RTL9300_FIELDS
                0x0000000083fa207c       0x18 board/Realtek/rtl9300/librtl9300.o
                0x0000000083fa207c                HSA_DATA21_RTL9300_FIELDS
 .data.HSA_DATA20_RTL9300_FIELDS
                0x0000000083fa2094       0x18 board/Realtek/rtl9300/librtl9300.o
                0x0000000083fa2094                HSA_DATA20_RTL9300_FIELDS
 .data.HSA_DATA19_RTL9300_FIELDS
                0x0000000083fa20ac        0x8 board/Realtek/rtl9300/librtl9300.o
                0x0000000083fa20ac                HSA_DATA19_RTL9300_FIELDS
 .data.HSA_DATA18_RTL9300_FIELDS
                0x0000000083fa20b4        0x8 board/Realtek/rtl9300/librtl9300.o
                0x0000000083fa20b4                HSA_DATA18_RTL9300_FIELDS
 .data.HSA_DATA17_RTL9300_FIELDS
                0x0000000083fa20bc       0x18 board/Realtek/rtl9300/librtl9300.o
                0x0000000083fa20bc                HSA_DATA17_RTL9300_FIELDS
 .data.HSA_DATA16_RTL9300_FIELDS
                0x0000000083fa20d4       0x48 board/Realtek/rtl9300/librtl9300.o
                0x0000000083fa20d4                HSA_DATA16_RTL9300_FIELDS
 .data.HSA_DATA15_RTL9300_FIELDS
                0x0000000083fa211c       0x38 board/Realtek/rtl9300/librtl9300.o
                0x0000000083fa211c                HSA_DATA15_RTL9300_FIELDS
 .data.HSA_DATA14_RTL9300_FIELDS
                0x0000000083fa2154       0x40 board/Realtek/rtl9300/librtl9300.o
                0x0000000083fa2154                HSA_DATA14_RTL9300_FIELDS
 .data.HSA_DATA13_RTL9300_FIELDS
                0x0000000083fa2194       0x28 board/Realtek/rtl9300/librtl9300.o
                0x0000000083fa2194                HSA_DATA13_RTL9300_FIELDS
 .data.HSA_DATA12_RTL9300_FIELDS
                0x0000000083fa21bc       0x48 board/Realtek/rtl9300/librtl9300.o
                0x0000000083fa21bc                HSA_DATA12_RTL9300_FIELDS
 .data.HSA_DATA11_RTL9300_FIELDS
                0x0000000083fa2204       0x70 board/Realtek/rtl9300/librtl9300.o
                0x0000000083fa2204                HSA_DATA11_RTL9300_FIELDS
 .data.HSA_DATA10_RTL9300_FIELDS
                0x0000000083fa2274       0x10 board/Realtek/rtl9300/librtl9300.o
                0x0000000083fa2274                HSA_DATA10_RTL9300_FIELDS
 .data.HSA_DATA9_RTL9300_FIELDS
                0x0000000083fa2284       0x10 board/Realtek/rtl9300/librtl9300.o
                0x0000000083fa2284                HSA_DATA9_RTL9300_FIELDS
 .data.HSA_DATA8_RTL9300_FIELDS
                0x0000000083fa2294       0x60 board/Realtek/rtl9300/librtl9300.o
                0x0000000083fa2294                HSA_DATA8_RTL9300_FIELDS
 .data.HSA_DATA7_RTL9300_FIELDS
                0x0000000083fa22f4       0x28 board/Realtek/rtl9300/librtl9300.o
                0x0000000083fa22f4                HSA_DATA7_RTL9300_FIELDS
 .data.HSA_DATA6_RTL9300_FIELDS
                0x0000000083fa231c       0x60 board/Realtek/rtl9300/librtl9300.o
                0x0000000083fa231c                HSA_DATA6_RTL9300_FIELDS
 .data.HSA_DATA5_RTL9300_FIELDS
                0x0000000083fa237c       0x68 board/Realtek/rtl9300/librtl9300.o
                0x0000000083fa237c                HSA_DATA5_RTL9300_FIELDS
 .data.HSA_DATA4_RTL9300_FIELDS
                0x0000000083fa23e4       0x18 board/Realtek/rtl9300/librtl9300.o
                0x0000000083fa23e4                HSA_DATA4_RTL9300_FIELDS
 .data.HSA_DATA3_RTL9300_FIELDS
                0x0000000083fa23fc       0x80 board/Realtek/rtl9300/librtl9300.o
                0x0000000083fa23fc                HSA_DATA3_RTL9300_FIELDS
 .data.HSA_DATA2_RTL9300_FIELDS
                0x0000000083fa247c       0x20 board/Realtek/rtl9300/librtl9300.o
                0x0000000083fa247c                HSA_DATA2_RTL9300_FIELDS
 .data.HSA_DATA1_RTL9300_FIELDS
                0x0000000083fa249c       0x18 board/Realtek/rtl9300/librtl9300.o
                0x0000000083fa249c                HSA_DATA1_RTL9300_FIELDS
 .data.HSA_DATA0_RTL9300_FIELDS
                0x0000000083fa24b4       0x78 board/Realtek/rtl9300/librtl9300.o
                0x0000000083fa24b4                HSA_DATA0_RTL9300_FIELDS
 .data.DMY_REG0_HSB_RTL9300_FIELDS
                0x0000000083fa252c        0x8 board/Realtek/rtl9300/librtl9300.o
                0x0000000083fa252c                DMY_REG0_HSB_RTL9300_FIELDS
 .data.HSB_DATA29_RTL9300_FIELDS
                0x0000000083fa2534       0x28 board/Realtek/rtl9300/librtl9300.o
                0x0000000083fa2534                HSB_DATA29_RTL9300_FIELDS
 .data.HSB_DATA28_RTL9300_FIELDS
                0x0000000083fa255c       0xc0 board/Realtek/rtl9300/librtl9300.o
                0x0000000083fa255c                HSB_DATA28_RTL9300_FIELDS
 .data.HSB_DATA27_RTL9300_FIELDS
                0x0000000083fa261c        0x8 board/Realtek/rtl9300/librtl9300.o
                0x0000000083fa261c                HSB_DATA27_RTL9300_FIELDS
 .data.HSB_DATA26_RTL9300_FIELDS
                0x0000000083fa2624       0x10 board/Realtek/rtl9300/librtl9300.o
                0x0000000083fa2624                HSB_DATA26_RTL9300_FIELDS
 .data.HSB_DATA25_RTL9300_FIELDS
                0x0000000083fa2634        0x8 board/Realtek/rtl9300/librtl9300.o
                0x0000000083fa2634                HSB_DATA25_RTL9300_FIELDS
 .data.HSB_DATA24_RTL9300_FIELDS
                0x0000000083fa263c       0x10 board/Realtek/rtl9300/librtl9300.o
                0x0000000083fa263c                HSB_DATA24_RTL9300_FIELDS
 .data.HSB_DATA23_RTL9300_FIELDS
                0x0000000083fa264c       0x10 board/Realtek/rtl9300/librtl9300.o
                0x0000000083fa264c                HSB_DATA23_RTL9300_FIELDS
 .data.HSB_DATA22_RTL9300_FIELDS
                0x0000000083fa265c        0x8 board/Realtek/rtl9300/librtl9300.o
                0x0000000083fa265c                HSB_DATA22_RTL9300_FIELDS
 .data.HSB_DATA21_RTL9300_FIELDS
                0x0000000083fa2664        0x8 board/Realtek/rtl9300/librtl9300.o
                0x0000000083fa2664                HSB_DATA21_RTL9300_FIELDS
 .data.HSB_DATA20_RTL9300_FIELDS
                0x0000000083fa266c       0x20 board/Realtek/rtl9300/librtl9300.o
                0x0000000083fa266c                HSB_DATA20_RTL9300_FIELDS
 .data.HSB_DATA19_RTL9300_FIELDS
                0x0000000083fa268c       0x20 board/Realtek/rtl9300/librtl9300.o
                0x0000000083fa268c                HSB_DATA19_RTL9300_FIELDS
 .data.HSB_DATA18_RTL9300_FIELDS
                0x0000000083fa26ac       0x10 board/Realtek/rtl9300/librtl9300.o
                0x0000000083fa26ac                HSB_DATA18_RTL9300_FIELDS
 .data.HSB_DATA17_RTL9300_FIELDS
                0x0000000083fa26bc        0x8 board/Realtek/rtl9300/librtl9300.o
                0x0000000083fa26bc                HSB_DATA17_RTL9300_FIELDS
 .data.HSB_DATA16_RTL9300_FIELDS
                0x0000000083fa26c4       0x10 board/Realtek/rtl9300/librtl9300.o
                0x0000000083fa26c4                HSB_DATA16_RTL9300_FIELDS
 .data.HSB_DATA15_RTL9300_FIELDS
                0x0000000083fa26d4        0x8 board/Realtek/rtl9300/librtl9300.o
                0x0000000083fa26d4                HSB_DATA15_RTL9300_FIELDS
 .data.HSB_DATA14_RTL9300_FIELDS
                0x0000000083fa26dc       0x10 board/Realtek/rtl9300/librtl9300.o
                0x0000000083fa26dc                HSB_DATA14_RTL9300_FIELDS
 .data.HSB_DATA13_RTL9300_FIELDS
                0x0000000083fa26ec       0x28 board/Realtek/rtl9300/librtl9300.o
                0x0000000083fa26ec                HSB_DATA13_RTL9300_FIELDS
 .data.HSB_DATA12_RTL9300_FIELDS
                0x0000000083fa2714       0x10 board/Realtek/rtl9300/librtl9300.o
                0x0000000083fa2714                HSB_DATA12_RTL9300_FIELDS
 .data.HSB_DATA11_RTL9300_FIELDS
                0x0000000083fa2724       0x10 board/Realtek/rtl9300/librtl9300.o
                0x0000000083fa2724                HSB_DATA11_RTL9300_FIELDS
 .data.HSB_DATA10_RTL9300_FIELDS
                0x0000000083fa2734       0x10 board/Realtek/rtl9300/librtl9300.o
                0x0000000083fa2734                HSB_DATA10_RTL9300_FIELDS
 .data.HSB_DATA9_RTL9300_FIELDS
                0x0000000083fa2744       0x10 board/Realtek/rtl9300/librtl9300.o
                0x0000000083fa2744                HSB_DATA9_RTL9300_FIELDS
 .data.HSB_DATA8_RTL9300_FIELDS
                0x0000000083fa2754       0x10 board/Realtek/rtl9300/librtl9300.o
                0x0000000083fa2754                HSB_DATA8_RTL9300_FIELDS
 .data.HSB_DATA7_RTL9300_FIELDS
                0x0000000083fa2764       0x10 board/Realtek/rtl9300/librtl9300.o
                0x0000000083fa2764                HSB_DATA7_RTL9300_FIELDS
 .data.HSB_DATA6_RTL9300_FIELDS
                0x0000000083fa2774       0x10 board/Realtek/rtl9300/librtl9300.o
                0x0000000083fa2774                HSB_DATA6_RTL9300_FIELDS
 .data.HSB_DATA5_RTL9300_FIELDS
                0x0000000083fa2784       0x10 board/Realtek/rtl9300/librtl9300.o
                0x0000000083fa2784                HSB_DATA5_RTL9300_FIELDS
 .data.HSB_DATA4_RTL9300_FIELDS
                0x0000000083fa2794        0x8 board/Realtek/rtl9300/librtl9300.o
                0x0000000083fa2794                HSB_DATA4_RTL9300_FIELDS
 .data.HSB_DATA3_RTL9300_FIELDS
                0x0000000083fa279c        0x8 board/Realtek/rtl9300/librtl9300.o
                0x0000000083fa279c                HSB_DATA3_RTL9300_FIELDS
 .data.HSB_DATA2_RTL9300_FIELDS
                0x0000000083fa27a4        0x8 board/Realtek/rtl9300/librtl9300.o
                0x0000000083fa27a4                HSB_DATA2_RTL9300_FIELDS
 .data.HSB_DATA1_RTL9300_FIELDS
                0x0000000083fa27ac        0x8 board/Realtek/rtl9300/librtl9300.o
                0x0000000083fa27ac                HSB_DATA1_RTL9300_FIELDS
 .data.HSB_DATA0_RTL9300_FIELDS
                0x0000000083fa27b4       0x28 board/Realtek/rtl9300/librtl9300.o
                0x0000000083fa27b4                HSB_DATA0_RTL9300_FIELDS
 .data.DMY_REG0_PKT_PARSER_RTL9300_FIELDS
                0x0000000083fa27dc        0x8 board/Realtek/rtl9300/librtl9300.o
                0x0000000083fa27dc                DMY_REG0_PKT_PARSER_RTL9300_FIELDS
 .data.PARSER_DROP_REASON_RTL9300_FIELDS
                0x0000000083fa27e4       0x10 board/Realtek/rtl9300/librtl9300.o
                0x0000000083fa27e4                PARSER_DROP_REASON_RTL9300_FIELDS
 .data.PARSER_CTRL_RTL9300_FIELDS
                0x0000000083fa27f4       0x18 board/Realtek/rtl9300/librtl9300.o
                0x0000000083fa27f4                PARSER_CTRL_RTL9300_FIELDS
 .data.PARSER_FIELD_SELTOR_CTRL_RTL9300_FIELDS
                0x0000000083fa280c       0x18 board/Realtek/rtl9300/librtl9300.o
                0x0000000083fa280c                PARSER_FIELD_SELTOR_CTRL_RTL9300_FIELDS
 .data.STK_DBG_CTRL_RTL9300_FIELDS
                0x0000000083fa2824       0x10 board/Realtek/rtl9300/librtl9300.o
                0x0000000083fa2824                STK_DBG_CTRL_RTL9300_FIELDS
 .data.STK_ONE_HOP_REDIR_PM_CTRL_RTL9300_FIELDS
                0x0000000083fa2834        0x8 board/Realtek/rtl9300/librtl9300.o
                0x0000000083fa2834                STK_ONE_HOP_REDIR_PM_CTRL_RTL9300_FIELDS
 .data.STK_CASCADE_CTRL_RTL9300_FIELDS
                0x0000000083fa283c       0x18 board/Realtek/rtl9300/librtl9300.o
                0x0000000083fa283c                STK_CASCADE_CTRL_RTL9300_FIELDS
 .data.STK_NON_UNICAST_BLOCK_CTRL_RTL9300_FIELDS
                0x0000000083fa2854        0x8 board/Realtek/rtl9300/librtl9300.o
                0x0000000083fa2854                STK_NON_UNICAST_BLOCK_CTRL_RTL9300_FIELDS
 .data.STK_DEV_PORT_MAP_CTRL_RTL9300_FIELDS
                0x0000000083fa285c        0x8 board/Realtek/rtl9300/librtl9300.o
                0x0000000083fa285c                STK_DEV_PORT_MAP_CTRL_RTL9300_FIELDS
 .data.STK_GLB_CTRL_RTL9300_FIELDS
                0x0000000083fa2864       0x28 board/Realtek/rtl9300/librtl9300.o
                0x0000000083fa2864                STK_GLB_CTRL_RTL9300_FIELDS
 .data.DMY_REG1_ALE_ACL_GLB_RTL9300_FIELDS
                0x0000000083fa288c        0x8 board/Realtek/rtl9300/librtl9300.o
                0x0000000083fa288c                DMY_REG1_ALE_ACL_GLB_RTL9300_FIELDS
 .data.ACL_CTRL_RTL9300_FIELDS
                0x0000000083fa2894       0x18 board/Realtek/rtl9300/librtl9300.o
                0x0000000083fa2894                ACL_CTRL_RTL9300_FIELDS
 .data.ACL_PORT_LOOKUP_CTRL_RTL9300_FIELDS
                0x0000000083fa28ac       0x10 board/Realtek/rtl9300/librtl9300.o
                0x0000000083fa28ac                ACL_PORT_LOOKUP_CTRL_RTL9300_FIELDS
 .data.DMY_REG3_RT_REG_RTL9300_FIELDS
                0x0000000083fa28bc        0x8 board/Realtek/rtl9300/librtl9300.o
                0x0000000083fa28bc                DMY_REG3_RT_REG_RTL9300_FIELDS
 .data.DMY_REG2_RT_REG_RTL9300_FIELDS
                0x0000000083fa28c4        0x8 board/Realtek/rtl9300/librtl9300.o
                0x0000000083fa28c4                DMY_REG2_RT_REG_RTL9300_FIELDS
 .data.DMY_REG1_RT_REG_RTL9300_FIELDS
                0x0000000083fa28cc        0x8 board/Realtek/rtl9300/librtl9300.o
                0x0000000083fa28cc                DMY_REG1_RT_REG_RTL9300_FIELDS
 .data.L3_HW_LU_CTRL_RTL9300_FIELDS
                0x0000000083fa28d4       0x40 board/Realtek/rtl9300/librtl9300.o
                0x0000000083fa28d4                L3_HW_LU_CTRL_RTL9300_FIELDS
 .data.L3_HW_LU_KEY_DIP_CTRL_RTL9300_FIELDS
                0x0000000083fa2914       0x20 board/Realtek/rtl9300/librtl9300.o
                0x0000000083fa2914                L3_HW_LU_KEY_DIP_CTRL_RTL9300_FIELDS
 .data.L3_HW_LU_KEY_IP_CTRL_RTL9300_FIELDS
                0x0000000083fa2934       0x20 board/Realtek/rtl9300/librtl9300.o
                0x0000000083fa2934                L3_HW_LU_KEY_IP_CTRL_RTL9300_FIELDS
 .data.L3_HW_LU_KEY_CTRL_RTL9300_FIELDS
                0x0000000083fa2954       0x30 board/Realtek/rtl9300/librtl9300.o
                0x0000000083fa2954                L3_HW_LU_KEY_CTRL_RTL9300_FIELDS
 .data.L3_ENTRY_MV_PARAM_RTL9300_FIELDS
                0x0000000083fa2984       0x10 board/Realtek/rtl9300/librtl9300.o
                0x0000000083fa2984                L3_ENTRY_MV_PARAM_RTL9300_FIELDS
 .data.L3_ENTRY_MV_CTRL_RTL9300_FIELDS
                0x0000000083fa2994       0x28 board/Realtek/rtl9300/librtl9300.o
                0x0000000083fa2994                L3_ENTRY_MV_CTRL_RTL9300_FIELDS
 .data.L3_ENTRY_COUNTER_DATA_RTL9300_FIELDS
                0x0000000083fa29bc       0x10 board/Realtek/rtl9300/librtl9300.o
                0x0000000083fa29bc                L3_ENTRY_COUNTER_DATA_RTL9300_FIELDS
 .data.L3_ENTRY_COUNTER_CTRL_RTL9300_FIELDS
                0x0000000083fa29cc       0x28 board/Realtek/rtl9300/librtl9300.o
                0x0000000083fa29cc                L3_ENTRY_COUNTER_CTRL_RTL9300_FIELDS
 .data.L3_PORT_IP6_ROUTE_CTRL_RTL9300_FIELDS
                0x0000000083fa29f4       0x28 board/Realtek/rtl9300/librtl9300.o
                0x0000000083fa29f4                L3_PORT_IP6_ROUTE_CTRL_RTL9300_FIELDS
 .data.L3_PORT_IP_ROUTE_CTRL_RTL9300_FIELDS
                0x0000000083fa2a1c       0x28 board/Realtek/rtl9300/librtl9300.o
                0x0000000083fa2a1c                L3_PORT_IP_ROUTE_CTRL_RTL9300_FIELDS
 .data.L3_IP6_MTU_CTRL_RTL9300_FIELDS
                0x0000000083fa2a44        0x8 board/Realtek/rtl9300/librtl9300.o
                0x0000000083fa2a44                L3_IP6_MTU_CTRL_RTL9300_FIELDS
 .data.L3_IP_MTU_CTRL_RTL9300_FIELDS
                0x0000000083fa2a4c        0x8 board/Realtek/rtl9300/librtl9300.o
                0x0000000083fa2a4c                L3_IP_MTU_CTRL_RTL9300_FIELDS
 .data.L3_IP6MC_ROUTE_CTRL_RTL9300_FIELDS
                0x0000000083fa2a54       0x68 board/Realtek/rtl9300/librtl9300.o
                0x0000000083fa2a54                L3_IP6MC_ROUTE_CTRL_RTL9300_FIELDS
 .data.L3_IPMC_ROUTE_CTRL_RTL9300_FIELDS
                0x0000000083fa2abc       0x58 board/Realtek/rtl9300/librtl9300.o
                0x0000000083fa2abc                L3_IPMC_ROUTE_CTRL_RTL9300_FIELDS
 .data.L3_IP6UC_ROUTE_CTRL_RTL9300_FIELDS
                0x0000000083fa2b14       0x60 board/Realtek/rtl9300/librtl9300.o
                0x0000000083fa2b14                L3_IP6UC_ROUTE_CTRL_RTL9300_FIELDS
 .data.L3_IPUC_ROUTE_CTRL_RTL9300_FIELDS
                0x0000000083fa2b74       0x58 board/Realtek/rtl9300/librtl9300.o
                0x0000000083fa2b74                L3_IPUC_ROUTE_CTRL_RTL9300_FIELDS
 .data.L3_HOST_TBL_CTRL_RTL9300_FIELDS
                0x0000000083fa2bcc       0x38 board/Realtek/rtl9300/librtl9300.o
                0x0000000083fa2bcc                L3_HOST_TBL_CTRL_RTL9300_FIELDS
 .data.L3_IP_ROUTE_CTRL_RTL9300_FIELDS
                0x0000000083fa2c04       0x30 board/Realtek/rtl9300/librtl9300.o
                0x0000000083fa2c04                L3_IP_ROUTE_CTRL_RTL9300_FIELDS
 .data.DMY_REG3_PKT_ENCAP_RTL9300_FIELDS
                0x0000000083fa2c34        0x8 board/Realtek/rtl9300/librtl9300.o
                0x0000000083fa2c34                DMY_REG3_PKT_ENCAP_RTL9300_FIELDS
 .data.RMK_DPINTPRI2DSCP_CTRL_RTL9300_FIELDS
                0x0000000083fa2c3c        0x8 board/Realtek/rtl9300/librtl9300.o
                0x0000000083fa2c3c                RMK_DPINTPRI2DSCP_CTRL_RTL9300_FIELDS
 .data.RMK_DSCP2DSCP_CTRL_RTL9300_FIELDS
                0x0000000083fa2c44        0x8 board/Realtek/rtl9300/librtl9300.o
                0x0000000083fa2c44                RMK_DSCP2DSCP_CTRL_RTL9300_FIELDS
 .data.RMK_OPRI2DSCP_CTRL_RTL9300_FIELDS
                0x0000000083fa2c4c        0x8 board/Realtek/rtl9300/librtl9300.o
                0x0000000083fa2c4c                RMK_OPRI2DSCP_CTRL_RTL9300_FIELDS
 .data.RMK_IPRI2DSCP_CTRL_RTL9300_FIELDS
                0x0000000083fa2c54        0x8 board/Realtek/rtl9300/librtl9300.o
                0x0000000083fa2c54                RMK_IPRI2DSCP_CTRL_RTL9300_FIELDS
 .data.RMK_INTPRI2DSCP_CTRL_RTL9300_FIELDS
                0x0000000083fa2c5c        0x8 board/Realtek/rtl9300/librtl9300.o
                0x0000000083fa2c5c                RMK_INTPRI2DSCP_CTRL_RTL9300_FIELDS
 .data.RMK_DP2DEI_CTRL_RTL9300_FIELDS
                0x0000000083fa2c64        0x8 board/Realtek/rtl9300/librtl9300.o
                0x0000000083fa2c64                RMK_DP2DEI_CTRL_RTL9300_FIELDS
 .data.RMK_INTPRI2DEI_CTRL_RTL9300_FIELDS
                0x0000000083fa2c6c        0x8 board/Realtek/rtl9300/librtl9300.o
                0x0000000083fa2c6c                RMK_INTPRI2DEI_CTRL_RTL9300_FIELDS
 .data.RMK_DSCP2OPRI_CTRL_RTL9300_FIELDS
                0x0000000083fa2c74        0x8 board/Realtek/rtl9300/librtl9300.o
                0x0000000083fa2c74                RMK_DSCP2OPRI_CTRL_RTL9300_FIELDS
 .data.RMK_OPRI2OPRI_CTRL_RTL9300_FIELDS
                0x0000000083fa2c7c        0x8 board/Realtek/rtl9300/librtl9300.o
                0x0000000083fa2c7c                RMK_OPRI2OPRI_CTRL_RTL9300_FIELDS
 .data.RMK_IPRI2OPRI_CTRL_RTL9300_FIELDS
                0x0000000083fa2c84        0x8 board/Realtek/rtl9300/librtl9300.o
                0x0000000083fa2c84                RMK_IPRI2OPRI_CTRL_RTL9300_FIELDS
 .data.RMK_INTPRI2OPRI_CTRL_RTL9300_FIELDS
                0x0000000083fa2c8c        0x8 board/Realtek/rtl9300/librtl9300.o
                0x0000000083fa2c8c                RMK_INTPRI2OPRI_CTRL_RTL9300_FIELDS
 .data.RMK_DSCP2IPRI_CTRL_RTL9300_FIELDS
                0x0000000083fa2c94        0x8 board/Realtek/rtl9300/librtl9300.o
                0x0000000083fa2c94                RMK_DSCP2IPRI_CTRL_RTL9300_FIELDS
 .data.RMK_OPRI2IPRI_CTRL_RTL9300_FIELDS
                0x0000000083fa2c9c        0x8 board/Realtek/rtl9300/librtl9300.o
                0x0000000083fa2c9c                RMK_OPRI2IPRI_CTRL_RTL9300_FIELDS
 .data.RMK_IPRI2IPRI_CTRL_RTL9300_FIELDS
                0x0000000083fa2ca4        0x8 board/Realtek/rtl9300/librtl9300.o
                0x0000000083fa2ca4                RMK_IPRI2IPRI_CTRL_RTL9300_FIELDS
 .data.RMK_INTPRI2IPRI_CTRL_RTL9300_FIELDS
                0x0000000083fa2cac        0x8 board/Realtek/rtl9300/librtl9300.o
                0x0000000083fa2cac                RMK_INTPRI2IPRI_CTRL_RTL9300_FIELDS
 .data.RMK_PORT_CTRL_RTL9300_FIELDS
                0x0000000083fa2cb4       0x30 board/Realtek/rtl9300/librtl9300.o
                0x0000000083fa2cb4                RMK_PORT_CTRL_RTL9300_FIELDS
 .data.RMK_CTRL_RTL9300_FIELDS
                0x0000000083fa2ce4       0x38 board/Realtek/rtl9300/librtl9300.o
                0x0000000083fa2ce4                RMK_CTRL_RTL9300_FIELDS
 .data.DMY_REG3_PORT_TXQ_REG_4P_RTL9300_FIELDS
                0x0000000083fa2d1c        0x8 board/Realtek/rtl9300/librtl9300.o
                0x0000000083fa2d1c                DMY_REG3_PORT_TXQ_REG_4P_RTL9300_FIELDS
 .data.DMY_REG2_PORT_TXQ_REG_4P_RTL9300_FIELDS
                0x0000000083fa2d24        0x8 board/Realtek/rtl9300/librtl9300.o
                0x0000000083fa2d24                DMY_REG2_PORT_TXQ_REG_4P_RTL9300_FIELDS
 .data.DMY_REG1_PORT_TXQ_REG_4P_RTL9300_FIELDS
                0x0000000083fa2d2c        0x8 board/Realtek/rtl9300/librtl9300.o
                0x0000000083fa2d2c                DMY_REG1_PORT_TXQ_REG_4P_RTL9300_FIELDS
 .data.DMY_REG0_PORT_TXQ_REG_4P_RTL9300_FIELDS
                0x0000000083fa2d34        0x8 board/Realtek/rtl9300/librtl9300.o
                0x0000000083fa2d34                DMY_REG0_PORT_TXQ_REG_4P_RTL9300_FIELDS
 .data.DMY_REG0_PER_PORT_TXQ_REG_24P_RTL9300_FIELDS
                0x0000000083fa2d3c        0x8 board/Realtek/rtl9300/librtl9300.o
                0x0000000083fa2d3c                DMY_REG0_PER_PORT_TXQ_REG_24P_RTL9300_FIELDS
 .data.DMY_REG0_QUEUE_RTL9300_FIELDS
                0x0000000083fa2d44       0x18 board/Realtek/rtl9300/librtl9300.o
                0x0000000083fa2d44                DMY_REG0_QUEUE_RTL9300_FIELDS
 .data.DMY_REG2_EGRESS_CTRL_RTL9300_FIELDS
                0x0000000083fa2d5c        0x8 board/Realtek/rtl9300/librtl9300.o
                0x0000000083fa2d5c                DMY_REG2_EGRESS_CTRL_RTL9300_FIELDS
 .data.SCHED_PORT_ALGO_CTRL_RTL9300_FIELDS
                0x0000000083fa2d64        0x8 board/Realtek/rtl9300/librtl9300.o
                0x0000000083fa2d64                SCHED_PORT_ALGO_CTRL_RTL9300_FIELDS
 .data.SCHED_CPU_Q_CTRL_RTL9300_FIELDS
                0x0000000083fa2d6c       0x18 board/Realtek/rtl9300/librtl9300.o
                0x0000000083fa2d6c                SCHED_CPU_Q_CTRL_RTL9300_FIELDS
 .data.SCHED_PORT_Q_CTRL_SET1_RTL9300_FIELDS
                0x0000000083fa2d84       0x18 board/Realtek/rtl9300/librtl9300.o
                0x0000000083fa2d84                SCHED_PORT_Q_CTRL_SET1_RTL9300_FIELDS
 .data.SCHED_PORT_Q_CTRL_SET0_RTL9300_FIELDS
                0x0000000083fa2d9c       0x18 board/Realtek/rtl9300/librtl9300.o
                0x0000000083fa2d9c                SCHED_PORT_Q_CTRL_SET0_RTL9300_FIELDS
 .data.QM_FLAG2CPUQID_CTRL_1_RTL9300_FIELDS
                0x0000000083fa2db4       0x38 board/Realtek/rtl9300/librtl9300.o
                0x0000000083fa2db4                QM_FLAG2CPUQID_CTRL_1_RTL9300_FIELDS
 .data.QM_FLAG2CPUQID_CTRL_0_RTL9300_FIELDS
                0x0000000083fa2dec       0x38 board/Realtek/rtl9300/librtl9300.o
                0x0000000083fa2dec                QM_FLAG2CPUQID_CTRL_0_RTL9300_FIELDS
 .data.QM_RSN2CPUQID_CTRL_8_RTL9300_FIELDS
                0x0000000083fa2e24       0x10 board/Realtek/rtl9300/librtl9300.o
                0x0000000083fa2e24                QM_RSN2CPUQID_CTRL_8_RTL9300_FIELDS
 .data.QM_RSN2CPUQID_CTRL_7_RTL9300_FIELDS
                0x0000000083fa2e34       0x38 board/Realtek/rtl9300/librtl9300.o
                0x0000000083fa2e34                QM_RSN2CPUQID_CTRL_7_RTL9300_FIELDS
 .data.QM_RSN2CPUQID_CTRL_6_RTL9300_FIELDS
                0x0000000083fa2e6c       0x38 board/Realtek/rtl9300/librtl9300.o
                0x0000000083fa2e6c                QM_RSN2CPUQID_CTRL_6_RTL9300_FIELDS
 .data.QM_RSN2CPUQID_CTRL_5_RTL9300_FIELDS
                0x0000000083fa2ea4       0x38 board/Realtek/rtl9300/librtl9300.o
                0x0000000083fa2ea4                QM_RSN2CPUQID_CTRL_5_RTL9300_FIELDS
 .data.QM_RSN2CPUQID_CTRL_4_RTL9300_FIELDS
                0x0000000083fa2edc       0x38 board/Realtek/rtl9300/librtl9300.o
                0x0000000083fa2edc                QM_RSN2CPUQID_CTRL_4_RTL9300_FIELDS
 .data.QM_RSN2CPUQID_CTRL_3_RTL9300_FIELDS
                0x0000000083fa2f14       0x38 board/Realtek/rtl9300/librtl9300.o
                0x0000000083fa2f14                QM_RSN2CPUQID_CTRL_3_RTL9300_FIELDS
 .data.QM_RSN2CPUQID_CTRL_2_RTL9300_FIELDS
                0x0000000083fa2f4c       0x38 board/Realtek/rtl9300/librtl9300.o
                0x0000000083fa2f4c                QM_RSN2CPUQID_CTRL_2_RTL9300_FIELDS
 .data.QM_RSN2CPUQID_CTRL_1_RTL9300_FIELDS
                0x0000000083fa2f84       0x38 board/Realtek/rtl9300/librtl9300.o
                0x0000000083fa2f84                QM_RSN2CPUQID_CTRL_1_RTL9300_FIELDS
 .data.QM_RSN2CPUQID_CTRL_0_RTL9300_FIELDS
                0x0000000083fa2fbc       0x38 board/Realtek/rtl9300/librtl9300.o
                0x0000000083fa2fbc                QM_RSN2CPUQID_CTRL_0_RTL9300_FIELDS
 .data.QM_CPUQID2XGQID_CTRL_RTL9300_FIELDS
                0x0000000083fa2ff4        0x8 board/Realtek/rtl9300/librtl9300.o
                0x0000000083fa2ff4                QM_CPUQID2XGQID_CTRL_RTL9300_FIELDS
 .data.QM_CPUQID2QID_CTRL_RTL9300_FIELDS
                0x0000000083fa2ffc        0x8 board/Realtek/rtl9300/librtl9300.o
                0x0000000083fa2ffc                QM_CPUQID2QID_CTRL_RTL9300_FIELDS
 .data.QM_INTPRI2QID_CTRL_RTL9300_FIELDS
                0x0000000083fa3004        0x8 board/Realtek/rtl9300/librtl9300.o
                0x0000000083fa3004                QM_INTPRI2QID_CTRL_RTL9300_FIELDS
 .data.DMY_REG0_INGPRI_RTL9300_FIELDS
                0x0000000083fa300c        0x8 board/Realtek/rtl9300/librtl9300.o
                0x0000000083fa300c                DMY_REG0_INGPRI_RTL9300_FIELDS
 .data.DP_SEL_PORT_TBL_CTRL_RTL9300_FIELDS
                0x0000000083fa3014       0x30 board/Realtek/rtl9300/librtl9300.o
                0x0000000083fa3014                DP_SEL_PORT_TBL_CTRL_RTL9300_FIELDS
 .data.DP_SEL_REMAP_DSCP_RTL9300_FIELDS
                0x0000000083fa3044        0x8 board/Realtek/rtl9300/librtl9300.o
                0x0000000083fa3044                DP_SEL_REMAP_DSCP_RTL9300_FIELDS
 .data.DP_SEL_REMAP_OTAG_DEI1_RTL9300_FIELDS
                0x0000000083fa304c        0x8 board/Realtek/rtl9300/librtl9300.o
                0x0000000083fa304c                DP_SEL_REMAP_OTAG_DEI1_RTL9300_FIELDS
 .data.DP_SEL_REMAP_OTAG_DEI0_RTL9300_FIELDS
                0x0000000083fa3054        0x8 board/Realtek/rtl9300/librtl9300.o
                0x0000000083fa3054                DP_SEL_REMAP_OTAG_DEI0_RTL9300_FIELDS
 .data.DP_SEL_REMAP_ITAG_CFI1_RTL9300_FIELDS
                0x0000000083fa305c        0x8 board/Realtek/rtl9300/librtl9300.o
                0x0000000083fa305c                DP_SEL_REMAP_ITAG_CFI1_RTL9300_FIELDS
 .data.DP_SEL_REMAP_ITAG_CFI0_RTL9300_FIELDS
                0x0000000083fa3064        0x8 board/Realtek/rtl9300/librtl9300.o
                0x0000000083fa3064                DP_SEL_REMAP_ITAG_CFI0_RTL9300_FIELDS
 .data.PRI_SEL_TBL_CTRL_RTL9300_FIELDS
                0x0000000083fa306c       0x40 board/Realtek/rtl9300/librtl9300.o
                0x0000000083fa306c                PRI_SEL_TBL_CTRL_RTL9300_FIELDS
 .data.PRI_SEL_PORT_TBL_IDX_CTRL_RTL9300_FIELDS
                0x0000000083fa30ac        0x8 board/Realtek/rtl9300/librtl9300.o
                0x0000000083fa30ac                PRI_SEL_PORT_TBL_IDX_CTRL_RTL9300_FIELDS
 .data.PRI_SEL_REMAP_DSCP_RTL9300_FIELDS
                0x0000000083fa30b4        0x8 board/Realtek/rtl9300/librtl9300.o
                0x0000000083fa30b4                PRI_SEL_REMAP_DSCP_RTL9300_FIELDS
 .data.PRI_SEL_REMAP_OPRI_DEI1_RTL9300_FIELDS
                0x0000000083fa30bc        0x8 board/Realtek/rtl9300/librtl9300.o
                0x0000000083fa30bc                PRI_SEL_REMAP_OPRI_DEI1_RTL9300_FIELDS
 .data.PRI_SEL_REMAP_OPRI_DEI0_RTL9300_FIELDS
                0x0000000083fa30c4        0x8 board/Realtek/rtl9300/librtl9300.o
                0x0000000083fa30c4                PRI_SEL_REMAP_OPRI_DEI0_RTL9300_FIELDS
 .data.PRI_SEL_REMAP_IPRI_CFI1_RTL9300_FIELDS
                0x0000000083fa30cc        0x8 board/Realtek/rtl9300/librtl9300.o
                0x0000000083fa30cc                PRI_SEL_REMAP_IPRI_CFI1_RTL9300_FIELDS
 .data.PRI_SEL_REMAP_IPRI_CFI0_RTL9300_FIELDS
                0x0000000083fa30d4        0x8 board/Realtek/rtl9300/librtl9300.o
                0x0000000083fa30d4                PRI_SEL_REMAP_IPRI_CFI0_RTL9300_FIELDS
 .data.PRI_SEL_REMAP_PORT_RTL9300_FIELDS
                0x0000000083fa30dc        0x8 board/Realtek/rtl9300/librtl9300.o
                0x0000000083fa30dc                PRI_SEL_REMAP_PORT_RTL9300_FIELDS
 .data.PRI_SEL_PORT_CTRL_RTL9300_FIELDS
                0x0000000083fa30e4        0x8 board/Realtek/rtl9300/librtl9300.o
                0x0000000083fa30e4                PRI_SEL_PORT_CTRL_RTL9300_FIELDS
 .data.PRI_SEL_CTRL_RTL9300_FIELDS
                0x0000000083fa30ec       0x38 board/Realtek/rtl9300/librtl9300.o
                0x0000000083fa30ec                PRI_SEL_CTRL_RTL9300_FIELDS
 .data.DMY_REG0_ALE_DBG_CNT_RTL9300_FIELDS
                0x0000000083fa3124        0x8 board/Realtek/rtl9300/librtl9300.o
                0x0000000083fa3124                DMY_REG0_ALE_DBG_CNT_RTL9300_FIELDS
 .data.SC_P_EN_RTL9300_FIELDS
                0x0000000083fa312c       0x30 board/Realtek/rtl9300/librtl9300.o
                0x0000000083fa312c                SC_P_EN_RTL9300_FIELDS
 .data.SC_P_CTRL_RTL9300_FIELDS
                0x0000000083fa315c       0x20 board/Realtek/rtl9300/librtl9300.o
                0x0000000083fa315c                SC_P_CTRL_RTL9300_FIELDS
 .data.SWRED_DROP_CNTR_RST_RTL9300_FIELDS
                0x0000000083fa317c       0x10 board/Realtek/rtl9300/librtl9300.o
                0x0000000083fa317c                SWRED_DROP_CNTR_RST_RTL9300_FIELDS
 .data.SWRED_DROP_CNTR_RTL9300_FIELDS
                0x0000000083fa318c        0x8 board/Realtek/rtl9300/librtl9300.o
                0x0000000083fa318c                SWRED_DROP_CNTR_RTL9300_FIELDS
 .data.SWRED_DROP_CNTR_CIDX_RTL9300_FIELDS
                0x0000000083fa3194        0x8 board/Realtek/rtl9300/librtl9300.o
                0x0000000083fa3194                SWRED_DROP_CNTR_CIDX_RTL9300_FIELDS
 .data.SWRED_DROP_CNTR_PIDX_RTL9300_FIELDS
                0x0000000083fa319c        0x8 board/Realtek/rtl9300/librtl9300.o
                0x0000000083fa319c                SWRED_DROP_CNTR_PIDX_RTL9300_FIELDS
 .data.SWRED_QUEUE_DROP_CTRL_RTL9300_FIELDS
                0x0000000083fa31a4       0x18 board/Realtek/rtl9300/librtl9300.o
                0x0000000083fa31a4                SWRED_QUEUE_DROP_CTRL_RTL9300_FIELDS
 .data.SWRED_PORT_CTRL_RTL9300_FIELDS
                0x0000000083fa31bc        0x8 board/Realtek/rtl9300/librtl9300.o
                0x0000000083fa31bc                SWRED_PORT_CTRL_RTL9300_FIELDS
 .data.DMY_REG1_INGRESS_CTRL_RTL9300_FIELDS
                0x0000000083fa31c4        0x8 board/Realtek/rtl9300/librtl9300.o
                0x0000000083fa31c4                DMY_REG1_INGRESS_CTRL_RTL9300_FIELDS
 .data.DMY_REG0_INGRESS_CTRL_RTL9300_FIELDS
                0x0000000083fa31cc        0x8 board/Realtek/rtl9300/librtl9300.o
                0x0000000083fa31cc                DMY_REG0_INGRESS_CTRL_RTL9300_FIELDS
 .data.DMY_REG0_EGRESS_DROP_RTL9300_FIELDS
                0x0000000083fa31d4        0x8 board/Realtek/rtl9300/librtl9300.o
                0x0000000083fa31d4                DMY_REG0_EGRESS_DROP_RTL9300_FIELDS
 .data.DMY_REG0_RT_REG_RTL9300_FIELDS
                0x0000000083fa31dc        0x8 board/Realtek/rtl9300/librtl9300.o
                0x0000000083fa31dc                DMY_REG0_RT_REG_RTL9300_FIELDS
 .data.DMY_REG1_P28_TXQ_REG_RTL9300_FIELDS
                0x0000000083fa31e4        0x8 board/Realtek/rtl9300/librtl9300.o
                0x0000000083fa31e4                DMY_REG1_P28_TXQ_REG_RTL9300_FIELDS
 .data.DMY_REG1_EGRESS_CTRL_RTL9300_FIELDS
                0x0000000083fa31ec        0x8 board/Realtek/rtl9300/librtl9300.o
                0x0000000083fa31ec                DMY_REG1_EGRESS_CTRL_RTL9300_FIELDS
 .data.DMY_REG0_PER_PORT_TXQ_REG_29P_RTL9300_FIELDS
                0x0000000083fa31f4        0x8 board/Realtek/rtl9300/librtl9300.o
                0x0000000083fa31f4                DMY_REG0_PER_PORT_TXQ_REG_29P_RTL9300_FIELDS
 .data.DMY_REG0_PER_PORT_TXQ_REG_28P_RTL9300_FIELDS
                0x0000000083fa31fc        0x8 board/Realtek/rtl9300/librtl9300.o
                0x0000000083fa31fc                DMY_REG0_PER_PORT_TXQ_REG_28P_RTL9300_FIELDS
 .data.ETE_FC_PAUSE_FRAME_PORT_CONGEST_STS_RTL9300_FIELDS
                0x0000000083fa3204       0x10 board/Realtek/rtl9300/librtl9300.o
                0x0000000083fa3204                ETE_FC_PAUSE_FRAME_PORT_CONGEST_STS_RTL9300_FIELDS
 .data.ETE_FC_REMOTE_L2NTFY_PORT_PAGE_CNT_ERROR_RTL9300_FIELDS
                0x0000000083fa3214       0x10 board/Realtek/rtl9300/librtl9300.o
                0x0000000083fa3214                ETE_FC_REMOTE_L2NTFY_PORT_PAGE_CNT_ERROR_RTL9300_FIELDS
 .data.ETE_FC_L2NTFY_PORT_PAGE_CNT_ERROR_RTL9300_FIELDS
                0x0000000083fa3224       0x10 board/Realtek/rtl9300/librtl9300.o
                0x0000000083fa3224                ETE_FC_L2NTFY_PORT_PAGE_CNT_ERROR_RTL9300_FIELDS
 .data.ETE_FC_REMOTE_L2NTFY_PORT_PAGE_CNT_RTL9300_FIELDS
                0x0000000083fa3234       0x20 board/Realtek/rtl9300/librtl9300.o
                0x0000000083fa3234                ETE_FC_REMOTE_L2NTFY_PORT_PAGE_CNT_RTL9300_FIELDS
 .data.ETE_FC_L2NTFY_PORT_PAGE_CNT_RTL9300_FIELDS
                0x0000000083fa3254       0x20 board/Realtek/rtl9300/librtl9300.o
                0x0000000083fa3254                ETE_FC_L2NTFY_PORT_PAGE_CNT_RTL9300_FIELDS
 .data.ETE_FC_REMOTE_PORT_PAGE_CNT_ERROR_RTL9300_FIELDS
                0x0000000083fa3274        0x8 board/Realtek/rtl9300/librtl9300.o
                0x0000000083fa3274                ETE_FC_REMOTE_PORT_PAGE_CNT_ERROR_RTL9300_FIELDS
 .data.ETE_FC_PORT_PAGE_CNT_ERROR_RTL9300_FIELDS
                0x0000000083fa327c        0x8 board/Realtek/rtl9300/librtl9300.o
                0x0000000083fa327c                ETE_FC_PORT_PAGE_CNT_ERROR_RTL9300_FIELDS
 .data.ETE_FC_REMOTE_PORT_PAGE_CNT_RTL9300_FIELDS
                0x0000000083fa3284       0x20 board/Realtek/rtl9300/librtl9300.o
                0x0000000083fa3284                ETE_FC_REMOTE_PORT_PAGE_CNT_RTL9300_FIELDS
 .data.ETE_FC_SPECIAL_PAUSE_SMAC_RTL9300_FIELDS
                0x0000000083fa32a4       0x18 board/Realtek/rtl9300/librtl9300.o
                0x0000000083fa32a4                ETE_FC_SPECIAL_PAUSE_SMAC_RTL9300_FIELDS
 .data.ETE_FC_SPECIAL_PAUSE_DMAC_RTL9300_FIELDS
                0x0000000083fa32bc       0x18 board/Realtek/rtl9300/librtl9300.o
                0x0000000083fa32bc                ETE_FC_SPECIAL_PAUSE_DMAC_RTL9300_FIELDS
 .data.ETE_FC_REMOTE_CONGEST_STS_RTL9300_FIELDS
                0x0000000083fa32d4       0x10 board/Realtek/rtl9300/librtl9300.o
                0x0000000083fa32d4                ETE_FC_REMOTE_CONGEST_STS_RTL9300_FIELDS
 .data.ETE_FC_REMOTE_TX_PAUSE_STS_RTL9300_FIELDS
                0x0000000083fa32e4       0x10 board/Realtek/rtl9300/librtl9300.o
                0x0000000083fa32e4                ETE_FC_REMOTE_TX_PAUSE_STS_RTL9300_FIELDS
 .data.ETE_FC_REMOTE_PORT_THR_SET_SEL_RTL9300_FIELDS
                0x0000000083fa32f4        0x8 board/Realtek/rtl9300/librtl9300.o
                0x0000000083fa32f4                ETE_FC_REMOTE_PORT_THR_SET_SEL_RTL9300_FIELDS
 .data.ETE_FC_REMOTE_PORT_GUAR_THR_RTL9300_FIELDS
                0x0000000083fa32fc       0x10 board/Realtek/rtl9300/librtl9300.o
                0x0000000083fa32fc                ETE_FC_REMOTE_PORT_GUAR_THR_RTL9300_FIELDS
 .data.ETE_FC_OFF_REMOTE_PORT_THR_RTL9300_FIELDS
                0x0000000083fa330c       0x20 board/Realtek/rtl9300/librtl9300.o
                0x0000000083fa330c                ETE_FC_OFF_REMOTE_PORT_THR_RTL9300_FIELDS
 .data.ETE_FC_ON_REMOTE_PORT_THR_RTL9300_FIELDS
                0x0000000083fa332c       0x20 board/Realtek/rtl9300/librtl9300.o
                0x0000000083fa332c                ETE_FC_ON_REMOTE_PORT_THR_RTL9300_FIELDS
 .data.ETE_FC_CASCADE_PORT_DROP_THR_RTL9300_FIELDS
                0x0000000083fa334c       0x20 board/Realtek/rtl9300/librtl9300.o
                0x0000000083fa334c                ETE_FC_CASCADE_PORT_DROP_THR_RTL9300_FIELDS
 .data.ETE_FC_CTRL_RTL9300_FIELDS
                0x0000000083fa336c       0x28 board/Realtek/rtl9300/librtl9300.o
                0x0000000083fa336c                ETE_FC_CTRL_RTL9300_FIELDS
 .data.FC_REPCT_Q_HSA_CNT_RTL9300_FIELDS
                0x0000000083fa3394       0x20 board/Realtek/rtl9300/librtl9300.o
                0x0000000083fa3394                FC_REPCT_Q_HSA_CNT_RTL9300_FIELDS
 .data.FC_REPCT_Q_HSM_CNT_RTL9300_FIELDS
                0x0000000083fa33b4       0x20 board/Realtek/rtl9300/librtl9300.o
                0x0000000083fa33b4                FC_REPCT_Q_HSM_CNT_RTL9300_FIELDS
 .data.FC_REPCT_Q_INT_PRI_MAPPING_RTL9300_FIELDS
                0x0000000083fa33d4        0x8 board/Realtek/rtl9300/librtl9300.o
                0x0000000083fa33d4                FC_REPCT_Q_INT_PRI_MAPPING_RTL9300_FIELDS
 .data.FC_REPCT_Q_PORT_SEL_RTL9300_FIELDS
                0x0000000083fa33dc        0x8 board/Realtek/rtl9300/librtl9300.o
                0x0000000083fa33dc                FC_REPCT_Q_PORT_SEL_RTL9300_FIELDS
 .data.FC_REPCT_Q_PORT_SEL_EN_RTL9300_FIELDS
                0x0000000083fa33e4        0x8 board/Realtek/rtl9300/librtl9300.o
                0x0000000083fa33e4                FC_REPCT_Q_PORT_SEL_EN_RTL9300_FIELDS
 .data.FC_PORT_REPCT_FC_EN_RTL9300_FIELDS
                0x0000000083fa33ec        0x8 board/Realtek/rtl9300/librtl9300.o
                0x0000000083fa33ec                FC_PORT_REPCT_FC_EN_RTL9300_FIELDS
 .data.FC_REPCT_Q_HSA_THR_RTL9300_FIELDS
                0x0000000083fa33f4       0x20 board/Realtek/rtl9300/librtl9300.o
                0x0000000083fa33f4                FC_REPCT_Q_HSA_THR_RTL9300_FIELDS
 .data.FC_REPCT_Q_HSM_THR_RTL9300_FIELDS
                0x0000000083fa3414       0x30 board/Realtek/rtl9300/librtl9300.o
                0x0000000083fa3414                FC_REPCT_Q_HSM_THR_RTL9300_FIELDS
 .data.FC_LB_PORT_EGR_PKT_CNT_RTL9300_FIELDS
                0x0000000083fa3444       0x20 board/Realtek/rtl9300/librtl9300.o
                0x0000000083fa3444                FC_LB_PORT_EGR_PKT_CNT_RTL9300_FIELDS
 .data.FC_LB_PORT_EGR_PAGE_CNT_RTL9300_FIELDS
                0x0000000083fa3464       0x20 board/Realtek/rtl9300/librtl9300.o
                0x0000000083fa3464                FC_LB_PORT_EGR_PAGE_CNT_RTL9300_FIELDS
 .data.FC_CPU_Q_EGR_PKT_CNT_RTL9300_FIELDS
                0x0000000083fa3484       0x20 board/Realtek/rtl9300/librtl9300.o
                0x0000000083fa3484                FC_CPU_Q_EGR_PKT_CNT_RTL9300_FIELDS
 .data.FC_PORT_Q_EGR_PKT_CNT_SET1_RTL9300_FIELDS
                0x0000000083fa34a4       0x20 board/Realtek/rtl9300/librtl9300.o
                0x0000000083fa34a4                FC_PORT_Q_EGR_PKT_CNT_SET1_RTL9300_FIELDS
 .data.FC_PORT_Q_EGR_PKT_CNT_SET0_RTL9300_FIELDS
                0x0000000083fa34c4       0x20 board/Realtek/rtl9300/librtl9300.o
                0x0000000083fa34c4                FC_PORT_Q_EGR_PKT_CNT_SET0_RTL9300_FIELDS
 .data.FC_CPU_Q_EGR_PAGE_CNT_RTL9300_FIELDS
                0x0000000083fa34e4       0x20 board/Realtek/rtl9300/librtl9300.o
                0x0000000083fa34e4                FC_CPU_Q_EGR_PAGE_CNT_RTL9300_FIELDS
 .data.FC_PORT_Q_EGR_PAGE_CNT_SET1_RTL9300_FIELDS
                0x0000000083fa3504       0x20 board/Realtek/rtl9300/librtl9300.o
                0x0000000083fa3504                FC_PORT_Q_EGR_PAGE_CNT_SET1_RTL9300_FIELDS
 .data.FC_PORT_Q_EGR_PAGE_CNT_SET0_RTL9300_FIELDS
                0x0000000083fa3524       0x20 board/Realtek/rtl9300/librtl9300.o
                0x0000000083fa3524                FC_PORT_Q_EGR_PAGE_CNT_SET0_RTL9300_FIELDS
 .data.FC_PORT_EGR_PAGE_CNT_RTL9300_FIELDS
                0x0000000083fa3544       0x20 board/Realtek/rtl9300/librtl9300.o
                0x0000000083fa3544                FC_PORT_EGR_PAGE_CNT_RTL9300_FIELDS
 .data.FC_PORT_PEAK_PAGE_CNT_RTL9300_FIELDS
                0x0000000083fa3564       0x20 board/Realtek/rtl9300/librtl9300.o
                0x0000000083fa3564                FC_PORT_PEAK_PAGE_CNT_RTL9300_FIELDS
 .data.FC_PORT_CUR_PAGE_CNT_RTL9300_FIELDS
                0x0000000083fa3584       0x10 board/Realtek/rtl9300/librtl9300.o
                0x0000000083fa3584                FC_PORT_CUR_PAGE_CNT_RTL9300_FIELDS
 .data.FC_GLB_PAGE_PEAKCNT_RTL9300_FIELDS
                0x0000000083fa3594       0x10 board/Realtek/rtl9300/librtl9300.o
                0x0000000083fa3594                FC_GLB_PAGE_PEAKCNT_RTL9300_FIELDS
 .data.FC_PORT_PAGE_CNT_RTL9300_FIELDS
                0x0000000083fa35a4       0x10 board/Realtek/rtl9300/librtl9300.o
                0x0000000083fa35a4                FC_PORT_PAGE_CNT_RTL9300_FIELDS
 .data.FC_GLB_PAGE_CNT_RTL9300_FIELDS
                0x0000000083fa35b4       0x10 board/Realtek/rtl9300/librtl9300.o
                0x0000000083fa35b4                FC_GLB_PAGE_CNT_RTL9300_FIELDS
 .data.FC_LB_PORT_Q_EGR_DROP_THR_RTL9300_FIELDS
                0x0000000083fa35c4       0x20 board/Realtek/rtl9300/librtl9300.o
                0x0000000083fa35c4                FC_LB_PORT_Q_EGR_DROP_THR_RTL9300_FIELDS
 .data.FC_LB_PORT_CTRL_RTL9300_FIELDS
                0x0000000083fa35e4       0x18 board/Realtek/rtl9300/librtl9300.o
                0x0000000083fa35e4                FC_LB_PORT_CTRL_RTL9300_FIELDS
 .data.FC_PORT_EGR_DROP_THR_SET_SEL_RTL9300_FIELDS
                0x0000000083fa35fc        0x8 board/Realtek/rtl9300/librtl9300.o
                0x0000000083fa35fc                FC_PORT_EGR_DROP_THR_SET_SEL_RTL9300_FIELDS
 .data.FC_CPU_Q_EGR_DROP_THR_RTL9300_FIELDS
                0x0000000083fa3604       0x20 board/Realtek/rtl9300/librtl9300.o
                0x0000000083fa3604                FC_CPU_Q_EGR_DROP_THR_RTL9300_FIELDS
 .data.FC_Q_EGR_DROP_THR_RTL9300_FIELDS
                0x0000000083fa3624       0x20 board/Realtek/rtl9300/librtl9300.o
                0x0000000083fa3624                FC_Q_EGR_DROP_THR_RTL9300_FIELDS
 .data.FC_CPU_Q_EGR_FORCE_DROP_CTRL_RTL9300_FIELDS
                0x0000000083fa3644        0x8 board/Realtek/rtl9300/librtl9300.o
                0x0000000083fa3644                FC_CPU_Q_EGR_FORCE_DROP_CTRL_RTL9300_FIELDS
 .data.FC_PORT_Q_EGR_FORCE_DROP_CTRL_SET1_RTL9300_FIELDS
                0x0000000083fa364c        0x8 board/Realtek/rtl9300/librtl9300.o
                0x0000000083fa364c                FC_PORT_Q_EGR_FORCE_DROP_CTRL_SET1_RTL9300_FIELDS
 .data.FC_PORT_Q_EGR_FORCE_DROP_CTRL_SET0_RTL9300_FIELDS
                0x0000000083fa3654        0x8 board/Realtek/rtl9300/librtl9300.o
                0x0000000083fa3654                FC_PORT_Q_EGR_FORCE_DROP_CTRL_SET0_RTL9300_FIELDS
 .data.FC_CPU_Q_EGR_DROP_CTRL_RTL9300_FIELDS
                0x0000000083fa365c        0x8 board/Realtek/rtl9300/librtl9300.o
                0x0000000083fa365c                FC_CPU_Q_EGR_DROP_CTRL_RTL9300_FIELDS
 .data.FC_PORT_Q_EGR_DROP_CTRL_SET1_RTL9300_FIELDS
                0x0000000083fa3664        0x8 board/Realtek/rtl9300/librtl9300.o
                0x0000000083fa3664                FC_PORT_Q_EGR_DROP_CTRL_SET1_RTL9300_FIELDS
 .data.FC_PORT_Q_EGR_DROP_CTRL_SET0_RTL9300_FIELDS
                0x0000000083fa366c        0x8 board/Realtek/rtl9300/librtl9300.o
                0x0000000083fa366c                FC_PORT_Q_EGR_DROP_CTRL_SET0_RTL9300_FIELDS
 .data.FC_HOL_PRVNT_CTRL_RTL9300_FIELDS
                0x0000000083fa3674       0x28 board/Realtek/rtl9300/librtl9300.o
                0x0000000083fa3674                FC_HOL_PRVNT_CTRL_RTL9300_FIELDS
 .data.FC_PORT_EGR_DROP_CTRL_RTL9300_FIELDS
                0x0000000083fa369c       0x18 board/Realtek/rtl9300/librtl9300.o
                0x0000000083fa369c                FC_PORT_EGR_DROP_CTRL_RTL9300_FIELDS
 .data.FC_PORT_THR_SET_SEL_RTL9300_FIELDS
                0x0000000083fa36b4        0x8 board/Realtek/rtl9300/librtl9300.o
                0x0000000083fa36b4                FC_PORT_THR_SET_SEL_RTL9300_FIELDS
 .data.FC_PORT_GUAR_THR_RTL9300_FIELDS
                0x0000000083fa36bc       0x10 board/Realtek/rtl9300/librtl9300.o
                0x0000000083fa36bc                FC_PORT_GUAR_THR_RTL9300_FIELDS
 .data.FC_PORT_FCOFF_LO_THR_RTL9300_FIELDS
                0x0000000083fa36cc       0x20 board/Realtek/rtl9300/librtl9300.o
                0x0000000083fa36cc                FC_PORT_FCOFF_LO_THR_RTL9300_FIELDS
 .data.FC_PORT_FCOFF_HI_THR_RTL9300_FIELDS
                0x0000000083fa36ec       0x20 board/Realtek/rtl9300/librtl9300.o
                0x0000000083fa36ec                FC_PORT_FCOFF_HI_THR_RTL9300_FIELDS
 .data.FC_PORT_LO_THR_RTL9300_FIELDS
                0x0000000083fa370c       0x20 board/Realtek/rtl9300/librtl9300.o
                0x0000000083fa370c                FC_PORT_LO_THR_RTL9300_FIELDS
 .data.FC_PORT_HI_THR_RTL9300_FIELDS
                0x0000000083fa372c       0x20 board/Realtek/rtl9300/librtl9300.o
                0x0000000083fa372c                FC_PORT_HI_THR_RTL9300_FIELDS
 .data.FC_JUMBO_THR_ADJUST_RTL9300_FIELDS
                0x0000000083fa374c       0x28 board/Realtek/rtl9300/librtl9300.o
                0x0000000083fa374c                FC_JUMBO_THR_ADJUST_RTL9300_FIELDS
 .data.FC_JUMBO_FCOFF_LO_THR_RTL9300_FIELDS
                0x0000000083fa3774       0x20 board/Realtek/rtl9300/librtl9300.o
                0x0000000083fa3774                FC_JUMBO_FCOFF_LO_THR_RTL9300_FIELDS
 .data.FC_JUMBO_FCOFF_HI_THR_RTL9300_FIELDS
                0x0000000083fa3794       0x20 board/Realtek/rtl9300/librtl9300.o
                0x0000000083fa3794                FC_JUMBO_FCOFF_HI_THR_RTL9300_FIELDS
 .data.FC_JUMBO_LO_THR_RTL9300_FIELDS
                0x0000000083fa37b4       0x20 board/Realtek/rtl9300/librtl9300.o
                0x0000000083fa37b4                FC_JUMBO_LO_THR_RTL9300_FIELDS
 .data.FC_JUMBO_HI_THR_RTL9300_FIELDS
                0x0000000083fa37d4       0x20 board/Realtek/rtl9300/librtl9300.o
                0x0000000083fa37d4                FC_JUMBO_HI_THR_RTL9300_FIELDS
 .data.FC_GLB_FCOFF_LO_THR_RTL9300_FIELDS
                0x0000000083fa37f4       0x20 board/Realtek/rtl9300/librtl9300.o
                0x0000000083fa37f4                FC_GLB_FCOFF_LO_THR_RTL9300_FIELDS
 .data.FC_GLB_FCOFF_HI_THR_RTL9300_FIELDS
                0x0000000083fa3814       0x20 board/Realtek/rtl9300/librtl9300.o
                0x0000000083fa3814                FC_GLB_FCOFF_HI_THR_RTL9300_FIELDS
 .data.FC_GLB_LO_THR_RTL9300_FIELDS
                0x0000000083fa3834       0x20 board/Realtek/rtl9300/librtl9300.o
                0x0000000083fa3834                FC_GLB_LO_THR_RTL9300_FIELDS
 .data.FC_GLB_HI_THR_RTL9300_FIELDS
                0x0000000083fa3854       0x20 board/Realtek/rtl9300/librtl9300.o
                0x0000000083fa3854                FC_GLB_HI_THR_RTL9300_FIELDS
 .data.FC_GLB_DROP_THR_RTL9300_FIELDS
                0x0000000083fa3874       0x10 board/Realtek/rtl9300/librtl9300.o
                0x0000000083fa3874                FC_GLB_DROP_THR_RTL9300_FIELDS
 .data.FC_GLB_SYS_UTIL_THR_RTL9300_FIELDS
                0x0000000083fa3884       0x10 board/Realtek/rtl9300/librtl9300.o
                0x0000000083fa3884                FC_GLB_SYS_UTIL_THR_RTL9300_FIELDS
 .data.FC_PORT_ACT_CTRL_RTL9300_FIELDS
                0x0000000083fa3894       0x18 board/Realtek/rtl9300/librtl9300.o
                0x0000000083fa3894                FC_PORT_ACT_CTRL_RTL9300_FIELDS
 .data.FC_CTRL_RTL9300_FIELDS
                0x0000000083fa38ac       0x28 board/Realtek/rtl9300/librtl9300.o
                0x0000000083fa38ac                FC_CTRL_RTL9300_FIELDS
 .data.DMY_REG0_ALE_METER_RTL9300_FIELDS
                0x0000000083fa38d4        0x8 board/Realtek/rtl9300/librtl9300.o
                0x0000000083fa38d4                DMY_REG0_ALE_METER_RTL9300_FIELDS
 .data.METER_LB_PPS_CTRL_RTL9300_FIELDS
                0x0000000083fa38dc       0x10 board/Realtek/rtl9300/librtl9300.o
                0x0000000083fa38dc                METER_LB_PPS_CTRL_RTL9300_FIELDS
 .data.METER_LB_CTRL_RTL9300_FIELDS
                0x0000000083fa38ec       0x10 board/Realtek/rtl9300/librtl9300.o
                0x0000000083fa38ec                METER_LB_CTRL_RTL9300_FIELDS
 .data.METER_TOTAL_CNTR_STS_RTL9300_FIELDS
                0x0000000083fa38fc        0x8 board/Realtek/rtl9300/librtl9300.o
                0x0000000083fa38fc                METER_TOTAL_CNTR_STS_RTL9300_FIELDS
 .data.METER_RED_CNTR_STS_RTL9300_FIELDS
                0x0000000083fa3904        0x8 board/Realtek/rtl9300/librtl9300.o
                0x0000000083fa3904                METER_RED_CNTR_STS_RTL9300_FIELDS
 .data.METER_YELLOW_CNTR_STS_RTL9300_FIELDS
                0x0000000083fa390c        0x8 board/Realtek/rtl9300/librtl9300.o
                0x0000000083fa390c                METER_YELLOW_CNTR_STS_RTL9300_FIELDS
 .data.METER_GREEN_CNTR_STS_RTL9300_FIELDS
                0x0000000083fa3914        0x8 board/Realtek/rtl9300/librtl9300.o
                0x0000000083fa3914                METER_GREEN_CNTR_STS_RTL9300_FIELDS
 .data.METER_CNTR_CTRL_RTL9300_FIELDS
                0x0000000083fa391c       0x20 board/Realtek/rtl9300/librtl9300.o
                0x0000000083fa391c                METER_CNTR_CTRL_RTL9300_FIELDS
 .data.METER_LB_GLB_EXCEED_STS_RTL9300_FIELDS
                0x0000000083fa393c       0x10 board/Realtek/rtl9300/librtl9300.o
                0x0000000083fa393c                METER_LB_GLB_EXCEED_STS_RTL9300_FIELDS
 .data.METER_LB_EXCEED_STS_RTL9300_FIELDS
                0x0000000083fa394c        0x8 board/Realtek/rtl9300/librtl9300.o
                0x0000000083fa394c                METER_LB_EXCEED_STS_RTL9300_FIELDS
 .data.METER_GLB_CTRL_RTL9300_FIELDS
                0x0000000083fa3954       0x18 board/Realtek/rtl9300/librtl9300.o
                0x0000000083fa3954                METER_GLB_CTRL_RTL9300_FIELDS
 .data.DMY_REG0_P28_TXQ_REG_RTL9300_FIELDS
                0x0000000083fa396c        0x8 board/Realtek/rtl9300/librtl9300.o
                0x0000000083fa396c                DMY_REG0_P28_TXQ_REG_RTL9300_FIELDS
 .data.DMY_REG0_EGRESS_CTRL_RTL9300_FIELDS
                0x0000000083fa3974       0x20 board/Realtek/rtl9300/librtl9300.o
                0x0000000083fa3974                DMY_REG0_EGRESS_CTRL_RTL9300_FIELDS
 .data.EGBW_RATE_SXG_CTRL_RTL9300_FIELDS
                0x0000000083fa3994       0x20 board/Realtek/rtl9300/librtl9300.o
                0x0000000083fa3994                EGBW_RATE_SXG_CTRL_RTL9300_FIELDS
 .data.EGBW_RATE_5G_CTRL_RTL9300_FIELDS
                0x0000000083fa39b4       0x10 board/Realtek/rtl9300/librtl9300.o
                0x0000000083fa39b4                EGBW_RATE_5G_CTRL_RTL9300_FIELDS
 .data.EGBW_RATE_1250M_CTRL_RTL9300_FIELDS
                0x0000000083fa39c4       0x10 board/Realtek/rtl9300/librtl9300.o
                0x0000000083fa39c4                EGBW_RATE_1250M_CTRL_RTL9300_FIELDS
 .data.EGBW_RATE_2500M_CTRL_RTL9300_FIELDS
                0x0000000083fa39d4       0x10 board/Realtek/rtl9300/librtl9300.o
                0x0000000083fa39d4                EGBW_RATE_2500M_CTRL_RTL9300_FIELDS
 .data.EGBW_RATE_10G_CTRL_RTL9300_FIELDS
                0x0000000083fa39e4       0x10 board/Realtek/rtl9300/librtl9300.o
                0x0000000083fa39e4                EGBW_RATE_10G_CTRL_RTL9300_FIELDS
 .data.EGBW_RATE_500M_CTRL_RTL9300_FIELDS
                0x0000000083fa39f4       0x10 board/Realtek/rtl9300/librtl9300.o
                0x0000000083fa39f4                EGBW_RATE_500M_CTRL_RTL9300_FIELDS
 .data.EGBW_RATE_1G_CTRL_RTL9300_FIELDS
                0x0000000083fa3a04       0x10 board/Realtek/rtl9300/librtl9300.o
                0x0000000083fa3a04                EGBW_RATE_1G_CTRL_RTL9300_FIELDS
 .data.EGBW_RATE_100M_CTRL_RTL9300_FIELDS
                0x0000000083fa3a14       0x10 board/Realtek/rtl9300/librtl9300.o
                0x0000000083fa3a14                EGBW_RATE_100M_CTRL_RTL9300_FIELDS
 .data.EGBW_RATE_10M_CTRL_RTL9300_FIELDS
                0x0000000083fa3a24       0x10 board/Realtek/rtl9300/librtl9300.o
                0x0000000083fa3a24                EGBW_RATE_10M_CTRL_RTL9300_FIELDS
 .data.EGBW_PORT_Q_ASSURED_FIX_LB_RST_SET1_RTL9300_FIELDS
                0x0000000083fa3a34        0x8 board/Realtek/rtl9300/librtl9300.o
                0x0000000083fa3a34                EGBW_PORT_Q_ASSURED_FIX_LB_RST_SET1_RTL9300_FIELDS
 .data.EGBW_PORT_Q_ASSURED_FIX_LB_RST_SET0_RTL9300_FIELDS
                0x0000000083fa3a3c        0x8 board/Realtek/rtl9300/librtl9300.o
                0x0000000083fa3a3c                EGBW_PORT_Q_ASSURED_FIX_LB_RST_SET0_RTL9300_FIELDS
 .data.EGBW_PORT_Q_FIX_LB_CTRL_SET1_RTL9300_FIELDS
                0x0000000083fa3a44       0x18 board/Realtek/rtl9300/librtl9300.o
                0x0000000083fa3a44                EGBW_PORT_Q_FIX_LB_CTRL_SET1_RTL9300_FIELDS
 .data.EGBW_PORT_Q_FIX_LB_CTRL_SET0_RTL9300_FIELDS
                0x0000000083fa3a5c       0x18 board/Realtek/rtl9300/librtl9300.o
                0x0000000083fa3a5c                EGBW_PORT_Q_FIX_LB_CTRL_SET0_RTL9300_FIELDS
 .data.EGBW_PORT_Q_ASSURED_LB_CTRL_SET1_RTL9300_FIELDS
                0x0000000083fa3a74       0x18 board/Realtek/rtl9300/librtl9300.o
                0x0000000083fa3a74                EGBW_PORT_Q_ASSURED_LB_CTRL_SET1_RTL9300_FIELDS
 .data.EGBW_PORT_Q_ASSURED_LB_CTRL_SET0_RTL9300_FIELDS
                0x0000000083fa3a8c       0x18 board/Realtek/rtl9300/librtl9300.o
                0x0000000083fa3a8c                EGBW_PORT_Q_ASSURED_LB_CTRL_SET0_RTL9300_FIELDS
 .data.EGBW_PORT_Q_ASSURED_FIX_BURST_CTRL_SET1_RTL9300_FIELDS
                0x0000000083fa3aa4       0x10 board/Realtek/rtl9300/librtl9300.o
                0x0000000083fa3aa4                EGBW_PORT_Q_ASSURED_FIX_BURST_CTRL_SET1_RTL9300_FIELDS
 .data.EGBW_PORT_Q_ASSURED_FIX_BURST_CTRL_SET0_RTL9300_FIELDS
                0x0000000083fa3ab4       0x10 board/Realtek/rtl9300/librtl9300.o
                0x0000000083fa3ab4                EGBW_PORT_Q_ASSURED_FIX_BURST_CTRL_SET0_RTL9300_FIELDS
 .data.EGBW_CPU_Q_MAX_LB_RST_RTL9300_FIELDS
                0x0000000083fa3ac4        0x8 board/Realtek/rtl9300/librtl9300.o
                0x0000000083fa3ac4                EGBW_CPU_Q_MAX_LB_RST_RTL9300_FIELDS
 .data.EGBW_CPU_Q_MAX_LB_CTRL_RTL9300_FIELDS
                0x0000000083fa3acc       0x28 board/Realtek/rtl9300/librtl9300.o
                0x0000000083fa3acc                EGBW_CPU_Q_MAX_LB_CTRL_RTL9300_FIELDS
 .data.EGBW_PORT_Q_MAX_LB_RST_SET1_RTL9300_FIELDS
                0x0000000083fa3af4        0x8 board/Realtek/rtl9300/librtl9300.o
                0x0000000083fa3af4                EGBW_PORT_Q_MAX_LB_RST_SET1_RTL9300_FIELDS
 .data.EGBW_PORT_Q_MAX_LB_RST_SET0_RTL9300_FIELDS
                0x0000000083fa3afc        0x8 board/Realtek/rtl9300/librtl9300.o
                0x0000000083fa3afc                EGBW_PORT_Q_MAX_LB_RST_SET0_RTL9300_FIELDS
 .data.EGBW_PORT_Q_MAX_LB_CTRL_SET1_RTL9300_FIELDS
                0x0000000083fa3b04       0x28 board/Realtek/rtl9300/librtl9300.o
                0x0000000083fa3b04                EGBW_PORT_Q_MAX_LB_CTRL_SET1_RTL9300_FIELDS
 .data.EGBW_PORT_Q_MAX_LB_CTRL_SET0_RTL9300_FIELDS
                0x0000000083fa3b2c       0x28 board/Realtek/rtl9300/librtl9300.o
                0x0000000083fa3b2c                EGBW_PORT_Q_MAX_LB_CTRL_SET0_RTL9300_FIELDS
 .data.EGBW_PORT_LB_RST_RTL9300_FIELDS
                0x0000000083fa3b54        0x8 board/Realtek/rtl9300/librtl9300.o
                0x0000000083fa3b54                EGBW_PORT_LB_RST_RTL9300_FIELDS
 .data.EGBW_PORT_CTRL_RTL9300_FIELDS
                0x0000000083fa3b5c       0x28 board/Realtek/rtl9300/librtl9300.o
                0x0000000083fa3b5c                EGBW_PORT_CTRL_RTL9300_FIELDS
 .data.EGBW_LB_CTRL_RTL9300_FIELDS
                0x0000000083fa3b84       0x10 board/Realtek/rtl9300/librtl9300.o
                0x0000000083fa3b84                EGBW_LB_CTRL_RTL9300_FIELDS
 .data.EGBW_CPU_PPS_LB_CTRL_RTL9300_FIELDS
                0x0000000083fa3b94       0x10 board/Realtek/rtl9300/librtl9300.o
                0x0000000083fa3b94                EGBW_CPU_PPS_LB_CTRL_RTL9300_FIELDS
 .data.EGBW_CTRL_RTL9300_FIELDS
                0x0000000083fa3ba4       0x18 board/Realtek/rtl9300/librtl9300.o
                0x0000000083fa3ba4                EGBW_CTRL_RTL9300_FIELDS
 .data.EGBW_ENCAP_CTRL_RTL9300_FIELDS
                0x0000000083fa3bbc       0x18 board/Realtek/rtl9300/librtl9300.o
                0x0000000083fa3bbc                EGBW_ENCAP_CTRL_RTL9300_FIELDS
 .data.DMY_REG0_NIC_SYS_RTL9300_FIELDS
                0x0000000083fa3bd4        0x8 board/Realtek/rtl9300/librtl9300.o
                0x0000000083fa3bd4                DMY_REG0_NIC_SYS_RTL9300_FIELDS
 .data.DMY_REG0_SPC_PORT_RTL9300_FIELDS
                0x0000000083fa3bdc        0x8 board/Realtek/rtl9300/librtl9300.o
                0x0000000083fa3bdc                DMY_REG0_SPC_PORT_RTL9300_FIELDS
 .data.DMY_REG1_NIC_RTL9300_FIELDS
                0x0000000083fa3be4        0x8 board/Realtek/rtl9300/librtl9300.o
                0x0000000083fa3be4                DMY_REG1_NIC_RTL9300_FIELDS
 .data.DMA_RDMA_CNT_SEL_RTL9300_FIELDS
                0x0000000083fa3bec       0x20 board/Realtek/rtl9300/librtl9300.o
                0x0000000083fa3bec                DMA_RDMA_CNT_SEL_RTL9300_FIELDS
 .data.DMA_L2MSG_CNT_SEL_RTL9300_FIELDS
                0x0000000083fa3c0c       0x10 board/Realtek/rtl9300/librtl9300.o
                0x0000000083fa3c0c                DMA_L2MSG_CNT_SEL_RTL9300_FIELDS
 .data.DMA_L2MSG_TMROUT_RTL9300_FIELDS
                0x0000000083fa3c1c       0x20 board/Realtek/rtl9300/librtl9300.o
                0x0000000083fa3c1c                DMA_L2MSG_TMROUT_RTL9300_FIELDS
 .data.L2_NOTIFY_IF_INTR_STS_RTL9300_FIELDS
                0x0000000083fa3c3c       0x20 board/Realtek/rtl9300/librtl9300.o
                0x0000000083fa3c3c                L2_NOTIFY_IF_INTR_STS_RTL9300_FIELDS
 .data.L2_NOTIFY_IF_INTR_MSK_RTL9300_FIELDS
                0x0000000083fa3c5c       0x20 board/Realtek/rtl9300/librtl9300.o
                0x0000000083fa3c5c                L2_NOTIFY_IF_INTR_MSK_RTL9300_FIELDS
 .data.L2_NOTIFY_RING_CUR_ADDR_RTL9300_FIELDS
                0x0000000083fa3c7c        0x8 board/Realtek/rtl9300/librtl9300.o
                0x0000000083fa3c7c                L2_NOTIFY_RING_CUR_ADDR_RTL9300_FIELDS
 .data.L2_NOTIFY_RING_BASE_ADDR_RTL9300_FIELDS
                0x0000000083fa3c84        0x8 board/Realtek/rtl9300/librtl9300.o
                0x0000000083fa3c84                L2_NOTIFY_RING_BASE_ADDR_RTL9300_FIELDS
 .data.L2_NTFY_REMOTEL_CONGEST_RTL9300_FIELDS
                0x0000000083fa3c8c       0x10 board/Realtek/rtl9300/librtl9300.o
                0x0000000083fa3c8c                L2_NTFY_REMOTEL_CONGEST_RTL9300_FIELDS
 .data.L2_NTFY_PKT_REMOTEL_THR_RTL9300_FIELDS
                0x0000000083fa3c9c       0x28 board/Realtek/rtl9300/librtl9300.o
                0x0000000083fa3c9c                L2_NTFY_PKT_REMOTEL_THR_RTL9300_FIELDS
 .data.L2_NTFY_PKT_LOCAL_THR_RTL9300_FIELDS
                0x0000000083fa3cc4       0x20 board/Realtek/rtl9300/librtl9300.o
                0x0000000083fa3cc4                L2_NTFY_PKT_LOCAL_THR_RTL9300_FIELDS
 .data.L2_NTFY_PKT_MAGIC_NUM_RTL9300_FIELDS
                0x0000000083fa3ce4       0x10 board/Realtek/rtl9300/librtl9300.o
                0x0000000083fa3ce4                L2_NTFY_PKT_MAGIC_NUM_RTL9300_FIELDS
 .data.L2_NTFY_RST_RTL9300_FIELDS
                0x0000000083fa3cf4       0x10 board/Realtek/rtl9300/librtl9300.o
                0x0000000083fa3cf4                L2_NTFY_RST_RTL9300_FIELDS
 .data.L2_NTFY_PKT_ITAG_1_RTL9300_FIELDS
                0x0000000083fa3d04        0x8 board/Realtek/rtl9300/librtl9300.o
                0x0000000083fa3d04                L2_NTFY_PKT_ITAG_1_RTL9300_FIELDS
 .data.L2_NTFY_PKT_ITAG_0_RTL9300_FIELDS
                0x0000000083fa3d0c       0x10 board/Realtek/rtl9300/librtl9300.o
                0x0000000083fa3d0c                L2_NTFY_PKT_ITAG_0_RTL9300_FIELDS
 .data.L2_NTFY_PKT_MAC_RTL9300_FIELDS
                0x0000000083fa3d1c       0x30 board/Realtek/rtl9300/librtl9300.o
                0x0000000083fa3d1c                L2_NTFY_PKT_MAC_RTL9300_FIELDS
 .data.L2_NTFY_PKT_TIMEOUT_RTL9300_FIELDS
                0x0000000083fa3d4c       0x18 board/Realtek/rtl9300/librtl9300.o
                0x0000000083fa3d4c                L2_NTFY_PKT_TIMEOUT_RTL9300_FIELDS
 .data.L2_NTFY_PKT_CTRL_RTL9300_FIELDS
                0x0000000083fa3d64       0x10 board/Realtek/rtl9300/librtl9300.o
                0x0000000083fa3d64                L2_NTFY_PKT_CTRL_RTL9300_FIELDS
 .data.L2_NTFY_CTRL_RTL9300_FIELDS
                0x0000000083fa3d74       0x60 board/Realtek/rtl9300/librtl9300.o
                0x0000000083fa3d74                L2_NTFY_CTRL_RTL9300_FIELDS
 .data.L2_HASH_FULL_CNT_RTL9300_FIELDS
                0x0000000083fa3dd4       0x10 board/Realtek/rtl9300/librtl9300.o
                0x0000000083fa3dd4                L2_HASH_FULL_CNT_RTL9300_FIELDS
 .data.L2_SA_ACT_REF_RTL9300_FIELDS
                0x0000000083fa3de4        0x8 board/Realtek/rtl9300/librtl9300.o
                0x0000000083fa3de4                L2_SA_ACT_REF_RTL9300_FIELDS
 .data.L2_SRC_P_FLTR_RTL9300_FIELDS
                0x0000000083fa3dec        0x8 board/Realtek/rtl9300/librtl9300.o
                0x0000000083fa3dec                L2_SRC_P_FLTR_RTL9300_FIELDS
 .data.L2_TBL_FLUSH_CTRL_RTL9300_FIELDS
                0x0000000083fa3df4       0x60 board/Realtek/rtl9300/librtl9300.o
                0x0000000083fa3df4                L2_TBL_FLUSH_CTRL_RTL9300_FIELDS
 .data.L2_CONSTRT_VLAN_CNT_DBG_RTL9300_FIELDS
                0x0000000083fa3e54        0x8 board/Realtek/rtl9300/librtl9300.o
                0x0000000083fa3e54                L2_CONSTRT_VLAN_CNT_DBG_RTL9300_FIELDS
 .data.L2_CONSTRT_SYS_CNT_DBG_RTL9300_FIELDS
                0x0000000083fa3e5c       0x10 board/Realtek/rtl9300/librtl9300.o
                0x0000000083fa3e5c                L2_CONSTRT_SYS_CNT_DBG_RTL9300_FIELDS
 .data.L2_CONSTRT_TRK_CNT_DBG_RTL9300_FIELDS
                0x0000000083fa3e6c        0x8 board/Realtek/rtl9300/librtl9300.o
                0x0000000083fa3e6c                L2_CONSTRT_TRK_CNT_DBG_RTL9300_FIELDS
 .data.L2_CONSTRT_PORT_CNT_DBG_RTL9300_FIELDS
                0x0000000083fa3e74        0x8 board/Realtek/rtl9300/librtl9300.o
                0x0000000083fa3e74                L2_CONSTRT_PORT_CNT_DBG_RTL9300_FIELDS
 .data.L2_VLAN_CONSTRT_CTRL_RTL9300_FIELDS
                0x0000000083fa3e7c       0x10 board/Realtek/rtl9300/librtl9300.o
                0x0000000083fa3e7c                L2_VLAN_CONSTRT_CTRL_RTL9300_FIELDS
 .data.L2_LRN_VLAN_CONSTRT_CNT_RTL9300_FIELDS
                0x0000000083fa3e8c       0x10 board/Realtek/rtl9300/librtl9300.o
                0x0000000083fa3e8c                L2_LRN_VLAN_CONSTRT_CNT_RTL9300_FIELDS
 .data.L2_LRN_VLAN_CONSTRT_ENTRY_RTL9300_FIELDS
                0x0000000083fa3e9c       0x28 board/Realtek/rtl9300/librtl9300.o
                0x0000000083fa3e9c                L2_LRN_VLAN_CONSTRT_ENTRY_RTL9300_FIELDS
 .data.L2_LRN_TRK_CONSTRT_CNT_RTL9300_FIELDS
                0x0000000083fa3ec4       0x10 board/Realtek/rtl9300/librtl9300.o
                0x0000000083fa3ec4                L2_LRN_TRK_CONSTRT_CNT_RTL9300_FIELDS
 .data.L2_LRN_TRK_CONSTRT_CTRL_RTL9300_FIELDS
                0x0000000083fa3ed4       0x18 board/Realtek/rtl9300/librtl9300.o
                0x0000000083fa3ed4                L2_LRN_TRK_CONSTRT_CTRL_RTL9300_FIELDS
 .data.L2_LRN_PORT_CONSTRT_CNT_RTL9300_FIELDS
                0x0000000083fa3eec       0x10 board/Realtek/rtl9300/librtl9300.o
                0x0000000083fa3eec                L2_LRN_PORT_CONSTRT_CNT_RTL9300_FIELDS
 .data.L2_LRN_PORT_CONSTRT_CTRL_RTL9300_FIELDS
                0x0000000083fa3efc       0x18 board/Realtek/rtl9300/librtl9300.o
                0x0000000083fa3efc                L2_LRN_PORT_CONSTRT_CTRL_RTL9300_FIELDS
 .data.L2_LRN_CONSTRT_CNT_RTL9300_FIELDS
                0x0000000083fa3f14       0x10 board/Realtek/rtl9300/librtl9300.o
                0x0000000083fa3f14                L2_LRN_CONSTRT_CNT_RTL9300_FIELDS
 .data.L2_LRN_CONSTRT_CTRL_RTL9300_FIELDS
                0x0000000083fa3f24       0x18 board/Realtek/rtl9300/librtl9300.o
                0x0000000083fa3f24                L2_LRN_CONSTRT_CTRL_RTL9300_FIELDS
 .data.L2_PORT_IP6_MC_LM_ACT_RTL9300_FIELDS
                0x0000000083fa3f3c        0x8 board/Realtek/rtl9300/librtl9300.o
                0x0000000083fa3f3c                L2_PORT_IP6_MC_LM_ACT_RTL9300_FIELDS
 .data.L2_PORT_IP4_MC_LM_ACT_RTL9300_FIELDS
                0x0000000083fa3f44        0x8 board/Realtek/rtl9300/librtl9300.o
                0x0000000083fa3f44                L2_PORT_IP4_MC_LM_ACT_RTL9300_FIELDS
 .data.L2_PORT_L2_MC_LM_ACT_RTL9300_FIELDS
                0x0000000083fa3f4c        0x8 board/Realtek/rtl9300/librtl9300.o
                0x0000000083fa3f4c                L2_PORT_L2_MC_LM_ACT_RTL9300_FIELDS
 .data.L2_PORT_UC_LM_ACT_RTL9300_FIELDS
                0x0000000083fa3f54        0x8 board/Realtek/rtl9300/librtl9300.o
                0x0000000083fa3f54                L2_PORT_UC_LM_ACT_RTL9300_FIELDS
 .data.L2_BC_FLD_PMSK_RTL9300_FIELDS
                0x0000000083fa3f5c       0x10 board/Realtek/rtl9300/librtl9300.o
                0x0000000083fa3f5c                L2_BC_FLD_PMSK_RTL9300_FIELDS
 .data.L2_UNKN_UC_FLD_PMSK_RTL9300_FIELDS
                0x0000000083fa3f6c       0x10 board/Realtek/rtl9300/librtl9300.o
                0x0000000083fa3f6c                L2_UNKN_UC_FLD_PMSK_RTL9300_FIELDS
 .data.L2_PORT_DABLK_CTRL_RTL9300_FIELDS
                0x0000000083fa3f7c        0x8 board/Realtek/rtl9300/librtl9300.o
                0x0000000083fa3f7c                L2_PORT_DABLK_CTRL_RTL9300_FIELDS
 .data.L2_PORT_SABLK_CTRL_RTL9300_FIELDS
                0x0000000083fa3f84        0x8 board/Realtek/rtl9300/librtl9300.o
                0x0000000083fa3f84                L2_PORT_SABLK_CTRL_RTL9300_FIELDS
 .data.L2_PORT_MV_FORBID_CTRL_RTL9300_FIELDS
                0x0000000083fa3f8c       0x10 board/Realtek/rtl9300/librtl9300.o
                0x0000000083fa3f8c                L2_PORT_MV_FORBID_CTRL_RTL9300_FIELDS
 .data.L2_TRK_MV_FORBID_RTL9300_FIELDS
                0x0000000083fa3f9c        0x8 board/Realtek/rtl9300/librtl9300.o
                0x0000000083fa3f9c                L2_TRK_MV_FORBID_RTL9300_FIELDS
 .data.L2_PORT_MV_FORBID_RTL9300_FIELDS
                0x0000000083fa3fa4        0x8 board/Realtek/rtl9300/librtl9300.o
                0x0000000083fa3fa4                L2_PORT_MV_FORBID_RTL9300_FIELDS
 .data.L2_GLB_STT_PORT_MV_LRN_RTL9300_FIELDS
                0x0000000083fa3fac       0x10 board/Realtek/rtl9300/librtl9300.o
                0x0000000083fa3fac                L2_GLB_STT_PORT_MV_LRN_RTL9300_FIELDS
 .data.L2_GLB_STT_PORT_MV_ACT_RTL9300_FIELDS
                0x0000000083fa3fbc       0x10 board/Realtek/rtl9300/librtl9300.o
                0x0000000083fa3fbc                L2_GLB_STT_PORT_MV_ACT_RTL9300_FIELDS
 .data.L2_STT_TRK_MV_LRN_RTL9300_FIELDS
                0x0000000083fa3fcc        0x8 board/Realtek/rtl9300/librtl9300.o
                0x0000000083fa3fcc                L2_STT_TRK_MV_LRN_RTL9300_FIELDS
 .data.L2_STT_TRK_MV_ACT_RTL9300_FIELDS
                0x0000000083fa3fd4        0x8 board/Realtek/rtl9300/librtl9300.o
                0x0000000083fa3fd4                L2_STT_TRK_MV_ACT_RTL9300_FIELDS
 .data.L2_STT_PORT_MV_LRN_RTL9300_FIELDS
                0x0000000083fa3fdc        0x8 board/Realtek/rtl9300/librtl9300.o
                0x0000000083fa3fdc                L2_STT_PORT_MV_LRN_RTL9300_FIELDS
 .data.L2_STT_PORT_MV_ACT_RTL9300_FIELDS
                0x0000000083fa3fe4        0x8 board/Realtek/rtl9300/librtl9300.o
                0x0000000083fa3fe4                L2_STT_PORT_MV_ACT_RTL9300_FIELDS
 .data.L2_DYN_PORT_MV_LRN_RTL9300_FIELDS
                0x0000000083fa3fec        0x8 board/Realtek/rtl9300/librtl9300.o
                0x0000000083fa3fec                L2_DYN_PORT_MV_LRN_RTL9300_FIELDS
 .data.L2_DYN_PORT_MV_ACT_RTL9300_FIELDS
                0x0000000083fa3ff4        0x8 board/Realtek/rtl9300/librtl9300.o
                0x0000000083fa3ff4                L2_DYN_PORT_MV_ACT_RTL9300_FIELDS
 .data.L2_PORT_NEW_SA_FWD_RTL9300_FIELDS
                0x0000000083fa3ffc        0x8 board/Realtek/rtl9300/librtl9300.o
                0x0000000083fa3ffc                L2_PORT_NEW_SA_FWD_RTL9300_FIELDS
 .data.L2_PORT_SALRN_RTL9300_FIELDS
                0x0000000083fa4004        0x8 board/Realtek/rtl9300/librtl9300.o
                0x0000000083fa4004                L2_PORT_SALRN_RTL9300_FIELDS
 .data.L2_TRK_AGE_CTRL_RTL9300_FIELDS
                0x0000000083fa400c        0x8 board/Realtek/rtl9300/librtl9300.o
                0x0000000083fa400c                L2_TRK_AGE_CTRL_RTL9300_FIELDS
 .data.L2_PORT_AGE_CTRL_RTL9300_FIELDS
                0x0000000083fa4014        0x8 board/Realtek/rtl9300/librtl9300.o
                0x0000000083fa4014                L2_PORT_AGE_CTRL_RTL9300_FIELDS
 .data.L2_AGE_CTRL_RTL9300_FIELDS
                0x0000000083fa401c       0x28 board/Realtek/rtl9300/librtl9300.o
                0x0000000083fa401c                L2_AGE_CTRL_RTL9300_FIELDS
 .data.L2_CTRL_RTL9300_FIELDS
                0x0000000083fa4044       0x58 board/Realtek/rtl9300/librtl9300.o
                0x0000000083fa4044                L2_CTRL_RTL9300_FIELDS
 .data.DMY_REG0_VLAN_ISO_RTL9300_FIELDS
                0x0000000083fa409c        0x8 board/Realtek/rtl9300/librtl9300.o
                0x0000000083fa409c                DMY_REG0_VLAN_ISO_RTL9300_FIELDS
 .data.DMY_REG0_PORT_ISO_RTL9300_FIELDS
                0x0000000083fa40a4        0x8 board/Realtek/rtl9300/librtl9300.o
                0x0000000083fa40a4                DMY_REG0_PORT_ISO_RTL9300_FIELDS
 .data.PORT_ISO_VB_EGR_CTRL_RTL9300_FIELDS
                0x0000000083fa40ac        0x8 board/Realtek/rtl9300/librtl9300.o
                0x0000000083fa40ac                PORT_ISO_VB_EGR_CTRL_RTL9300_FIELDS
 .data.PORT_ISO_VB_ISO_PMSK_CTRL_RTL9300_FIELDS
                0x0000000083fa40b4       0x30 board/Realtek/rtl9300/librtl9300.o
                0x0000000083fa40b4                PORT_ISO_VB_ISO_PMSK_CTRL_RTL9300_FIELDS
 .data.PORT_ISO_RESTRICT_ROUTE_CTRL_RTL9300_FIELDS
                0x0000000083fa40e4       0x10 board/Realtek/rtl9300/librtl9300.o
                0x0000000083fa40e4                PORT_ISO_RESTRICT_ROUTE_CTRL_RTL9300_FIELDS
 .data.DMY_REG3_VLAN_RTL9300_FIELDS
                0x0000000083fa40f4        0x8 board/Realtek/rtl9300/librtl9300.o
                0x0000000083fa40f4                DMY_REG3_VLAN_RTL9300_FIELDS
 .data.ST_CTRL_RTL9300_FIELDS
                0x0000000083fa40fc       0x10 board/Realtek/rtl9300/librtl9300.o
                0x0000000083fa40fc                ST_CTRL_RTL9300_FIELDS
 .data.DMY_REG0_TRUNK_RTL9300_FIELDS
                0x0000000083fa410c        0x8 board/Realtek/rtl9300/librtl9300.o
                0x0000000083fa410c                DMY_REG0_TRUNK_RTL9300_FIELDS
 .data.LOCAL_PORT_TRK_MAP_RTL9300_FIELDS
                0x0000000083fa4114       0x18 board/Realtek/rtl9300/librtl9300.o
                0x0000000083fa4114                LOCAL_PORT_TRK_MAP_RTL9300_FIELDS
 .data.TRK_STK_CTRL_RTL9300_FIELDS
                0x0000000083fa412c       0x28 board/Realtek/rtl9300/librtl9300.o
                0x0000000083fa412c                TRK_STK_CTRL_RTL9300_FIELDS
 .data.TRK_LOCAL_TBL_RTL9300_FIELDS
                0x0000000083fa4154       0x80 board/Realtek/rtl9300/librtl9300.o
                0x0000000083fa4154                TRK_LOCAL_TBL_RTL9300_FIELDS
 .data.TRK_LOCAL_TBL_REFRESH_RTL9300_FIELDS
                0x0000000083fa41d4       0x10 board/Realtek/rtl9300/librtl9300.o
                0x0000000083fa41d4                TRK_LOCAL_TBL_REFRESH_RTL9300_FIELDS
 .data.TRK_SHFT_CTRL_RTL9300_FIELDS
                0x0000000083fa41e4       0x58 board/Realtek/rtl9300/librtl9300.o
                0x0000000083fa41e4                TRK_SHFT_CTRL_RTL9300_FIELDS
 .data.TRK_CTRL_RTL9300_FIELDS
                0x0000000083fa423c       0x40 board/Realtek/rtl9300/librtl9300.o
                0x0000000083fa423c                TRK_CTRL_RTL9300_FIELDS
 .data.TRK_HASH_CTRL_RTL9300_FIELDS
                0x0000000083fa427c       0x18 board/Realtek/rtl9300/librtl9300.o
                0x0000000083fa427c                TRK_HASH_CTRL_RTL9300_FIELDS
 .data.TRK_MBR_CTRL_RTL9300_FIELDS
                0x0000000083fa4294       0x10 board/Realtek/rtl9300/librtl9300.o
                0x0000000083fa4294                TRK_MBR_CTRL_RTL9300_FIELDS
 .data.TRK_ID_CTRL_RTL9300_FIELDS
                0x0000000083fa42a4       0x18 board/Realtek/rtl9300/librtl9300.o
                0x0000000083fa42a4                TRK_ID_CTRL_RTL9300_FIELDS
 .data.DMY_REG2_PKT_ENCAP_RTL9300_FIELDS
                0x0000000083fa42bc        0x8 board/Realtek/rtl9300/librtl9300.o
                0x0000000083fa42bc                DMY_REG2_PKT_ENCAP_RTL9300_FIELDS
 .data.DMY_REG0_L2_RTL9300_FIELDS
                0x0000000083fa42c4        0x8 board/Realtek/rtl9300/librtl9300.o
                0x0000000083fa42c4                DMY_REG0_L2_RTL9300_FIELDS
 .data.VLAN_EVC_ENTRY_INDICATION_RTL9300_FIELDS
                0x0000000083fa42cc        0x8 board/Realtek/rtl9300/librtl9300.o
                0x0000000083fa42cc                VLAN_EVC_ENTRY_INDICATION_RTL9300_FIELDS
 .data.VLAN_IVC_ENTRY_INDICATION_RTL9300_FIELDS
                0x0000000083fa42d4        0x8 board/Realtek/rtl9300/librtl9300.o
                0x0000000083fa42d4                VLAN_IVC_ENTRY_INDICATION_RTL9300_FIELDS
 .data.VLAN_EVC_CTRL_RTL9300_FIELDS
                0x0000000083fa42dc       0x28 board/Realtek/rtl9300/librtl9300.o
                0x0000000083fa42dc                VLAN_EVC_CTRL_RTL9300_FIELDS
 .data.VLAN_IVC_CTRL_RTL9300_FIELDS
                0x0000000083fa4304       0x38 board/Realtek/rtl9300/librtl9300.o
                0x0000000083fa4304                VLAN_IVC_CTRL_RTL9300_FIELDS
 .data.VLAN_TRUNK_L2TBL_CNVT_CTRL_RTL9300_FIELDS
                0x0000000083fa433c       0x20 board/Realtek/rtl9300/librtl9300.o
                0x0000000083fa433c                VLAN_TRUNK_L2TBL_CNVT_CTRL_RTL9300_FIELDS
 .data.VLAN_PORT_L2TBL_CNVT_CTRL_RTL9300_FIELDS
                0x0000000083fa435c       0x20 board/Realtek/rtl9300/librtl9300.o
                0x0000000083fa435c                VLAN_PORT_L2TBL_CNVT_CTRL_RTL9300_FIELDS
 .data.VLAN_IVC_BLK_CTRL_RTL9300_FIELDS
                0x0000000083fa437c        0x8 board/Realtek/rtl9300/librtl9300.o
                0x0000000083fa437c                VLAN_IVC_BLK_CTRL_RTL9300_FIELDS
 .data.DMY_REG1_PKT_ENCAP_RTL9300_FIELDS
                0x0000000083fa4384       0x18 board/Realtek/rtl9300/librtl9300.o
                0x0000000083fa4384                DMY_REG1_PKT_ENCAP_RTL9300_FIELDS
 .data.DMY_REG1_VLAN_RTL9300_FIELDS
                0x0000000083fa439c        0x8 board/Realtek/rtl9300/librtl9300.o
                0x0000000083fa439c                DMY_REG1_VLAN_RTL9300_FIELDS
 .data.DMY_REG0_VLAN_RTL9300_FIELDS
                0x0000000083fa43a4        0x8 board/Realtek/rtl9300/librtl9300.o
                0x0000000083fa43a4                DMY_REG0_VLAN_RTL9300_FIELDS
 .data.VLAN_PORT_EGR_TPID_CTRL_RTL9300_FIELDS
                0x0000000083fa43ac       0x28 board/Realtek/rtl9300/librtl9300.o
                0x0000000083fa43ac                VLAN_PORT_EGR_TPID_CTRL_RTL9300_FIELDS
 .data.VLAN_PORT_TAG_STS_CTRL_RTL9300_FIELDS
                0x0000000083fa43d4       0x38 board/Realtek/rtl9300/librtl9300.o
                0x0000000083fa43d4                VLAN_PORT_TAG_STS_CTRL_RTL9300_FIELDS
 .data.VLAN_PORT_EGR_FLTR_RTL9300_FIELDS
                0x0000000083fa440c        0x8 board/Realtek/rtl9300/librtl9300.o
                0x0000000083fa440c                VLAN_PORT_EGR_FLTR_RTL9300_FIELDS
 .data.VLAN_PORT_IGR_FLTR_RTL9300_FIELDS
                0x0000000083fa4414        0x8 board/Realtek/rtl9300/librtl9300.o
                0x0000000083fa4414                VLAN_PORT_IGR_FLTR_RTL9300_FIELDS
 .data.VLAN_APP_PKT_CTRL_RTL9300_FIELDS
                0x0000000083fa441c       0x38 board/Realtek/rtl9300/librtl9300.o
                0x0000000083fa441c                VLAN_APP_PKT_CTRL_RTL9300_FIELDS
 .data.VLAN_PORT_FWD_CTRL_RTL9300_FIELDS
                0x0000000083fa4454       0x28 board/Realtek/rtl9300/librtl9300.o
                0x0000000083fa4454                VLAN_PORT_FWD_CTRL_RTL9300_FIELDS
 .data.VLAN_PORT_PB_VLAN_RTL9300_FIELDS
                0x0000000083fa447c       0x28 board/Realtek/rtl9300/librtl9300.o
                0x0000000083fa447c                VLAN_PORT_PB_VLAN_RTL9300_FIELDS
 .data.VLAN_CTRL_RTL9300_FIELDS
                0x0000000083fa44a4       0x38 board/Realtek/rtl9300/librtl9300.o
                0x0000000083fa44a4                VLAN_CTRL_RTL9300_FIELDS
 .data.VLAN_PORT_AFT_RTL9300_FIELDS
                0x0000000083fa44dc       0x28 board/Realtek/rtl9300/librtl9300.o
                0x0000000083fa44dc                VLAN_PORT_AFT_RTL9300_FIELDS
 .data.VLAN_PORT_ETAG_TPID_CMP_RTL9300_FIELDS
                0x0000000083fa4504       0x10 board/Realtek/rtl9300/librtl9300.o
                0x0000000083fa4504                VLAN_PORT_ETAG_TPID_CMP_RTL9300_FIELDS
 .data.VLAN_PORT_OTAG_TPID_CMP_MSK_RTL9300_FIELDS
                0x0000000083fa4514       0x10 board/Realtek/rtl9300/librtl9300.o
                0x0000000083fa4514                VLAN_PORT_OTAG_TPID_CMP_MSK_RTL9300_FIELDS
 .data.VLAN_PORT_ITAG_TPID_CMP_MSK_RTL9300_FIELDS
                0x0000000083fa4524       0x10 board/Realtek/rtl9300/librtl9300.o
                0x0000000083fa4524                VLAN_PORT_ITAG_TPID_CMP_MSK_RTL9300_FIELDS
 .data.VLAN_ETAG_TPID_CTRL_RTL9300_FIELDS
                0x0000000083fa4534       0x10 board/Realtek/rtl9300/librtl9300.o
                0x0000000083fa4534                VLAN_ETAG_TPID_CTRL_RTL9300_FIELDS
 .data.VLAN_TAG_TPID_CTRL_RTL9300_FIELDS
                0x0000000083fa4544       0x10 board/Realtek/rtl9300/librtl9300.o
                0x0000000083fa4544                VLAN_TAG_TPID_CTRL_RTL9300_FIELDS
 .data.DMY_REG0_CHIP_MISC_T_RTL9300_FIELDS
                0x0000000083fa4554        0x8 board/Realtek/rtl9300/librtl9300.o
                0x0000000083fa4554                DMY_REG0_CHIP_MISC_T_RTL9300_FIELDS
 .data.PS_SOC_CTRL_RTL9300_FIELDS
                0x0000000083fa455c       0x10 board/Realtek/rtl9300/librtl9300.o
                0x0000000083fa455c                PS_SOC_CTRL_RTL9300_FIELDS
 .data.PS_GATCLK_CTRL_RTL9300_FIELDS
                0x0000000083fa456c       0x18 board/Realtek/rtl9300/librtl9300.o
                0x0000000083fa456c                PS_GATCLK_CTRL_RTL9300_FIELDS
 .data.PS_GATCLK_EN_RTL9300_FIELDS
                0x0000000083fa4584       0x38 board/Realtek/rtl9300/librtl9300.o
                0x0000000083fa4584                PS_GATCLK_EN_RTL9300_FIELDS
 .data.PS_GATCLK_MASK_RTL9300_FIELDS
                0x0000000083fa45bc       0x10 board/Realtek/rtl9300/librtl9300.o
                0x0000000083fa45bc                PS_GATCLK_MASK_RTL9300_FIELDS
 .data.EEEP_TX_IDLE_TIMER_CTRL_RTL9300_FIELDS
                0x0000000083fa45cc       0x20 board/Realtek/rtl9300/librtl9300.o
                0x0000000083fa45cc                EEEP_TX_IDLE_TIMER_CTRL_RTL9300_FIELDS
 .data.EEEP_RX_IDLE_TIMER_CTRL_RTL9300_FIELDS
                0x0000000083fa45ec       0x20 board/Realtek/rtl9300/librtl9300.o
                0x0000000083fa45ec                EEEP_RX_IDLE_TIMER_CTRL_RTL9300_FIELDS
 .data.EEEP_RX_TIMER_GIGA_CTRL1_RTL9300_FIELDS
                0x0000000083fa460c       0x10 board/Realtek/rtl9300/librtl9300.o
                0x0000000083fa460c                EEEP_RX_TIMER_GIGA_CTRL1_RTL9300_FIELDS
 .data.EEEP_RX_TIMER_GIGA_CTRL0_RTL9300_FIELDS
                0x0000000083fa461c       0x20 board/Realtek/rtl9300/librtl9300.o
                0x0000000083fa461c                EEEP_RX_TIMER_GIGA_CTRL0_RTL9300_FIELDS
 .data.EEEP_RX_TIMER_500M_CTRL1_RTL9300_FIELDS
                0x0000000083fa463c       0x10 board/Realtek/rtl9300/librtl9300.o
                0x0000000083fa463c                EEEP_RX_TIMER_500M_CTRL1_RTL9300_FIELDS
 .data.EEEP_RX_TIMER_500M_CTRL0_RTL9300_FIELDS
                0x0000000083fa464c       0x20 board/Realtek/rtl9300/librtl9300.o
                0x0000000083fa464c                EEEP_RX_TIMER_500M_CTRL0_RTL9300_FIELDS
 .data.EEEP_RX_TIMER_100M_CTRL_RTL9300_FIELDS
                0x0000000083fa466c       0x20 board/Realtek/rtl9300/librtl9300.o
                0x0000000083fa466c                EEEP_RX_TIMER_100M_CTRL_RTL9300_FIELDS
 .data.EEEP_RX_SLEEP_STEP_CTRL_RTL9300_FIELDS
                0x0000000083fa468c       0x10 board/Realtek/rtl9300/librtl9300.o
                0x0000000083fa468c                EEEP_RX_SLEEP_STEP_CTRL_RTL9300_FIELDS
 .data.EEEP_RX_RATE_GIGA_CTRL_RTL9300_FIELDS
                0x0000000083fa469c       0x18 board/Realtek/rtl9300/librtl9300.o
                0x0000000083fa469c                EEEP_RX_RATE_GIGA_CTRL_RTL9300_FIELDS
 .data.EEEP_RX_RATE_500M_CTRL_RTL9300_FIELDS
                0x0000000083fa46b4       0x18 board/Realtek/rtl9300/librtl9300.o
                0x0000000083fa46b4                EEEP_RX_RATE_500M_CTRL_RTL9300_FIELDS
 .data.EEEP_RX_RATE_100M_CTRL_RTL9300_FIELDS
                0x0000000083fa46cc       0x18 board/Realtek/rtl9300/librtl9300.o
                0x0000000083fa46cc                EEEP_RX_RATE_100M_CTRL_RTL9300_FIELDS
 .data.EEEP_TX_WAKE_TIMER_CTRL_RTL9300_FIELDS
                0x0000000083fa46e4       0x20 board/Realtek/rtl9300/librtl9300.o
                0x0000000083fa46e4                EEEP_TX_WAKE_TIMER_CTRL_RTL9300_FIELDS
 .data.EEEP_TX_RATE_GIGA_CTRL_RTL9300_FIELDS
                0x0000000083fa4704       0x20 board/Realtek/rtl9300/librtl9300.o
                0x0000000083fa4704                EEEP_TX_RATE_GIGA_CTRL_RTL9300_FIELDS
 .data.EEEP_TX_RATE_500M_CTRL_RTL9300_FIELDS
                0x0000000083fa4724       0x20 board/Realtek/rtl9300/librtl9300.o
                0x0000000083fa4724                EEEP_TX_RATE_500M_CTRL_RTL9300_FIELDS
 .data.EEEP_TX_RATE_100M_CTRL_RTL9300_FIELDS
                0x0000000083fa4744       0x20 board/Realtek/rtl9300/librtl9300.o
                0x0000000083fa4744                EEEP_TX_RATE_100M_CTRL_RTL9300_FIELDS
 .data.EEEP_TIMER_UNIT_CTRL_RTL9300_FIELDS
                0x0000000083fa4764       0x20 board/Realtek/rtl9300/librtl9300.o
                0x0000000083fa4764                EEEP_TIMER_UNIT_CTRL_RTL9300_FIELDS
 .data.EEEP_GBL_CTRL_RTL9300_FIELDS
                0x0000000083fa4784       0x10 board/Realtek/rtl9300/librtl9300.o
                0x0000000083fa4784                EEEP_GBL_CTRL_RTL9300_FIELDS
 .data.EEEP_PORT_CTRL_RTL9300_FIELDS
                0x0000000083fa4794       0x40 board/Realtek/rtl9300/librtl9300.o
                0x0000000083fa4794                EEEP_PORT_CTRL_RTL9300_FIELDS
 .data.EEE_RX_10G_CTRL_RTL9300_FIELDS
                0x0000000083fa47d4       0x18 board/Realtek/rtl9300/librtl9300.o
                0x0000000083fa47d4                EEE_RX_10G_CTRL_RTL9300_FIELDS
 .data.EEE_RX_5G_CTRL_RTL9300_FIELDS
                0x0000000083fa47ec       0x18 board/Realtek/rtl9300/librtl9300.o
                0x0000000083fa47ec                EEE_RX_5G_CTRL_RTL9300_FIELDS
 .data.EEE_RX_2P5G_CTRL_RTL9300_FIELDS
                0x0000000083fa4804       0x18 board/Realtek/rtl9300/librtl9300.o
                0x0000000083fa4804                EEE_RX_2P5G_CTRL_RTL9300_FIELDS
 .data.EEE_RX_GE_CTRL_RTL9300_FIELDS
                0x0000000083fa481c       0x18 board/Realtek/rtl9300/librtl9300.o
                0x0000000083fa481c                EEE_RX_GE_CTRL_RTL9300_FIELDS
 .data.EEE_RX_GELITE_CTRL_RTL9300_FIELDS
                0x0000000083fa4834       0x18 board/Realtek/rtl9300/librtl9300.o
                0x0000000083fa4834                EEE_RX_GELITE_CTRL_RTL9300_FIELDS
 .data.EEE_CTRL_RTL9300_FIELDS
                0x0000000083fa484c       0x18 board/Realtek/rtl9300/librtl9300.o
                0x0000000083fa484c                EEE_CTRL_RTL9300_FIELDS
 .data.EEE_TX_TIMER_10G_CTRL_RTL9300_FIELDS
                0x0000000083fa4864       0x20 board/Realtek/rtl9300/librtl9300.o
                0x0000000083fa4864                EEE_TX_TIMER_10G_CTRL_RTL9300_FIELDS
 .data.EEE_TX_TIMER_5G_CTRL_RTL9300_FIELDS
                0x0000000083fa4884       0x20 board/Realtek/rtl9300/librtl9300.o
                0x0000000083fa4884                EEE_TX_TIMER_5G_CTRL_RTL9300_FIELDS
 .data.EEE_TX_TIMER_2P5G_CTRL_RTL9300_FIELDS
                0x0000000083fa48a4       0x20 board/Realtek/rtl9300/librtl9300.o
                0x0000000083fa48a4                EEE_TX_TIMER_2P5G_CTRL_RTL9300_FIELDS
 .data.EEE_TX_TIMER_GIGA_CTRL_RTL9300_FIELDS
                0x0000000083fa48c4       0x20 board/Realtek/rtl9300/librtl9300.o
                0x0000000083fa48c4                EEE_TX_TIMER_GIGA_CTRL_RTL9300_FIELDS
 .data.EEE_TX_TIMER_GELITE_CTRL_RTL9300_FIELDS
                0x0000000083fa48e4       0x20 board/Realtek/rtl9300/librtl9300.o
                0x0000000083fa48e4                EEE_TX_TIMER_GELITE_CTRL_RTL9300_FIELDS
 .data.EEE_TX_TIMER_100M_CTRL_RTL9300_FIELDS
                0x0000000083fa4904       0x18 board/Realtek/rtl9300/librtl9300.o
                0x0000000083fa4904                EEE_TX_TIMER_100M_CTRL_RTL9300_FIELDS
 .data.EEE_TX_CTRL_RTL9300_FIELDS
                0x0000000083fa491c       0x48 board/Realtek/rtl9300/librtl9300.o
                0x0000000083fa491c                EEE_TX_CTRL_RTL9300_FIELDS
 .data.EEE_TX_MINIFG_CTRL2_RTL9300_FIELDS
                0x0000000083fa4964       0x10 board/Realtek/rtl9300/librtl9300.o
                0x0000000083fa4964                EEE_TX_MINIFG_CTRL2_RTL9300_FIELDS
 .data.EEE_TX_MINIFG_CTRL1_RTL9300_FIELDS
                0x0000000083fa4974       0x10 board/Realtek/rtl9300/librtl9300.o
                0x0000000083fa4974                EEE_TX_MINIFG_CTRL1_RTL9300_FIELDS
 .data.EEE_TX_MINIFG_CTRL0_RTL9300_FIELDS
                0x0000000083fa4984       0x10 board/Realtek/rtl9300/librtl9300.o
                0x0000000083fa4984                EEE_TX_MINIFG_CTRL0_RTL9300_FIELDS
 .data.EEE_TX_Q_CTRL_RTL9300_FIELDS
                0x0000000083fa4994       0x18 board/Realtek/rtl9300/librtl9300.o
                0x0000000083fa4994                EEE_TX_Q_CTRL_RTL9300_FIELDS
 .data.DMY_REG0_CHIP_CHIP_AFE_RTL9300_FIELDS
                0x0000000083fa49ac        0x8 board/Realtek/rtl9300/librtl9300.o
                0x0000000083fa49ac                DMY_REG0_CHIP_CHIP_AFE_RTL9300_FIELDS
 .data.SDS_SUBMODE_CTRL1_RTL9300_FIELDS
                0x0000000083fa49b4       0x38 board/Realtek/rtl9300/librtl9300.o
                0x0000000083fa49b4                SDS_SUBMODE_CTRL1_RTL9300_FIELDS
 .data.SDS_SUBMODE_CTRL0_RTL9300_FIELDS
                0x0000000083fa49ec       0x18 board/Realtek/rtl9300/librtl9300.o
                0x0000000083fa49ec                SDS_SUBMODE_CTRL0_RTL9300_FIELDS
 .data.RG0X_CEN_RTT_RTL9300_FIELDS
                0x0000000083fa4a04       0x28 board/Realtek/rtl9300/librtl9300.o
                0x0000000083fa4a04                RG0X_CEN_RTT_RTL9300_FIELDS
 .data.RG2X_RG1X_CEN_RTL9300_FIELDS
                0x0000000083fa4a2c       0x10 board/Realtek/rtl9300/librtl9300.o
                0x0000000083fa4a2c                RG2X_RG1X_CEN_RTL9300_FIELDS
 .data.WRAP_SDS_INTF_CTRL6_RTL9300_FIELDS
                0x0000000083fa4a3c       0x20 board/Realtek/rtl9300/librtl9300.o
                0x0000000083fa4a3c                WRAP_SDS_INTF_CTRL6_RTL9300_FIELDS
 .data.WRAP_SDS_INTF_CTRL5_RTL9300_FIELDS
                0x0000000083fa4a5c       0x20 board/Realtek/rtl9300/librtl9300.o
                0x0000000083fa4a5c                WRAP_SDS_INTF_CTRL5_RTL9300_FIELDS
 .data.WRAP_SDS_INTF_CTRL4_RTL9300_FIELDS
                0x0000000083fa4a7c       0x20 board/Realtek/rtl9300/librtl9300.o
                0x0000000083fa4a7c                WRAP_SDS_INTF_CTRL4_RTL9300_FIELDS
 .data.WRAP_SDS_INTF_CTRL3_RTL9300_FIELDS
                0x0000000083fa4a9c       0x20 board/Realtek/rtl9300/librtl9300.o
                0x0000000083fa4a9c                WRAP_SDS_INTF_CTRL3_RTL9300_FIELDS
 .data.WRAP_SDS_INTF_CTRL1_RTL9300_FIELDS
                0x0000000083fa4abc       0x28 board/Realtek/rtl9300/librtl9300.o
                0x0000000083fa4abc                WRAP_SDS_INTF_CTRL1_RTL9300_FIELDS
 .data.WRAP_SDS_INTF_CTRL0_RTL9300_FIELDS
                0x0000000083fa4ae4       0x28 board/Realtek/rtl9300/librtl9300.o
                0x0000000083fa4ae4                WRAP_SDS_INTF_CTRL0_RTL9300_FIELDS
 .data.SDS_INTF_CTRL2_RTL9300_FIELDS
                0x0000000083fa4b0c       0x60 board/Realtek/rtl9300/librtl9300.o
                0x0000000083fa4b0c                SDS_INTF_CTRL2_RTL9300_FIELDS
 .data.SDS_INTF_CTRL1_RTL9300_FIELDS
                0x0000000083fa4b6c       0xa8 board/Realtek/rtl9300/librtl9300.o
                0x0000000083fa4b6c                SDS_INTF_CTRL1_RTL9300_FIELDS
 .data.SDS_INTF_CTRL0_RTL9300_FIELDS
                0x0000000083fa4c14       0xa8 board/Realtek/rtl9300/librtl9300.o
                0x0000000083fa4c14                SDS_INTF_CTRL0_RTL9300_FIELDS
 .data.SDS_VERSION_RTL9300_FIELDS
                0x0000000083fa4cbc       0x18 board/Realtek/rtl9300/librtl9300.o
                0x0000000083fa4cbc                SDS_VERSION_RTL9300_FIELDS
 .data.SDS_OUI_RTL9300_FIELDS
                0x0000000083fa4cd4       0x10 board/Realtek/rtl9300/librtl9300.o
                0x0000000083fa4cd4                SDS_OUI_RTL9300_FIELDS
 .data.SDS_INDACS_DATA_RTL9300_FIELDS
                0x0000000083fa4ce4       0x10 board/Realtek/rtl9300/librtl9300.o
                0x0000000083fa4ce4                SDS_INDACS_DATA_RTL9300_FIELDS
 .data.SDS_INDACS_CMD_RTL9300_FIELDS
                0x0000000083fa4cf4       0x30 board/Realtek/rtl9300/librtl9300.o
                0x0000000083fa4cf4                SDS_INDACS_CMD_RTL9300_FIELDS
 .data.SDS_MODE_SEL_3_RTL9300_FIELDS
                0x0000000083fa4d24       0x28 board/Realtek/rtl9300/librtl9300.o
                0x0000000083fa4d24                SDS_MODE_SEL_3_RTL9300_FIELDS
 .data.SDS_MODE_SEL_2_RTL9300_FIELDS
                0x0000000083fa4d4c       0x28 board/Realtek/rtl9300/librtl9300.o
                0x0000000083fa4d4c                SDS_MODE_SEL_2_RTL9300_FIELDS
 .data.SDS_MODE_SEL_1_RTL9300_FIELDS
                0x0000000083fa4d74       0x48 board/Realtek/rtl9300/librtl9300.o
                0x0000000083fa4d74                SDS_MODE_SEL_1_RTL9300_FIELDS
 .data.SDS_MODE_SEL_0_RTL9300_FIELDS
                0x0000000083fa4dbc       0x48 board/Realtek/rtl9300/librtl9300.o
                0x0000000083fa4dbc                SDS_MODE_SEL_0_RTL9300_FIELDS
 .data.SDS_CFG_REG2_RTL9300_FIELDS
                0x0000000083fa4e04       0x18 board/Realtek/rtl9300/librtl9300.o
                0x0000000083fa4e04                SDS_CFG_REG2_RTL9300_FIELDS
 .data.SDS_CFG_REG1_RTL9300_FIELDS
                0x0000000083fa4e1c       0x40 board/Realtek/rtl9300/librtl9300.o
                0x0000000083fa4e1c                SDS_CFG_REG1_RTL9300_FIELDS
 .data.SDS_CFG_REG0_RTL9300_FIELDS
                0x0000000083fa4e5c       0x30 board/Realtek/rtl9300/librtl9300.o
                0x0000000083fa4e5c                SDS_CFG_REG0_RTL9300_FIELDS
 .data.FIB10_INTF_CTRL_RTL9300_FIELDS
                0x0000000083fa4e8c        0x8 board/Realtek/rtl9300/librtl9300.o
                0x0000000083fa4e8c                FIB10_INTF_CTRL_RTL9300_FIELDS
 .data.FIB4_INTF_CTRL_RTL9300_FIELDS
                0x0000000083fa4e94        0x8 board/Realtek/rtl9300/librtl9300.o
                0x0000000083fa4e94                FIB4_INTF_CTRL_RTL9300_FIELDS
 .data.FIB0_INTF_CTRL_RTL9300_FIELDS
                0x0000000083fa4e9c        0x8 board/Realtek/rtl9300/librtl9300.o
                0x0000000083fa4e9c                FIB0_INTF_CTRL_RTL9300_FIELDS
 .data.SMI_10GPHY_POLLING_REG10_CFG_RTL9300_FIELDS
                0x0000000083fa4ea4       0x20 board/Realtek/rtl9300/librtl9300.o
                0x0000000083fa4ea4                SMI_10GPHY_POLLING_REG10_CFG_RTL9300_FIELDS
 .data.SMI_10GPHY_POLLING_REG9_CFG_RTL9300_FIELDS
                0x0000000083fa4ec4       0x20 board/Realtek/rtl9300/librtl9300.o
                0x0000000083fa4ec4                SMI_10GPHY_POLLING_REG9_CFG_RTL9300_FIELDS
 .data.SMI_10GPHY_POLLING_REG0_CFG_RTL9300_FIELDS
                0x0000000083fa4ee4       0x20 board/Realtek/rtl9300/librtl9300.o
                0x0000000083fa4ee4                SMI_10GPHY_POLLING_REG0_CFG_RTL9300_FIELDS
 .data.SMI_10GPHY_POLLING_SEL_1_RTL9300_FIELDS
                0x0000000083fa4f04       0x18 board/Realtek/rtl9300/librtl9300.o
                0x0000000083fa4f04                SMI_10GPHY_POLLING_SEL_1_RTL9300_FIELDS
 .data.UNI_DIR_CTRL_RTL9300_FIELDS
                0x0000000083fa4f1c       0x18 board/Realtek/rtl9300/librtl9300.o
                0x0000000083fa4f1c                UNI_DIR_CTRL_RTL9300_FIELDS
 .data.RLFD_10G_ADDR_RTL9300_FIELDS
                0x0000000083fa4f34       0x20 board/Realtek/rtl9300/librtl9300.o
                0x0000000083fa4f34                RLFD_10G_ADDR_RTL9300_FIELDS
 .data.RLFD_CTRL_RTL9300_FIELDS
                0x0000000083fa4f54       0x20 board/Realtek/rtl9300/librtl9300.o
                0x0000000083fa4f54                RLFD_CTRL_RTL9300_FIELDS
 .data.DMY_REG0_CHIP_AFE_RTL9300_FIELDS
                0x0000000083fa4f74        0x8 board/Realtek/rtl9300/librtl9300.o
                0x0000000083fa4f74                DMY_REG0_CHIP_AFE_RTL9300_FIELDS
 .data.DMY_REG0_SMI_CTRL_RTL9300_FIELDS
                0x0000000083fa4f7c        0x8 board/Realtek/rtl9300/librtl9300.o
                0x0000000083fa4f7c                DMY_REG0_SMI_CTRL_RTL9300_FIELDS
 .data.DMY_REG1_GLB_CTRL_RTL9300_FIELDS
                0x0000000083fa4f84        0x8 board/Realtek/rtl9300/librtl9300.o
                0x0000000083fa4f84                DMY_REG1_GLB_CTRL_RTL9300_FIELDS
 .data.DMY_REG0_ALE_GLB_RTL9300_FIELDS
                0x0000000083fa4f8c        0x8 board/Realtek/rtl9300/librtl9300.o
                0x0000000083fa4f8c                DMY_REG0_ALE_GLB_RTL9300_FIELDS
 .data.DMY_REG0_PER_PORT_MAC_RTL9300_FIELDS
                0x0000000083fa4f94        0x8 board/Realtek/rtl9300/librtl9300.o
                0x0000000083fa4f94                DMY_REG0_PER_PORT_MAC_RTL9300_FIELDS
 .data.EXT_SMI_ACCESS_CTRL_RTL9300_FIELDS
                0x0000000083fa4f9c       0x40 board/Realtek/rtl9300/librtl9300.o
                0x0000000083fa4f9c                EXT_SMI_ACCESS_CTRL_RTL9300_FIELDS
 .data.MAC_SSC_CTRL_4_RTL9300_FIELDS
                0x0000000083fa4fdc       0x30 board/Realtek/rtl9300/librtl9300.o
                0x0000000083fa4fdc                MAC_SSC_CTRL_4_RTL9300_FIELDS
 .data.MAC_SSC_CTRL_3_RTL9300_FIELDS
                0x0000000083fa500c       0x48 board/Realtek/rtl9300/librtl9300.o
                0x0000000083fa500c                MAC_SSC_CTRL_3_RTL9300_FIELDS
 .data.MAC_SSC_CTRL_2_RTL9300_FIELDS
                0x0000000083fa5054       0x10 board/Realtek/rtl9300/librtl9300.o
                0x0000000083fa5054                MAC_SSC_CTRL_2_RTL9300_FIELDS
 .data.MAC_SSC_CTRL_1_RTL9300_FIELDS
                0x0000000083fa5064       0x60 board/Realtek/rtl9300/librtl9300.o
                0x0000000083fa5064                MAC_SSC_CTRL_1_RTL9300_FIELDS
 .data.MAC_SSC_CTRL_0_RTL9300_FIELDS
                0x0000000083fa50c4       0x10 board/Realtek/rtl9300/librtl9300.o
                0x0000000083fa50c4                MAC_SSC_CTRL_0_RTL9300_FIELDS
 .data.MAC_L2_CPU_MAX_LEN_CTRL_RTL9300_FIELDS
                0x0000000083fa50d4       0x10 board/Realtek/rtl9300/librtl9300.o
                0x0000000083fa50d4                MAC_L2_CPU_MAX_LEN_CTRL_RTL9300_FIELDS
 .data.MAC_L2_PORT_MAX_LEN_CTRL_RTL9300_FIELDS
                0x0000000083fa50e4       0x20 board/Realtek/rtl9300/librtl9300.o
                0x0000000083fa50e4                MAC_L2_PORT_MAX_LEN_CTRL_RTL9300_FIELDS
 .data.MAC_L2_ADDR_CTRL_RTL9300_FIELDS
                0x0000000083fa5104       0x18 board/Realtek/rtl9300/librtl9300.o
                0x0000000083fa5104                MAC_L2_ADDR_CTRL_RTL9300_FIELDS
 .data.MAC_L2_CPU_TAG_ID_CTRL_RTL9300_FIELDS
                0x0000000083fa511c       0x10 board/Realtek/rtl9300/librtl9300.o
                0x0000000083fa511c                MAC_L2_CPU_TAG_ID_CTRL_RTL9300_FIELDS
 .data.MAC_L2_CPU_PORT_CTRL_RTL9300_FIELDS
                0x0000000083fa512c       0x18 board/Realtek/rtl9300/librtl9300.o
                0x0000000083fa512c                MAC_L2_CPU_PORT_CTRL_RTL9300_FIELDS
 .data.MAC_L2_PADDING_SEL_RTL9300_FIELDS
                0x0000000083fa5144       0x10 board/Realtek/rtl9300/librtl9300.o
                0x0000000083fa5144                MAC_L2_PADDING_SEL_RTL9300_FIELDS
 .data.MAC_L2_PORT_CTRL_RTL9300_FIELDS
                0x0000000083fa5154       0x38 board/Realtek/rtl9300/librtl9300.o
                0x0000000083fa5154                MAC_L2_PORT_CTRL_RTL9300_FIELDS
 .data.MAC_L2_GLOBAL_CTRL1_RTL9300_FIELDS
                0x0000000083fa518c       0x18 board/Realtek/rtl9300/librtl9300.o
                0x0000000083fa518c                MAC_L2_GLOBAL_CTRL1_RTL9300_FIELDS
 .data.MAC_L2_GLOBAL_CTRL0_RTL9300_FIELDS
                0x0000000083fa51a4       0x90 board/Realtek/rtl9300/librtl9300.o
                0x0000000083fa51a4                MAC_L2_GLOBAL_CTRL0_RTL9300_FIELDS
 .data.BONDING_REDEFINE_REG_RTL9300_FIELDS
                0x0000000083fa5234       0x20 board/Realtek/rtl9300/librtl9300.o
                0x0000000083fa5234                BONDING_REDEFINE_REG_RTL9300_FIELDS
 .data.MAC_EFUSE_CTRL_RTL9300_FIELDS
                0x0000000083fa5254       0x28 board/Realtek/rtl9300/librtl9300.o
                0x0000000083fa5254                MAC_EFUSE_CTRL_RTL9300_FIELDS
 .data.SMI_CTRL_RTL9300_FIELDS
                0x0000000083fa527c       0x50 board/Realtek/rtl9300/librtl9300.o
                0x0000000083fa527c                SMI_CTRL_RTL9300_FIELDS
 .data.SDS_MODE_ADJ_CTRL_RTL9300_FIELDS
                0x0000000083fa52cc       0x90 board/Realtek/rtl9300/librtl9300.o
                0x0000000083fa52cc                SDS_MODE_ADJ_CTRL_RTL9300_FIELDS
 .data.SMI_PORT24_27_ADDR_CTRL_RTL9300_FIELDS
                0x0000000083fa535c       0x28 board/Realtek/rtl9300/librtl9300.o
                0x0000000083fa535c                SMI_PORT24_27_ADDR_CTRL_RTL9300_FIELDS
 .data.SMI_PORT18_23_ADDR_CTRL_RTL9300_FIELDS
                0x0000000083fa5384       0x38 board/Realtek/rtl9300/librtl9300.o
                0x0000000083fa5384                SMI_PORT18_23_ADDR_CTRL_RTL9300_FIELDS
 .data.SMI_PORT12_17_ADDR_CTRL_RTL9300_FIELDS
                0x0000000083fa53bc       0x38 board/Realtek/rtl9300/librtl9300.o
                0x0000000083fa53bc                SMI_PORT12_17_ADDR_CTRL_RTL9300_FIELDS
 .data.SMI_PORT6_11_ADDR_CTRL_RTL9300_FIELDS
                0x0000000083fa53f4       0x38 board/Realtek/rtl9300/librtl9300.o
                0x0000000083fa53f4                SMI_PORT6_11_ADDR_CTRL_RTL9300_FIELDS
 .data.SMI_PORT0_5_ADDR_CTRL_RTL9300_FIELDS
                0x0000000083fa542c       0x38 board/Realtek/rtl9300/librtl9300.o
                0x0000000083fa542c                SMI_PORT0_5_ADDR_CTRL_RTL9300_FIELDS
 .data.SMI_ACCESS_PHY_CTRL_3_RTL9300_FIELDS
                0x0000000083fa5464       0x18 board/Realtek/rtl9300/librtl9300.o
                0x0000000083fa5464                SMI_ACCESS_PHY_CTRL_3_RTL9300_FIELDS
 .data.SMI_ACCESS_PHY_CTRL_2_RTL9300_FIELDS
                0x0000000083fa547c       0x10 board/Realtek/rtl9300/librtl9300.o
                0x0000000083fa547c                SMI_ACCESS_PHY_CTRL_2_RTL9300_FIELDS
 .data.SMI_ACCESS_PHY_CTRL_1_RTL9300_FIELDS
                0x0000000083fa548c       0x40 board/Realtek/rtl9300/librtl9300.o
                0x0000000083fa548c                SMI_ACCESS_PHY_CTRL_1_RTL9300_FIELDS
 .data.SMI_ACCESS_PHY_CTRL_0_RTL9300_FIELDS
                0x0000000083fa54cc       0x18 board/Realtek/rtl9300/librtl9300.o
                0x0000000083fa54cc                SMI_ACCESS_PHY_CTRL_0_RTL9300_FIELDS
 .data.PHY_MSTR_SLV_FAULT_STS_RTL9300_FIELDS
                0x0000000083fa54e4       0x10 board/Realtek/rtl9300/librtl9300.o
                0x0000000083fa54e4                PHY_MSTR_SLV_FAULT_STS_RTL9300_FIELDS
 .data.PHY_MSTR_SLV_STS_RTL9300_FIELDS
                0x0000000083fa54f4       0x10 board/Realtek/rtl9300/librtl9300.o
                0x0000000083fa54f4                PHY_MSTR_SLV_STS_RTL9300_FIELDS
 .data.PHY_EEE_ABLTY_RTL9300_FIELDS
                0x0000000083fa5504       0x10 board/Realtek/rtl9300/librtl9300.o
                0x0000000083fa5504                PHY_EEE_ABLTY_RTL9300_FIELDS
 .data.PHY_RX_PAUSE_STS_RTL9300_FIELDS
                0x0000000083fa5514       0x10 board/Realtek/rtl9300/librtl9300.o
                0x0000000083fa5514                PHY_RX_PAUSE_STS_RTL9300_FIELDS
 .data.PHY_TX_PAUSE_STS_RTL9300_FIELDS
                0x0000000083fa5524       0x10 board/Realtek/rtl9300/librtl9300.o
                0x0000000083fa5524                PHY_TX_PAUSE_STS_RTL9300_FIELDS
 .data.PHY_LINK_DUP_STS_RTL9300_FIELDS
                0x0000000083fa5534       0x10 board/Realtek/rtl9300/librtl9300.o
                0x0000000083fa5534                PHY_LINK_DUP_STS_RTL9300_FIELDS
 .data.PHY_LINK_SPD_STS_RTL9300_FIELDS
                0x0000000083fa5544        0x8 board/Realtek/rtl9300/librtl9300.o
                0x0000000083fa5544                PHY_LINK_SPD_STS_RTL9300_FIELDS
 .data.PHY_LINK_MEDIA_STS_RTL9300_FIELDS
                0x0000000083fa554c       0x10 board/Realtek/rtl9300/librtl9300.o
                0x0000000083fa554c                PHY_LINK_MEDIA_STS_RTL9300_FIELDS
 .data.PHY_LINK_STS_RTL9300_FIELDS
                0x0000000083fa555c       0x10 board/Realtek/rtl9300/librtl9300.o
                0x0000000083fa555c                PHY_LINK_STS_RTL9300_FIELDS
 .data.MAC_MSTR_SLV_FAULT_STS_RTL9300_FIELDS
                0x0000000083fa556c       0x10 board/Realtek/rtl9300/librtl9300.o
                0x0000000083fa556c                MAC_MSTR_SLV_FAULT_STS_RTL9300_FIELDS
 .data.MAC_MSTR_SLV_STS_RTL9300_FIELDS
                0x0000000083fa557c       0x10 board/Realtek/rtl9300/librtl9300.o
                0x0000000083fa557c                MAC_MSTR_SLV_STS_RTL9300_FIELDS
 .data.MAC_EEE_ABLTY_RTL9300_FIELDS
                0x0000000083fa558c       0x10 board/Realtek/rtl9300/librtl9300.o
                0x0000000083fa558c                MAC_EEE_ABLTY_RTL9300_FIELDS
 .data.MAC_RX_PAUSE_STS_RTL9300_FIELDS
                0x0000000083fa559c       0x10 board/Realtek/rtl9300/librtl9300.o
                0x0000000083fa559c                MAC_RX_PAUSE_STS_RTL9300_FIELDS
 .data.MAC_TX_PAUSE_STS_RTL9300_FIELDS
                0x0000000083fa55ac       0x10 board/Realtek/rtl9300/librtl9300.o
                0x0000000083fa55ac                MAC_TX_PAUSE_STS_RTL9300_FIELDS
 .data.MAC_LINK_DUP_STS_RTL9300_FIELDS
                0x0000000083fa55bc       0x10 board/Realtek/rtl9300/librtl9300.o
                0x0000000083fa55bc                MAC_LINK_DUP_STS_RTL9300_FIELDS
 .data.MAC_LINK_SPD_STS_RTL9300_FIELDS
                0x0000000083fa55cc        0x8 board/Realtek/rtl9300/librtl9300.o
                0x0000000083fa55cc                MAC_LINK_SPD_STS_RTL9300_FIELDS
 .data.MAC_LINK_MEDIA_STS_RTL9300_FIELDS
                0x0000000083fa55d4       0x10 board/Realtek/rtl9300/librtl9300.o
                0x0000000083fa55d4                MAC_LINK_MEDIA_STS_RTL9300_FIELDS
 .data.MAC_LINK_STS_RTL9300_FIELDS
                0x0000000083fa55e4       0x10 board/Realtek/rtl9300/librtl9300.o
                0x0000000083fa55e4                MAC_LINK_STS_RTL9300_FIELDS
 .data.LINK_DELAY_CTRL_RTL9300_FIELDS
                0x0000000083fa55f4       0x40 board/Realtek/rtl9300/librtl9300.o
                0x0000000083fa55f4                LINK_DELAY_CTRL_RTL9300_FIELDS
 .data.SMI_REG_CHK5_RESULT_RTL9300_FIELDS
                0x0000000083fa5634       0x10 board/Realtek/rtl9300/librtl9300.o
                0x0000000083fa5634                SMI_REG_CHK5_RESULT_RTL9300_FIELDS
 .data.SMI_REG_CHK5_DATA_10G_RTL9300_FIELDS
                0x0000000083fa5644       0x10 board/Realtek/rtl9300/librtl9300.o
                0x0000000083fa5644                SMI_REG_CHK5_DATA_10G_RTL9300_FIELDS
 .data.SMI_REG_CHK5_DATA_RTL9300_FIELDS
                0x0000000083fa5654       0x10 board/Realtek/rtl9300/librtl9300.o
                0x0000000083fa5654                SMI_REG_CHK5_DATA_RTL9300_FIELDS
 .data.SMI_REG_CHK5_PMSK_RTL9300_FIELDS
                0x0000000083fa5664       0x10 board/Realtek/rtl9300/librtl9300.o
                0x0000000083fa5664                SMI_REG_CHK5_PMSK_RTL9300_FIELDS
 .data.SMI_REG_CHK5_CTRL1_RTL9300_FIELDS
                0x0000000083fa5674       0x20 board/Realtek/rtl9300/librtl9300.o
                0x0000000083fa5674                SMI_REG_CHK5_CTRL1_RTL9300_FIELDS
 .data.SMI_REG_CHK5_CTRL0_RTL9300_FIELDS
                0x0000000083fa5694       0x20 board/Realtek/rtl9300/librtl9300.o
                0x0000000083fa5694                SMI_REG_CHK5_CTRL0_RTL9300_FIELDS
 .data.SMI_REG_CHK4_RESULT_RTL9300_FIELDS
                0x0000000083fa56b4       0x10 board/Realtek/rtl9300/librtl9300.o
                0x0000000083fa56b4                SMI_REG_CHK4_RESULT_RTL9300_FIELDS
 .data.SMI_REG_CHK4_DATA_10G_RTL9300_FIELDS
                0x0000000083fa56c4       0x10 board/Realtek/rtl9300/librtl9300.o
                0x0000000083fa56c4                SMI_REG_CHK4_DATA_10G_RTL9300_FIELDS
 .data.SMI_REG_CHK4_DATA_RTL9300_FIELDS
                0x0000000083fa56d4       0x10 board/Realtek/rtl9300/librtl9300.o
                0x0000000083fa56d4                SMI_REG_CHK4_DATA_RTL9300_FIELDS
 .data.SMI_REG_CHK4_PMSK_RTL9300_FIELDS
                0x0000000083fa56e4       0x10 board/Realtek/rtl9300/librtl9300.o
                0x0000000083fa56e4                SMI_REG_CHK4_PMSK_RTL9300_FIELDS
 .data.SMI_REG_CHK4_CTRL1_RTL9300_FIELDS
                0x0000000083fa56f4       0x20 board/Realtek/rtl9300/librtl9300.o
                0x0000000083fa56f4                SMI_REG_CHK4_CTRL1_RTL9300_FIELDS
 .data.SMI_REG_CHK4_CTRL0_RTL9300_FIELDS
                0x0000000083fa5714       0x20 board/Realtek/rtl9300/librtl9300.o
                0x0000000083fa5714                SMI_REG_CHK4_CTRL0_RTL9300_FIELDS
 .data.SMI_REG_CHK3_RESULT_RTL9300_FIELDS
                0x0000000083fa5734       0x10 board/Realtek/rtl9300/librtl9300.o
                0x0000000083fa5734                SMI_REG_CHK3_RESULT_RTL9300_FIELDS
 .data.SMI_REG_CHK3_DATA_10G_RTL9300_FIELDS
                0x0000000083fa5744       0x10 board/Realtek/rtl9300/librtl9300.o
                0x0000000083fa5744                SMI_REG_CHK3_DATA_10G_RTL9300_FIELDS
 .data.SMI_REG_CHK3_DATA_RTL9300_FIELDS
                0x0000000083fa5754       0x10 board/Realtek/rtl9300/librtl9300.o
                0x0000000083fa5754                SMI_REG_CHK3_DATA_RTL9300_FIELDS
 .data.SMI_REG_CHK3_PMSK_RTL9300_FIELDS
                0x0000000083fa5764       0x10 board/Realtek/rtl9300/librtl9300.o
                0x0000000083fa5764                SMI_REG_CHK3_PMSK_RTL9300_FIELDS
 .data.SMI_REG_CHK3_CTRL1_RTL9300_FIELDS
                0x0000000083fa5774       0x20 board/Realtek/rtl9300/librtl9300.o
                0x0000000083fa5774                SMI_REG_CHK3_CTRL1_RTL9300_FIELDS
 .data.SMI_REG_CHK3_CTRL0_RTL9300_FIELDS
                0x0000000083fa5794       0x20 board/Realtek/rtl9300/librtl9300.o
                0x0000000083fa5794                SMI_REG_CHK3_CTRL0_RTL9300_FIELDS
 .data.SMI_REG_CHK2_RESULT_RTL9300_FIELDS
                0x0000000083fa57b4       0x10 board/Realtek/rtl9300/librtl9300.o
                0x0000000083fa57b4                SMI_REG_CHK2_RESULT_RTL9300_FIELDS
 .data.SMI_REG_CHK2_DATA_10G_RTL9300_FIELDS
                0x0000000083fa57c4       0x10 board/Realtek/rtl9300/librtl9300.o
                0x0000000083fa57c4                SMI_REG_CHK2_DATA_10G_RTL9300_FIELDS
 .data.SMI_REG_CHK2_DATA_RTL9300_FIELDS
                0x0000000083fa57d4       0x10 board/Realtek/rtl9300/librtl9300.o
                0x0000000083fa57d4                SMI_REG_CHK2_DATA_RTL9300_FIELDS
 .data.SMI_REG_CHK2_PMSK_RTL9300_FIELDS
                0x0000000083fa57e4       0x10 board/Realtek/rtl9300/librtl9300.o
                0x0000000083fa57e4                SMI_REG_CHK2_PMSK_RTL9300_FIELDS
 .data.SMI_REG_CHK2_CTRL1_RTL9300_FIELDS
                0x0000000083fa57f4       0x20 board/Realtek/rtl9300/librtl9300.o
                0x0000000083fa57f4                SMI_REG_CHK2_CTRL1_RTL9300_FIELDS
 .data.SMI_REG_CHK2_CTRL0_RTL9300_FIELDS
                0x0000000083fa5814       0x20 board/Realtek/rtl9300/librtl9300.o
                0x0000000083fa5814                SMI_REG_CHK2_CTRL0_RTL9300_FIELDS
 .data.SMI_REG_CHK1_RESULT_RTL9300_FIELDS
                0x0000000083fa5834       0x10 board/Realtek/rtl9300/librtl9300.o
                0x0000000083fa5834                SMI_REG_CHK1_RESULT_RTL9300_FIELDS
 .data.SMI_REG_CHK1_DATA_10G_RTL9300_FIELDS
                0x0000000083fa5844       0x10 board/Realtek/rtl9300/librtl9300.o
                0x0000000083fa5844                SMI_REG_CHK1_DATA_10G_RTL9300_FIELDS
 .data.SMI_REG_CHK1_DATA_RTL9300_FIELDS
                0x0000000083fa5854       0x10 board/Realtek/rtl9300/librtl9300.o
                0x0000000083fa5854                SMI_REG_CHK1_DATA_RTL9300_FIELDS
 .data.SMI_REG_CHK1_PMSK_RTL9300_FIELDS
                0x0000000083fa5864       0x10 board/Realtek/rtl9300/librtl9300.o
                0x0000000083fa5864                SMI_REG_CHK1_PMSK_RTL9300_FIELDS
 .data.SMI_REG_CHK1_CTRL1_RTL9300_FIELDS
                0x0000000083fa5874       0x20 board/Realtek/rtl9300/librtl9300.o
                0x0000000083fa5874                SMI_REG_CHK1_CTRL1_RTL9300_FIELDS
 .data.SMI_REG_CHK1_CTRL0_RTL9300_FIELDS
                0x0000000083fa5894       0x20 board/Realtek/rtl9300/librtl9300.o
                0x0000000083fa5894                SMI_REG_CHK1_CTRL0_RTL9300_FIELDS
 .data.SMI_POLL_CTRL_RTL9300_FIELDS
                0x0000000083fa58b4       0x10 board/Realtek/rtl9300/librtl9300.o
                0x0000000083fa58b4                SMI_POLL_CTRL_RTL9300_FIELDS
 .data.MAC_FORCE_MODE_CTRL_RTL9300_FIELDS
                0x0000000083fa58c4       0x80 board/Realtek/rtl9300/librtl9300.o
                0x0000000083fa58c4                MAC_FORCE_MODE_CTRL_RTL9300_FIELDS
 .data.SMI_10GPHY_POLLING_SEL_0_RTL9300_FIELDS
                0x0000000083fa5944       0x18 board/Realtek/rtl9300/librtl9300.o
                0x0000000083fa5944                SMI_10GPHY_POLLING_SEL_0_RTL9300_FIELDS
 .data.MDIO_FREE_CNT_CTRL_RTL9300_FIELDS
                0x0000000083fa595c       0x18 board/Realtek/rtl9300/librtl9300.o
                0x0000000083fa595c                MDIO_FREE_CNT_CTRL_RTL9300_FIELDS
 .data.SMI_PRVTE_POLLING_CTRL_RTL9300_FIELDS
                0x0000000083fa5974       0x10 board/Realtek/rtl9300/librtl9300.o
                0x0000000083fa5974                SMI_PRVTE_POLLING_CTRL_RTL9300_FIELDS
 .data.SMI_PORT16_27_POLLING_SEL_RTL9300_FIELDS
                0x0000000083fa5984       0x68 board/Realtek/rtl9300/librtl9300.o
                0x0000000083fa5984                SMI_PORT16_27_POLLING_SEL_RTL9300_FIELDS
 .data.SMI_PORT0_15_POLLING_SEL_RTL9300_FIELDS
                0x0000000083fa59ec       0x80 board/Realtek/rtl9300/librtl9300.o
                0x0000000083fa59ec                SMI_PORT0_15_POLLING_SEL_RTL9300_FIELDS
 .data.SMI_MAC_TYPE_CTRL_RTL9300_FIELDS
                0x0000000083fa5a6c       0x58 board/Realtek/rtl9300/librtl9300.o
                0x0000000083fa5a6c                SMI_MAC_TYPE_CTRL_RTL9300_FIELDS
 .data.SMI_GLB_CTRL_RTL9300_FIELDS
                0x0000000083fa5ac4       0xd0 board/Realtek/rtl9300/librtl9300.o
                0x0000000083fa5ac4                SMI_GLB_CTRL_RTL9300_FIELDS
 .data.MAC_EEPROM_DOWN_LOAD_GROUP_MAC_POS_RTL9300_FIELDS
                0x0000000083fa5b94       0x10 board/Realtek/rtl9300/librtl9300.o
                0x0000000083fa5b94                MAC_EEPROM_DOWN_LOAD_GROUP_MAC_POS_RTL9300_FIELDS
 .data.MAC_EEPROM_DOWN_LOAD_PHY_POS_RTL9300_FIELDS
                0x0000000083fa5ba4       0x10 board/Realtek/rtl9300/librtl9300.o
                0x0000000083fa5ba4                MAC_EEPROM_DOWN_LOAD_PHY_POS_RTL9300_FIELDS
 .data.MAC_EEPROM_DOWN_LOAD_SERDES_POS_RTL9300_FIELDS
                0x0000000083fa5bb4       0x10 board/Realtek/rtl9300/librtl9300.o
                0x0000000083fa5bb4                MAC_EEPROM_DOWN_LOAD_SERDES_POS_RTL9300_FIELDS
 .data.MAC_EEPROM_DOWN_LOAD_MAC_POS_RTL9300_FIELDS
                0x0000000083fa5bc4       0x10 board/Realtek/rtl9300/librtl9300.o
                0x0000000083fa5bc4                MAC_EEPROM_DOWN_LOAD_MAC_POS_RTL9300_FIELDS
 .data.MAC_EEPROM_DOWN_LOAD_STS_RTL9300_FIELDS
                0x0000000083fa5bd4       0x20 board/Realtek/rtl9300/librtl9300.o
                0x0000000083fa5bd4                MAC_EEPROM_DOWN_LOAD_STS_RTL9300_FIELDS
 .data.MAC_EEPROM_DOWN_LOAD_CNTRL_RTL9300_FIELDS
                0x0000000083fa5bf4       0x18 board/Realtek/rtl9300/librtl9300.o
                0x0000000083fa5bf4                MAC_EEPROM_DOWN_LOAD_CNTRL_RTL9300_FIELDS
 .data.HALF_CHG_CTRL_RTL9300_FIELDS
                0x0000000083fa5c0c       0x38 board/Realtek/rtl9300/librtl9300.o
                0x0000000083fa5c0c                HALF_CHG_CTRL_RTL9300_FIELDS
 .data.MAC_PORT_CTRL_RTL9300_FIELDS
                0x0000000083fa5c44       0x20 board/Realtek/rtl9300/librtl9300.o
                0x0000000083fa5c44                MAC_PORT_CTRL_RTL9300_FIELDS
 .data.MAC_GLB_CTRL_RTL9300_FIELDS
                0x0000000083fa5c64       0x68 board/Realtek/rtl9300/librtl9300.o
                0x0000000083fa5c64                MAC_GLB_CTRL_RTL9300_FIELDS
 .data.DMY_REG0_PKT_ENCAP_RTL9300_FIELDS
                0x0000000083fa5ccc        0x8 board/Realtek/rtl9300/librtl9300.o
                0x0000000083fa5ccc                DMY_REG0_PKT_ENCAP_RTL9300_FIELDS
 .data.DMY_REG0_RT_TAB_RTL9300_FIELDS
                0x0000000083fa5cd4        0x8 board/Realtek/rtl9300/librtl9300.o
                0x0000000083fa5cd4                DMY_REG0_RT_TAB_RTL9300_FIELDS
 .data.DMY_REG0_ALE_TAB_RTL9300_FIELDS
                0x0000000083fa5cdc        0x8 board/Realtek/rtl9300/librtl9300.o
                0x0000000083fa5cdc                DMY_REG0_ALE_TAB_RTL9300_FIELDS
 .data.TBL_ACCESS_HSA_DATA_RTL9300_FIELDS
                0x0000000083fa5ce4        0x8 board/Realtek/rtl9300/librtl9300.o
                0x0000000083fa5ce4                TBL_ACCESS_HSA_DATA_RTL9300_FIELDS
 .data.TBL_ACCESS_HSA_CTRL_RTL9300_FIELDS
                0x0000000083fa5cec       0x28 board/Realtek/rtl9300/librtl9300.o
                0x0000000083fa5cec                TBL_ACCESS_HSA_CTRL_RTL9300_FIELDS
 .data.TBL_ACCESS_HSB_DATA_RTL9300_FIELDS
                0x0000000083fa5d14        0x8 board/Realtek/rtl9300/librtl9300.o
                0x0000000083fa5d14                TBL_ACCESS_HSB_DATA_RTL9300_FIELDS
 .data.TBL_ACCESS_HSB_CTRL_RTL9300_FIELDS
                0x0000000083fa5d1c       0x28 board/Realtek/rtl9300/librtl9300.o
                0x0000000083fa5d1c                TBL_ACCESS_HSB_CTRL_RTL9300_FIELDS
 .data.TBL_ACCESS_DATA_2_RTL9300_FIELDS
                0x0000000083fa5d44        0x8 board/Realtek/rtl9300/librtl9300.o
                0x0000000083fa5d44                TBL_ACCESS_DATA_2_RTL9300_FIELDS
 .data.TBL_ACCESS_CTRL_2_RTL9300_FIELDS
                0x0000000083fa5d4c       0x28 board/Realtek/rtl9300/librtl9300.o
                0x0000000083fa5d4c                TBL_ACCESS_CTRL_2_RTL9300_FIELDS
 .data.TBL_ACCESS_DATA_1_RTL9300_FIELDS
                0x0000000083fa5d74        0x8 board/Realtek/rtl9300/librtl9300.o
                0x0000000083fa5d74                TBL_ACCESS_DATA_1_RTL9300_FIELDS
 .data.TBL_ACCESS_CTRL_1_RTL9300_FIELDS
                0x0000000083fa5d7c       0x28 board/Realtek/rtl9300/librtl9300.o
                0x0000000083fa5d7c                TBL_ACCESS_CTRL_1_RTL9300_FIELDS
 .data.TBL_ACCESS_DATA_0_RTL9300_FIELDS
                0x0000000083fa5da4        0x8 board/Realtek/rtl9300/librtl9300.o
                0x0000000083fa5da4                TBL_ACCESS_DATA_0_RTL9300_FIELDS
 .data.TBL_ACCESS_CTRL_0_RTL9300_FIELDS
                0x0000000083fa5dac       0x28 board/Realtek/rtl9300/librtl9300.o
                0x0000000083fa5dac                TBL_ACCESS_CTRL_0_RTL9300_FIELDS
 .data.TBL_ACCESS_L2_DATA_RTL9300_FIELDS
                0x0000000083fa5dd4        0x8 board/Realtek/rtl9300/librtl9300.o
                0x0000000083fa5dd4                TBL_ACCESS_L2_DATA_RTL9300_FIELDS
 .data.TBL_ACCESS_L2_METHOD_CTRL2_RTL9300_FIELDS
                0x0000000083fa5ddc       0x28 board/Realtek/rtl9300/librtl9300.o
                0x0000000083fa5ddc                TBL_ACCESS_L2_METHOD_CTRL2_RTL9300_FIELDS
 .data.TBL_ACCESS_L2_METHOD_CTRL1_RTL9300_FIELDS
                0x0000000083fa5e04       0x20 board/Realtek/rtl9300/librtl9300.o
                0x0000000083fa5e04                TBL_ACCESS_L2_METHOD_CTRL1_RTL9300_FIELDS
 .data.TBL_ACCESS_L2_METHOD_CTRL0_RTL9300_FIELDS
                0x0000000083fa5e24       0x30 board/Realtek/rtl9300/librtl9300.o
                0x0000000083fa5e24                TBL_ACCESS_L2_METHOD_CTRL0_RTL9300_FIELDS
 .data.TBL_ACCESS_L2_CTRL_RTL9300_FIELDS
                0x0000000083fa5e54       0x30 board/Realtek/rtl9300/librtl9300.o
                0x0000000083fa5e54                TBL_ACCESS_L2_CTRL_RTL9300_FIELDS
 .data.DMY_REG0_CHIP_MISC_R_RTL9300_FIELDS
                0x0000000083fa5e84        0x8 board/Realtek/rtl9300/librtl9300.o
                0x0000000083fa5e84                DMY_REG0_CHIP_MISC_R_RTL9300_FIELDS
 .data.DMY_REG0_CHIP_MISC_RTL9300_FIELDS
                0x0000000083fa5e8c       0x18 board/Realtek/rtl9300/librtl9300.o
                0x0000000083fa5e8c                DMY_REG0_CHIP_MISC_RTL9300_FIELDS
 .data.DBG_VAL_RTL9300_FIELDS
                0x0000000083fa5ea4        0x8 board/Realtek/rtl9300/librtl9300.o
                0x0000000083fa5ea4                DBG_VAL_RTL9300_FIELDS
 .data.DBG_SIG_SEL3_RTL9300_FIELDS
                0x0000000083fa5eac        0x8 board/Realtek/rtl9300/librtl9300.o
                0x0000000083fa5eac                DBG_SIG_SEL3_RTL9300_FIELDS
 .data.DBG_SIG_SEL2_RTL9300_FIELDS
                0x0000000083fa5eb4        0x8 board/Realtek/rtl9300/librtl9300.o
                0x0000000083fa5eb4                DBG_SIG_SEL2_RTL9300_FIELDS
 .data.DBG_SIG_SEL1_RTL9300_FIELDS
                0x0000000083fa5ebc        0x8 board/Realtek/rtl9300/librtl9300.o
                0x0000000083fa5ebc                DBG_SIG_SEL1_RTL9300_FIELDS
 .data.DBG_SIG_SEL0_RTL9300_FIELDS
                0x0000000083fa5ec4        0x8 board/Realtek/rtl9300/librtl9300.o
                0x0000000083fa5ec4                DBG_SIG_SEL0_RTL9300_FIELDS
 .data.DBG_SEL3_RTL9300_FIELDS
                0x0000000083fa5ecc       0x18 board/Realtek/rtl9300/librtl9300.o
                0x0000000083fa5ecc                DBG_SEL3_RTL9300_FIELDS
 .data.DBG_SEL2_RTL9300_FIELDS
                0x0000000083fa5ee4       0x18 board/Realtek/rtl9300/librtl9300.o
                0x0000000083fa5ee4                DBG_SEL2_RTL9300_FIELDS
 .data.DBG_SEL1_RTL9300_FIELDS
                0x0000000083fa5efc       0x18 board/Realtek/rtl9300/librtl9300.o
                0x0000000083fa5efc                DBG_SEL1_RTL9300_FIELDS
 .data.DBG_SEL0_RTL9300_FIELDS
                0x0000000083fa5f14       0x18 board/Realtek/rtl9300/librtl9300.o
                0x0000000083fa5f14                DBG_SEL0_RTL9300_FIELDS
 .data.DBG_MODE_RTL9300_FIELDS
                0x0000000083fa5f2c       0x18 board/Realtek/rtl9300/librtl9300.o
                0x0000000083fa5f2c                DBG_MODE_RTL9300_FIELDS
 .data.STRP_DBG_RTL9300_FIELDS
                0x0000000083fa5f44        0x8 board/Realtek/rtl9300/librtl9300.o
                0x0000000083fa5f44                STRP_DBG_RTL9300_FIELDS
 .data.BOND_DBG_RTL9300_FIELDS
                0x0000000083fa5f4c       0x10 board/Realtek/rtl9300/librtl9300.o
                0x0000000083fa5f4c                BOND_DBG_RTL9300_FIELDS
 .data.SOC_DEBUG_RTL9300_FIELDS
                0x0000000083fa5f5c       0x40 board/Realtek/rtl9300/librtl9300.o
                0x0000000083fa5f5c                SOC_DEBUG_RTL9300_FIELDS
 .data.FT_SCAN_MODE_RTL9300_FIELDS
                0x0000000083fa5f9c       0x18 board/Realtek/rtl9300/librtl9300.o
                0x0000000083fa5f9c                FT_SCAN_MODE_RTL9300_FIELDS
 .data.IO_DRIVING_ABILITY_CTRL8_RTL9300_FIELDS
                0x0000000083fa5fb4       0x98 board/Realtek/rtl9300/librtl9300.o
                0x0000000083fa5fb4                IO_DRIVING_ABILITY_CTRL8_RTL9300_FIELDS
 .data.IO_DRIVING_ABILITY_CTRL7_RTL9300_FIELDS
                0x0000000083fa604c       0x58 board/Realtek/rtl9300/librtl9300.o
                0x0000000083fa604c                IO_DRIVING_ABILITY_CTRL7_RTL9300_FIELDS
 .data.IO_DRIVING_ABILITY_CTRL6_RTL9300_FIELDS
                0x0000000083fa60a4       0x10 board/Realtek/rtl9300/librtl9300.o
                0x0000000083fa60a4                IO_DRIVING_ABILITY_CTRL6_RTL9300_FIELDS
 .data.IO_DRIVING_ABILITY_CTRL5_RTL9300_FIELDS
                0x0000000083fa60b4       0x88 board/Realtek/rtl9300/librtl9300.o
                0x0000000083fa60b4                IO_DRIVING_ABILITY_CTRL5_RTL9300_FIELDS
 .data.IO_DRIVING_ABILITY_CTRL4_RTL9300_FIELDS
                0x0000000083fa613c       0xa8 board/Realtek/rtl9300/librtl9300.o
                0x0000000083fa613c                IO_DRIVING_ABILITY_CTRL4_RTL9300_FIELDS
 .data.IO_DRIVING_ABILITY_CTRL3_RTL9300_FIELDS
                0x0000000083fa61e4       0xa8 board/Realtek/rtl9300/librtl9300.o
                0x0000000083fa61e4                IO_DRIVING_ABILITY_CTRL3_RTL9300_FIELDS
 .data.IO_DRIVING_ABILITY_CTRL2_RTL9300_FIELDS
                0x0000000083fa628c       0x98 board/Realtek/rtl9300/librtl9300.o
                0x0000000083fa628c                IO_DRIVING_ABILITY_CTRL2_RTL9300_FIELDS
 .data.IO_DRIVING_ABILITY_CTRL1_RTL9300_FIELDS
                0x0000000083fa6324       0x10 board/Realtek/rtl9300/librtl9300.o
                0x0000000083fa6324                IO_DRIVING_ABILITY_CTRL1_RTL9300_FIELDS
 .data.IO_DRIVING_ABILITY_CTRL0_RTL9300_FIELDS
                0x0000000083fa6334       0x10 board/Realtek/rtl9300/librtl9300.o
                0x0000000083fa6334                IO_DRIVING_ABILITY_CTRL0_RTL9300_FIELDS
 .data.THERMAL_METER_RESULT_1_RTL9300_FIELDS
                0x0000000083fa6344       0x20 board/Realtek/rtl9300/librtl9300.o
                0x0000000083fa6344                THERMAL_METER_RESULT_1_RTL9300_FIELDS
 .data.THERMAL_METER_RESULT_0_RTL9300_FIELDS
                0x0000000083fa6364       0x50 board/Realtek/rtl9300/librtl9300.o
                0x0000000083fa6364                THERMAL_METER_RESULT_0_RTL9300_FIELDS
 .data.THERMAL_METER_CTRL_2_RTL9300_FIELDS
                0x0000000083fa63b4       0x50 board/Realtek/rtl9300/librtl9300.o
                0x0000000083fa63b4                THERMAL_METER_CTRL_2_RTL9300_FIELDS
 .data.THERMAL_METER_CTRL_1_RTL9300_FIELDS
                0x0000000083fa6404       0x10 board/Realtek/rtl9300/librtl9300.o
                0x0000000083fa6404                THERMAL_METER_CTRL_1_RTL9300_FIELDS
 .data.THERMAL_METER_CTRL_0_RTL9300_FIELDS
                0x0000000083fa6414       0x28 board/Realtek/rtl9300/librtl9300.o
                0x0000000083fa6414                THERMAL_METER_CTRL_0_RTL9300_FIELDS
 .data.SPD_DEBUG_RTL9300_FIELDS
                0x0000000083fa643c       0x18 board/Realtek/rtl9300/librtl9300.o
                0x0000000083fa643c                SPD_DEBUG_RTL9300_FIELDS
 .data.SPD_SENSOR3_RESULT_RTL9300_FIELDS
                0x0000000083fa6454       0x20 board/Realtek/rtl9300/librtl9300.o
                0x0000000083fa6454                SPD_SENSOR3_RESULT_RTL9300_FIELDS
 .data.SPD_SENSOR2_RESULT_RTL9300_FIELDS
                0x0000000083fa6474       0x20 board/Realtek/rtl9300/librtl9300.o
                0x0000000083fa6474                SPD_SENSOR2_RESULT_RTL9300_FIELDS
 .data.SPD_SENSOR1_RESULT_RTL9300_FIELDS
                0x0000000083fa6494       0x20 board/Realtek/rtl9300/librtl9300.o
                0x0000000083fa6494                SPD_SENSOR1_RESULT_RTL9300_FIELDS
 .data.SPD_SENSOR0_RESULT_RTL9300_FIELDS
                0x0000000083fa64b4       0x20 board/Realtek/rtl9300/librtl9300.o
                0x0000000083fa64b4                SPD_SENSOR0_RESULT_RTL9300_FIELDS
 .data.SPD_SENSOR3_CTRL_RTL9300_FIELDS
                0x0000000083fa64d4       0x30 board/Realtek/rtl9300/librtl9300.o
                0x0000000083fa64d4                SPD_SENSOR3_CTRL_RTL9300_FIELDS
 .data.SPD_SENSOR2_CTRL_RTL9300_FIELDS
                0x0000000083fa6504       0x30 board/Realtek/rtl9300/librtl9300.o
                0x0000000083fa6504                SPD_SENSOR2_CTRL_RTL9300_FIELDS
 .data.SPD_SENSOR1_CTRL_RTL9300_FIELDS
                0x0000000083fa6534       0x30 board/Realtek/rtl9300/librtl9300.o
                0x0000000083fa6534                SPD_SENSOR1_CTRL_RTL9300_FIELDS
 .data.SPD_SENSOR0_CTRL_RTL9300_FIELDS
                0x0000000083fa6564       0x30 board/Realtek/rtl9300/librtl9300.o
                0x0000000083fa6564                SPD_SENSOR0_CTRL_RTL9300_FIELDS
 .data.CALIB_CTRL_4_RTL9300_FIELDS
                0x0000000083fa6594       0x30 board/Realtek/rtl9300/librtl9300.o
                0x0000000083fa6594                CALIB_CTRL_4_RTL9300_FIELDS
 .data.CALIB_CTRL_3_RTL9300_FIELDS
                0x0000000083fa65c4       0x10 board/Realtek/rtl9300/librtl9300.o
                0x0000000083fa65c4                CALIB_CTRL_3_RTL9300_FIELDS
 .data.CALIB_CTRL_2_RTL9300_FIELDS
                0x0000000083fa65d4       0x38 board/Realtek/rtl9300/librtl9300.o
                0x0000000083fa65d4                CALIB_CTRL_2_RTL9300_FIELDS
 .data.CALIB_CTRL_1_RTL9300_FIELDS
                0x0000000083fa660c       0x58 board/Realtek/rtl9300/librtl9300.o
                0x0000000083fa660c                CALIB_CTRL_1_RTL9300_FIELDS
 .data.EFUSE_RDATA_CTRL_RTL9300_FIELDS
                0x0000000083fa6664       0x10 board/Realtek/rtl9300/librtl9300.o
                0x0000000083fa6664                EFUSE_RDATA_CTRL_RTL9300_FIELDS
 .data.EFUSE_WDATA_CTRL_RTL9300_FIELDS
                0x0000000083fa6674       0x10 board/Realtek/rtl9300/librtl9300.o
                0x0000000083fa6674                EFUSE_WDATA_CTRL_RTL9300_FIELDS
 .data.EFUSE_ACCESS_CTRL_RTL9300_FIELDS
                0x0000000083fa6684       0x30 board/Realtek/rtl9300/librtl9300.o
                0x0000000083fa6684                EFUSE_ACCESS_CTRL_RTL9300_FIELDS
 .data.EFUSE_ACCESS_EN_RTL9300_FIELDS
                0x0000000083fa66b4        0x8 board/Realtek/rtl9300/librtl9300.o
                0x0000000083fa66b4                EFUSE_ACCESS_EN_RTL9300_FIELDS
 .data.DMY_REG0_LED_RTL9300_FIELDS
                0x0000000083fa66bc        0x8 board/Realtek/rtl9300/librtl9300.o
                0x0000000083fa66bc                DMY_REG0_LED_RTL9300_FIELDS
 .data.DMY_REG0_GLB_CTRL_RTL9300_FIELDS
                0x0000000083fa66c4        0x8 board/Realtek/rtl9300/librtl9300.o
                0x0000000083fa66c4                DMY_REG0_GLB_CTRL_RTL9300_FIELDS
 .data.EXT_GPIO_INDRT_ACCESS_CTRL_RTL9300_FIELDS
                0x0000000083fa66cc       0x38 board/Realtek/rtl9300/librtl9300.o
                0x0000000083fa66cc                EXT_GPIO_INDRT_ACCESS_CTRL_RTL9300_FIELDS
 .data.EXT_GPIO_DATA_CTRL_3_RTL9300_FIELDS
                0x0000000083fa6704       0x10 board/Realtek/rtl9300/librtl9300.o
                0x0000000083fa6704                EXT_GPIO_DATA_CTRL_3_RTL9300_FIELDS
 .data.EXT_GPIO_DATA_CTRL_2_RTL9300_FIELDS
                0x0000000083fa6714        0x8 board/Realtek/rtl9300/librtl9300.o
                0x0000000083fa6714                EXT_GPIO_DATA_CTRL_2_RTL9300_FIELDS
 .data.EXT_GPIO_DATA_CTRL_1_RTL9300_FIELDS
                0x0000000083fa671c        0x8 board/Realtek/rtl9300/librtl9300.o
                0x0000000083fa671c                EXT_GPIO_DATA_CTRL_1_RTL9300_FIELDS
 .data.EXT_GPIO_DIR_CTRL_3_RTL9300_FIELDS
                0x0000000083fa6724       0x10 board/Realtek/rtl9300/librtl9300.o
                0x0000000083fa6724                EXT_GPIO_DIR_CTRL_3_RTL9300_FIELDS
 .data.EXT_GPIO_DIR_CTRL_2_RTL9300_FIELDS
                0x0000000083fa6734        0x8 board/Realtek/rtl9300/librtl9300.o
                0x0000000083fa6734                EXT_GPIO_DIR_CTRL_2_RTL9300_FIELDS
 .data.EXT_GPIO_DIR_CTRL_1_RTL9300_FIELDS
                0x0000000083fa673c        0x8 board/Realtek/rtl9300/librtl9300.o
                0x0000000083fa673c                EXT_GPIO_DIR_CTRL_1_RTL9300_FIELDS
 .data.EXT_GPIO_TRIG_RTL9300_FIELDS
                0x0000000083fa6744       0x18 board/Realtek/rtl9300/librtl9300.o
                0x0000000083fa6744                EXT_GPIO_TRIG_RTL9300_FIELDS
 .data.EXT_GPIO_GLB_CTRL_RTL9300_FIELDS
                0x0000000083fa675c       0x58 board/Realtek/rtl9300/librtl9300.o
                0x0000000083fa675c                EXT_GPIO_GLB_CTRL_RTL9300_FIELDS
 .data.LED_P_LOAD_CTRL_RTL9300_FIELDS
                0x0000000083fa67b4       0x20 board/Realtek/rtl9300/librtl9300.o
                0x0000000083fa67b4                LED_P_LOAD_CTRL_RTL9300_FIELDS
 .data.LED_LOAD_LV3_10M_RTL9300_FIELDS
                0x0000000083fa67d4       0x10 board/Realtek/rtl9300/librtl9300.o
                0x0000000083fa67d4                LED_LOAD_LV3_10M_RTL9300_FIELDS
 .data.LED_LOAD_LV2_10M_RTL9300_FIELDS
                0x0000000083fa67e4       0x10 board/Realtek/rtl9300/librtl9300.o
                0x0000000083fa67e4                LED_LOAD_LV2_10M_RTL9300_FIELDS
 .data.LED_LOAD_LV1_10M_RTL9300_FIELDS
                0x0000000083fa67f4       0x10 board/Realtek/rtl9300/librtl9300.o
                0x0000000083fa67f4                LED_LOAD_LV1_10M_RTL9300_FIELDS
 .data.LED_LOAD_LV3_100M_RTL9300_FIELDS
                0x0000000083fa6804       0x10 board/Realtek/rtl9300/librtl9300.o
                0x0000000083fa6804                LED_LOAD_LV3_100M_RTL9300_FIELDS
 .data.LED_LOAD_LV2_100M_RTL9300_FIELDS
                0x0000000083fa6814       0x10 board/Realtek/rtl9300/librtl9300.o
                0x0000000083fa6814                LED_LOAD_LV2_100M_RTL9300_FIELDS
 .data.LED_LOAD_LV1_100M_RTL9300_FIELDS
                0x0000000083fa6824       0x10 board/Realtek/rtl9300/librtl9300.o
                0x0000000083fa6824                LED_LOAD_LV1_100M_RTL9300_FIELDS
 .data.LED_LOAD_LV3_500M_RTL9300_FIELDS
                0x0000000083fa6834       0x10 board/Realtek/rtl9300/librtl9300.o
                0x0000000083fa6834                LED_LOAD_LV3_500M_RTL9300_FIELDS
 .data.LED_LOAD_LV2_500M_RTL9300_FIELDS
                0x0000000083fa6844       0x10 board/Realtek/rtl9300/librtl9300.o
                0x0000000083fa6844                LED_LOAD_LV2_500M_RTL9300_FIELDS
 .data.LED_LOAD_LV1_500M_RTL9300_FIELDS
                0x0000000083fa6854       0x10 board/Realtek/rtl9300/librtl9300.o
                0x0000000083fa6854                LED_LOAD_LV1_500M_RTL9300_FIELDS
 .data.LED_LOAD_LV3_1G_RTL9300_FIELDS
                0x0000000083fa6864       0x10 board/Realtek/rtl9300/librtl9300.o
                0x0000000083fa6864                LED_LOAD_LV3_1G_RTL9300_FIELDS
 .data.LED_LOAD_LV2_1G_RTL9300_FIELDS
                0x0000000083fa6874       0x10 board/Realtek/rtl9300/librtl9300.o
                0x0000000083fa6874                LED_LOAD_LV2_1G_RTL9300_FIELDS
 .data.LED_LOAD_LV1_1G_RTL9300_FIELDS
                0x0000000083fa6884       0x10 board/Realtek/rtl9300/librtl9300.o
                0x0000000083fa6884                LED_LOAD_LV1_1G_RTL9300_FIELDS
 .data.LED_LOAD_LV3_2P5G_RTL9300_FIELDS
                0x0000000083fa6894       0x10 board/Realtek/rtl9300/librtl9300.o
                0x0000000083fa6894                LED_LOAD_LV3_2P5G_RTL9300_FIELDS
 .data.LED_LOAD_LV2_2P5G_RTL9300_FIELDS
                0x0000000083fa68a4       0x10 board/Realtek/rtl9300/librtl9300.o
                0x0000000083fa68a4                LED_LOAD_LV2_2P5G_RTL9300_FIELDS
 .data.LED_LOAD_LV1_2P5G_RTL9300_FIELDS
                0x0000000083fa68b4       0x10 board/Realtek/rtl9300/librtl9300.o
                0x0000000083fa68b4                LED_LOAD_LV1_2P5G_RTL9300_FIELDS
 .data.LED_LOAD_LV3_5G_RTL9300_FIELDS
                0x0000000083fa68c4       0x10 board/Realtek/rtl9300/librtl9300.o
                0x0000000083fa68c4                LED_LOAD_LV3_5G_RTL9300_FIELDS
 .data.LED_LOAD_LV2_5G_RTL9300_FIELDS
                0x0000000083fa68d4       0x10 board/Realtek/rtl9300/librtl9300.o
                0x0000000083fa68d4                LED_LOAD_LV2_5G_RTL9300_FIELDS
 .data.LED_LOAD_LV1_5G_RTL9300_FIELDS
                0x0000000083fa68e4       0x10 board/Realtek/rtl9300/librtl9300.o
                0x0000000083fa68e4                LED_LOAD_LV1_5G_RTL9300_FIELDS
 .data.LED_LOAD_LV3_10G_RTL9300_FIELDS
                0x0000000083fa68f4       0x10 board/Realtek/rtl9300/librtl9300.o
                0x0000000083fa68f4                LED_LOAD_LV3_10G_RTL9300_FIELDS
 .data.LED_LOAD_LV2_10G_RTL9300_FIELDS
                0x0000000083fa6904       0x10 board/Realtek/rtl9300/librtl9300.o
                0x0000000083fa6904                LED_LOAD_LV2_10G_RTL9300_FIELDS
 .data.LED_LOAD_LV1_10G_RTL9300_FIELDS
                0x0000000083fa6914       0x10 board/Realtek/rtl9300/librtl9300.o
                0x0000000083fa6914                LED_LOAD_LV1_10G_RTL9300_FIELDS
 .data.LED_INDRT_ACCESS_CTRL_RTL9300_FIELDS
                0x0000000083fa6924       0x30 board/Realtek/rtl9300/librtl9300.o
                0x0000000083fa6924                LED_INDRT_ACCESS_CTRL_RTL9300_FIELDS
 .data.LED_PORT_SW_CTRL_RTL9300_FIELDS
                0x0000000083fa6954       0x48 board/Realtek/rtl9300/librtl9300.o
                0x0000000083fa6954                LED_PORT_SW_CTRL_RTL9300_FIELDS
 .data.LED_PORT_SW_EN_CTRL_RTL9300_FIELDS
                0x0000000083fa699c        0x8 board/Realtek/rtl9300/librtl9300.o
                0x0000000083fa699c                LED_PORT_SW_EN_CTRL_RTL9300_FIELDS
 .data.SW_LED_LOAD_RTL9300_FIELDS
                0x0000000083fa69a4       0x10 board/Realtek/rtl9300/librtl9300.o
                0x0000000083fa69a4                SW_LED_LOAD_RTL9300_FIELDS
 .data.LED_PORT_COMBO_MASK_CTRL_RTL9300_FIELDS
                0x0000000083fa69b4        0x8 board/Realtek/rtl9300/librtl9300.o
                0x0000000083fa69b4                LED_PORT_COMBO_MASK_CTRL_RTL9300_FIELDS
 .data.LED_PORT_FIB_MASK_CTRL_RTL9300_FIELDS
                0x0000000083fa69bc        0x8 board/Realtek/rtl9300/librtl9300.o
                0x0000000083fa69bc                LED_PORT_FIB_MASK_CTRL_RTL9300_FIELDS
 .data.LED_PORT_COPR_MASK_CTRL_RTL9300_FIELDS
                0x0000000083fa69c4        0x8 board/Realtek/rtl9300/librtl9300.o
                0x0000000083fa69c4                LED_PORT_COPR_MASK_CTRL_RTL9300_FIELDS
 .data.LED_PORT_FIB_SET_SEL_CTRL_RTL9300_FIELDS
                0x0000000083fa69cc        0x8 board/Realtek/rtl9300/librtl9300.o
                0x0000000083fa69cc                LED_PORT_FIB_SET_SEL_CTRL_RTL9300_FIELDS
 .data.LED_PORT_COPR_SET_SEL_CTRL_RTL9300_FIELDS
                0x0000000083fa69d4        0x8 board/Realtek/rtl9300/librtl9300.o
                0x0000000083fa69d4                LED_PORT_COPR_SET_SEL_CTRL_RTL9300_FIELDS
 .data.LED_SET0_0_CTRL_RTL9300_FIELDS
                0x0000000083fa69dc       0x10 board/Realtek/rtl9300/librtl9300.o
                0x0000000083fa69dc                LED_SET0_0_CTRL_RTL9300_FIELDS
 .data.LED_SET0_1_CTRL_RTL9300_FIELDS
                0x0000000083fa69ec       0x10 board/Realtek/rtl9300/librtl9300.o
                0x0000000083fa69ec                LED_SET0_1_CTRL_RTL9300_FIELDS
 .data.LED_SET1_0_CTRL_RTL9300_FIELDS
                0x0000000083fa69fc       0x10 board/Realtek/rtl9300/librtl9300.o
                0x0000000083fa69fc                LED_SET1_0_CTRL_RTL9300_FIELDS
 .data.LED_SET1_1_CTRL_RTL9300_FIELDS
                0x0000000083fa6a0c       0x10 board/Realtek/rtl9300/librtl9300.o
                0x0000000083fa6a0c                LED_SET1_1_CTRL_RTL9300_FIELDS
 .data.LED_SET2_0_CTRL_RTL9300_FIELDS
                0x0000000083fa6a1c       0x10 board/Realtek/rtl9300/librtl9300.o
                0x0000000083fa6a1c                LED_SET2_0_CTRL_RTL9300_FIELDS
 .data.LED_SET2_1_CTRL_RTL9300_FIELDS
                0x0000000083fa6a2c       0x10 board/Realtek/rtl9300/librtl9300.o
                0x0000000083fa6a2c                LED_SET2_1_CTRL_RTL9300_FIELDS
 .data.LED_SET3_0_CTRL_RTL9300_FIELDS
                0x0000000083fa6a3c       0x10 board/Realtek/rtl9300/librtl9300.o
                0x0000000083fa6a3c                LED_SET3_0_CTRL_RTL9300_FIELDS
 .data.LED_SET3_1_CTRL_RTL9300_FIELDS
                0x0000000083fa6a4c       0x10 board/Realtek/rtl9300/librtl9300.o
                0x0000000083fa6a4c                LED_SET3_1_CTRL_RTL9300_FIELDS
 .data.LED_PORT_NUM_CTRL_RTL9300_FIELDS
                0x0000000083fa6a5c        0x8 board/Realtek/rtl9300/librtl9300.o
                0x0000000083fa6a5c                LED_PORT_NUM_CTRL_RTL9300_FIELDS
 .data.LED_GLB_CTRL_RTL9300_FIELDS
                0x0000000083fa6a64       0x80 board/Realtek/rtl9300/librtl9300.o
                0x0000000083fa6a64                LED_GLB_CTRL_RTL9300_FIELDS
 .data.DMY_REG0_CHIP_PLL_RTL9300_FIELDS
                0x0000000083fa6ae4        0x8 board/Realtek/rtl9300/librtl9300.o
                0x0000000083fa6ae4                DMY_REG0_CHIP_PLL_RTL9300_FIELDS
 .data.PLL_CML_CTRL_RTL9300_FIELDS
                0x0000000083fa6aec       0x20 board/Realtek/rtl9300/librtl9300.o
                0x0000000083fa6aec                PLL_CML_CTRL_RTL9300_FIELDS
 .data.XTAL_CML_CTRL__RTL9300_FIELDS
                0x0000000083fa6b0c       0x50 board/Realtek/rtl9300/librtl9300.o
                0x0000000083fa6b0c                XTAL_CML_CTRL__RTL9300_FIELDS
 .data.PLL_BANDGAP_CTRL_RTL9300_FIELDS
                0x0000000083fa6b5c       0x30 board/Realtek/rtl9300/librtl9300.o
                0x0000000083fa6b5c                PLL_BANDGAP_CTRL_RTL9300_FIELDS
 .data.PLL_125M_MISC_CTRL_RTL9300_FIELDS
                0x0000000083fa6b8c       0xa0 board/Realtek/rtl9300/librtl9300.o
                0x0000000083fa6b8c                PLL_125M_MISC_CTRL_RTL9300_FIELDS
 .data.PLL_125M_CTRL1_RTL9300_FIELDS
                0x0000000083fa6c2c       0x28 board/Realtek/rtl9300/librtl9300.o
                0x0000000083fa6c2c                PLL_125M_CTRL1_RTL9300_FIELDS
 .data.PLL_125M_CTRL0_RTL9300_FIELDS
                0x0000000083fa6c54       0x38 board/Realtek/rtl9300/librtl9300.o
                0x0000000083fa6c54                PLL_125M_CTRL0_RTL9300_FIELDS
 .data.PLL_SW_DIV_CTRL_RTL9300_FIELDS
                0x0000000083fa6c8c       0x38 board/Realtek/rtl9300/librtl9300.o
                0x0000000083fa6c8c                PLL_SW_DIV_CTRL_RTL9300_FIELDS
 .data.PLL_SW_MISC_CTRL_RTL9300_FIELDS
                0x0000000083fa6cc4       0x90 board/Realtek/rtl9300/librtl9300.o
                0x0000000083fa6cc4                PLL_SW_MISC_CTRL_RTL9300_FIELDS
 .data.PLL_SW_CTRL1_RTL9300_FIELDS
                0x0000000083fa6d54       0x20 board/Realtek/rtl9300/librtl9300.o
                0x0000000083fa6d54                PLL_SW_CTRL1_RTL9300_FIELDS
 .data.PLL_SW_CTRL0_RTL9300_FIELDS
                0x0000000083fa6d74       0x38 board/Realtek/rtl9300/librtl9300.o
                0x0000000083fa6d74                PLL_SW_CTRL0_RTL9300_FIELDS
 .data.PLL_CPU_MISC_CTRL_RTL9300_FIELDS
                0x0000000083fa6dac       0x98 board/Realtek/rtl9300/librtl9300.o
                0x0000000083fa6dac                PLL_CPU_MISC_CTRL_RTL9300_FIELDS
 .data.PLL_CPU_CTRL1_RTL9300_FIELDS
                0x0000000083fa6e44       0x30 board/Realtek/rtl9300/librtl9300.o
                0x0000000083fa6e44                PLL_CPU_CTRL1_RTL9300_FIELDS
 .data.PLL_CPU_CTRL0_RTL9300_FIELDS
                0x0000000083fa6e74       0x40 board/Realtek/rtl9300/librtl9300.o
                0x0000000083fa6e74                PLL_CPU_CTRL0_RTL9300_FIELDS
 .data.PLL_GLB_CTRL1_RTL9300_FIELDS
                0x0000000083fa6eb4       0x48 board/Realtek/rtl9300/librtl9300.o
                0x0000000083fa6eb4                PLL_GLB_CTRL1_RTL9300_FIELDS
 .data.PLL_GLB_CTRL0_RTL9300_FIELDS
                0x0000000083fa6efc       0xb0 board/Realtek/rtl9300/librtl9300.o
                0x0000000083fa6efc                PLL_GLB_CTRL0_RTL9300_FIELDS
 .data.MAC_RST_DUR_RTL9300_FIELDS
                0x0000000083fa6fac       0x18 board/Realtek/rtl9300/librtl9300.o
                0x0000000083fa6fac                MAC_RST_DUR_RTL9300_FIELDS
 .data.RST_GLB_STS_3_RTL9300_FIELDS
                0x0000000083fa6fc4        0x8 board/Realtek/rtl9300/librtl9300.o
                0x0000000083fa6fc4                RST_GLB_STS_3_RTL9300_FIELDS
 .data.RST_GLB_STS_2_RTL9300_FIELDS
                0x0000000083fa6fcc       0x28 board/Realtek/rtl9300/librtl9300.o
                0x0000000083fa6fcc                RST_GLB_STS_2_RTL9300_FIELDS
 .data.RST_GLB_STS_1_RTL9300_FIELDS
                0x0000000083fa6ff4        0x8 board/Realtek/rtl9300/librtl9300.o
                0x0000000083fa6ff4                RST_GLB_STS_1_RTL9300_FIELDS
 .data.RST_GLB_STS_0_RTL9300_FIELDS
                0x0000000083fa6ffc        0x8 board/Realtek/rtl9300/librtl9300.o
                0x0000000083fa6ffc                RST_GLB_STS_0_RTL9300_FIELDS
 .data.RST_GLB_CTRL_0_RTL9300_FIELDS
                0x0000000083fa7004       0x68 board/Realtek/rtl9300/librtl9300.o
                0x0000000083fa7004                RST_GLB_CTRL_0_RTL9300_FIELDS
 .data.rtk_longan_reg_list
                0x0000000083fa706c     0x3944 board/Realtek/rtl9300/librtl9300.o
                0x0000000083fa706c                rtk_longan_reg_list
 .data.RTL9300_HSA_FIELDS
                0x0000000083faa9b0      0x224 board/Realtek/rtl9300/librtl9300.o
                0x0000000083faa9b0                RTL9300_HSA_FIELDS
 .data.RTL9300_HSB_FIELDS
                0x0000000083faabd4      0x13c board/Realtek/rtl9300/librtl9300.o
                0x0000000083faabd4                RTL9300_HSB_FIELDS
 .data.RTL9300_VACL_FIELDS
                0x0000000083faad10      0x1b0 board/Realtek/rtl9300/librtl9300.o
                0x0000000083faad10                RTL9300_VACL_FIELDS
 .data.RTL9300_LOG_FIELDS
                0x0000000083faaec0        0x4 board/Realtek/rtl9300/librtl9300.o
                0x0000000083faaec0                RTL9300_LOG_FIELDS
 .data.RTL9300_IACL_FIELDS
                0x0000000083faaec4      0x1bc board/Realtek/rtl9300/librtl9300.o
                0x0000000083faaec4                RTL9300_IACL_FIELDS
 .data.RTL9300_L3_ROUTER_MAC_FIELDS
                0x0000000083fab080       0x34 board/Realtek/rtl9300/librtl9300.o
                0x0000000083fab080                RTL9300_L3_ROUTER_MAC_FIELDS
 .data.RTL9300_L3_PREFIX_ROUTE_IPUC_FIELDS
                0x0000000083fab0b4       0x3c board/Realtek/rtl9300/librtl9300.o
                0x0000000083fab0b4                RTL9300_L3_PREFIX_ROUTE_IPUC_FIELDS
 .data.RTL9300_L3_PREFIX_ROUTE_IPMC_FIELDS
                0x0000000083fab0f0       0x78 board/Realtek/rtl9300/librtl9300.o
                0x0000000083fab0f0                RTL9300_L3_PREFIX_ROUTE_IPMC_FIELDS
 .data.RTL9300_L3_PREFIX_ROUTE_IP6UC_FIELDS
                0x0000000083fab168       0x3c board/Realtek/rtl9300/librtl9300.o
                0x0000000083fab168                RTL9300_L3_PREFIX_ROUTE_IP6UC_FIELDS
 .data.RTL9300_L3_PREFIX_ROUTE_IP6MC_FIELDS
                0x0000000083fab1a4       0x78 board/Realtek/rtl9300/librtl9300.o
                0x0000000083fab1a4                RTL9300_L3_PREFIX_ROUTE_IP6MC_FIELDS
 .data.RTL9300_L3_NEXTHOP_FIELDS
                0x0000000083fab21c        0x8 board/Realtek/rtl9300/librtl9300.o
                0x0000000083fab21c                RTL9300_L3_NEXTHOP_FIELDS
 .data.RTL9300_L3_HOST_ROUTE_IPUC_FIELDS
                0x0000000083fab224       0x2c board/Realtek/rtl9300/librtl9300.o
                0x0000000083fab224                RTL9300_L3_HOST_ROUTE_IPUC_FIELDS
 .data.RTL9300_L3_HOST_ROUTE_IPMC_FIELDS
                0x0000000083fab250       0x58 board/Realtek/rtl9300/librtl9300.o
                0x0000000083fab250                RTL9300_L3_HOST_ROUTE_IPMC_FIELDS
 .data.RTL9300_L3_HOST_ROUTE_IP6UC_FIELDS
                0x0000000083fab2a8       0x2c board/Realtek/rtl9300/librtl9300.o
                0x0000000083fab2a8                RTL9300_L3_HOST_ROUTE_IP6UC_FIELDS
 .data.RTL9300_L3_HOST_ROUTE_IP6MC_FIELDS
                0x0000000083fab2d4       0x58 board/Realtek/rtl9300/librtl9300.o
                0x0000000083fab2d4                RTL9300_L3_HOST_ROUTE_IP6MC_FIELDS
 .data.RTL9300_L3_EGR_INTF_MAC_FIELDS
                0x0000000083fab32c        0x4 board/Realtek/rtl9300/librtl9300.o
                0x0000000083fab32c                RTL9300_L3_EGR_INTF_MAC_FIELDS
 .data.RTL9300_L3_EGR_INTF_LIST_FIELDS
                0x0000000083fab330       0x1c board/Realtek/rtl9300/librtl9300.o
                0x0000000083fab330                RTL9300_L3_EGR_INTF_LIST_FIELDS
 .data.RTL9300_L3_EGR_INTF_FIELDS
                0x0000000083fab34c       0x28 board/Realtek/rtl9300/librtl9300.o
                0x0000000083fab34c                RTL9300_L3_EGR_INTF_FIELDS
 .data.RTL9300_REMARK_FIELDS
                0x0000000083fab374       0x10 board/Realtek/rtl9300/librtl9300.o
                0x0000000083fab374                RTL9300_REMARK_FIELDS
 .data.RTL9300_METER_FIELDS
                0x0000000083fab384       0x20 board/Realtek/rtl9300/librtl9300.o
                0x0000000083fab384                RTL9300_METER_FIELDS
 .data.RTL9300_MC_PORTMASK_FIELDS
                0x0000000083fab3a4        0x4 board/Realtek/rtl9300/librtl9300.o
                0x0000000083fab3a4                RTL9300_MC_PORTMASK_FIELDS
 .data.RTL9300_L2_UC_FIELDS
                0x0000000083fab3a8       0x30 board/Realtek/rtl9300/librtl9300.o
                0x0000000083fab3a8                RTL9300_L2_UC_FIELDS
 .data.RTL9300_L2_MC_FIELDS
                0x0000000083fab3d8       0x18 board/Realtek/rtl9300/librtl9300.o
                0x0000000083fab3d8                RTL9300_L2_MC_FIELDS
 .data.RTL9300_L2_CAM_UC_FIELDS
                0x0000000083fab3f0       0x30 board/Realtek/rtl9300/librtl9300.o
                0x0000000083fab3f0                RTL9300_L2_CAM_UC_FIELDS
 .data.RTL9300_L2_CAM_MC_FIELDS
                0x0000000083fab420       0x18 board/Realtek/rtl9300/librtl9300.o
                0x0000000083fab420                RTL9300_L2_CAM_MC_FIELDS
 .data.RTL9300_PORT_ISO_CTRL_FIELDS
                0x0000000083fab438        0x4 board/Realtek/rtl9300/librtl9300.o
                0x0000000083fab438                RTL9300_PORT_ISO_CTRL_FIELDS
 .data.RTL9300_MSTI_FIELDS
                0x0000000083fab43c       0x74 board/Realtek/rtl9300/librtl9300.o
                0x0000000083fab43c                RTL9300_MSTI_FIELDS
 .data.RTL9300_SRC_TRK_MAP_FIELDS
                0x0000000083fab4b0        0x8 board/Realtek/rtl9300/librtl9300.o
                0x0000000083fab4b0                RTL9300_SRC_TRK_MAP_FIELDS
 .data.RTL9300_LAG_FIELDS
                0x0000000083fab4b8       0x58 board/Realtek/rtl9300/librtl9300.o
                0x0000000083fab4b8                RTL9300_LAG_FIELDS
 .data.RTL9300_VLAN_MAC_BASED_FIELDS
                0x0000000083fab510       0x58 board/Realtek/rtl9300/librtl9300.o
                0x0000000083fab510                RTL9300_VLAN_MAC_BASED_FIELDS
 .data.RTL9300_VLAN_IP_BASED_FIELDS
                0x0000000083fab568       0x58 board/Realtek/rtl9300/librtl9300.o
                0x0000000083fab568                RTL9300_VLAN_IP_BASED_FIELDS
 .data.RTL9300_VLAN_IGR_CNVT_FIELDS
                0x0000000083fab5c0       0x8c board/Realtek/rtl9300/librtl9300.o
                0x0000000083fab5c0                RTL9300_VLAN_IGR_CNVT_FIELDS
 .data.RTL9300_VLAN_EGR_CNVT_FIELDS
                0x0000000083fab64c       0x8c board/Realtek/rtl9300/librtl9300.o
                0x0000000083fab64c                RTL9300_VLAN_EGR_CNVT_FIELDS
 .data.RTL9300_VLAN_FIELDS
                0x0000000083fab6d8       0x18 board/Realtek/rtl9300/librtl9300.o
                0x0000000083fab6d8                RTL9300_VLAN_FIELDS
 .data.RTL9300_UNTAG_FIELDS
                0x0000000083fab6f0        0x4 board/Realtek/rtl9300/librtl9300.o
                0x0000000083fab6f0                RTL9300_UNTAG_FIELDS
 .data.rtk_longan_table_list
                0x0000000083fab6f4      0x348 board/Realtek/rtl9300/librtl9300.o
                0x0000000083fab6f4                rtk_longan_table_list
 .data.sds_cfg_rtl9303_80G
                0x0000000083faba3c       0x60 board/Realtek/rtl9300/librtl9300.o
                0x0000000083faba3c                sds_cfg_rtl9303_80G
 .data.sds_cfg_rtl9303_80G_s9
                0x0000000083faba9c       0x1c board/Realtek/rtl9300/librtl9300.o
                0x0000000083faba9c                sds_cfg_rtl9303_80G_s9
 .data.sds_cfg_rtl9303_80G_s8
                0x0000000083fabab8       0x1c board/Realtek/rtl9300/librtl9300.o
                0x0000000083fabab8                sds_cfg_rtl9303_80G_s8
 .data.sds_cfg_rtl9303_80G_s7
                0x0000000083fabad4       0x1c board/Realtek/rtl9300/librtl9300.o
                0x0000000083fabad4                sds_cfg_rtl9303_80G_s7
 .data.sds_cfg_rtl9303_80G_s6
                0x0000000083fabaf0       0x1c board/Realtek/rtl9300/librtl9300.o
                0x0000000083fabaf0                sds_cfg_rtl9303_80G_s6
 .data.sds_cfg_rtl9303_80G_s5
                0x0000000083fabb0c       0x1c board/Realtek/rtl9300/librtl9300.o
                0x0000000083fabb0c                sds_cfg_rtl9303_80G_s5
 .data.sds_cfg_rtl9303_80G_s4
                0x0000000083fabb28       0x1c board/Realtek/rtl9300/librtl9300.o
                0x0000000083fabb28                sds_cfg_rtl9303_80G_s4
 .data.sds_cfg_rtl9303_80G_s3
                0x0000000083fabb44       0x1c board/Realtek/rtl9300/librtl9300.o
                0x0000000083fabb44                sds_cfg_rtl9303_80G_s3
 .data.sds_cfg_rtl9303_80G_s2
                0x0000000083fabb60       0x1c board/Realtek/rtl9300/librtl9300.o
                0x0000000083fabb60                sds_cfg_rtl9303_80G_s2
 .data.sds_cfg_rtl9301_24G_cascade_master
                0x0000000083fabb7c       0x60 board/Realtek/rtl9300/librtl9300.o
                0x0000000083fabb7c                sds_cfg_rtl9301_24G_cascade_master
 .data.sds_cfg_rtl9301_24G_cascade_master_s9
                0x0000000083fabbdc       0x1c board/Realtek/rtl9300/librtl9300.o
                0x0000000083fabbdc                sds_cfg_rtl9301_24G_cascade_master_s9
 .data.sds_cfg_rtl9301_24G_cascade_master_s8
                0x0000000083fabbf8       0x1c board/Realtek/rtl9300/librtl9300.o
                0x0000000083fabbf8                sds_cfg_rtl9301_24G_cascade_master_s8
 .data.sds_cfg_rtl9301_24G
                0x0000000083fabc14       0x60 board/Realtek/rtl9300/librtl9300.o
                0x0000000083fabc14                sds_cfg_rtl9301_24G
 .data.sds_cfg_rtl9301_24G_s9
                0x0000000083fabc74       0x1c board/Realtek/rtl9300/librtl9300.o
                0x0000000083fabc74                sds_cfg_rtl9301_24G_s9
 .data.sds_cfg_rtl9301_24G_s8
                0x0000000083fabc90       0x1c board/Realtek/rtl9300/librtl9300.o
                0x0000000083fabc90                sds_cfg_rtl9301_24G_s8
 .data.sds_cfg_rtl9301_24G_s6
                0x0000000083fabcac       0x1c board/Realtek/rtl9300/librtl9300.o
                0x0000000083fabcac                sds_cfg_rtl9301_24G_s6
 .data.sds_cfg_rtl9301_24G_s4
                0x0000000083fabcc8       0x1c board/Realtek/rtl9300/librtl9300.o
                0x0000000083fabcc8                sds_cfg_rtl9301_24G_s4
 .data.rtl9303_80G_dac_txParam_s9
                0x0000000083fabce4       0x2c board/Realtek/rtl9300/librtl9300.o
                0x0000000083fabce4                rtl9303_80G_dac_txParam_s9
 .data.rtl9303_80G_dac_txParam_s8
                0x0000000083fabd10       0x2c board/Realtek/rtl9300/librtl9300.o
                0x0000000083fabd10                rtl9303_80G_dac_txParam_s8
 .data.rtl9303_80G_dac_txParam_s7
                0x0000000083fabd3c       0x2c board/Realtek/rtl9300/librtl9300.o
                0x0000000083fabd3c                rtl9303_80G_dac_txParam_s7
 .data.rtl9303_80G_dac_txParam_s6
                0x0000000083fabd68       0x2c board/Realtek/rtl9300/librtl9300.o
                0x0000000083fabd68                rtl9303_80G_dac_txParam_s6
 .data.rtl9303_80G_dac_txParam_s5
                0x0000000083fabd94       0x2c board/Realtek/rtl9300/librtl9300.o
                0x0000000083fabd94                rtl9303_80G_dac_txParam_s5
 .data.rtl9303_80G_dac_txParam_s4
                0x0000000083fabdc0       0x2c board/Realtek/rtl9300/librtl9300.o
                0x0000000083fabdc0                rtl9303_80G_dac_txParam_s4
 .data.rtl9303_80G_dac_txParam_s3
                0x0000000083fabdec       0x2c board/Realtek/rtl9300/librtl9300.o
                0x0000000083fabdec                rtl9303_80G_dac_txParam_s3
 .data.rtl9303_80G_dac_txParam_s2
                0x0000000083fabe18       0x2c board/Realtek/rtl9300/librtl9300.o
                0x0000000083fabe18                rtl9303_80G_dac_txParam_s2
 .data.rtl9303_80G_txParam_s9
                0x0000000083fabe44       0x2c board/Realtek/rtl9300/librtl9300.o
                0x0000000083fabe44                rtl9303_80G_txParam_s9
 .data.rtl9303_80G_txParam_s8
                0x0000000083fabe70       0x2c board/Realtek/rtl9300/librtl9300.o
                0x0000000083fabe70                rtl9303_80G_txParam_s8
 .data.rtl9303_80G_txParam_s7
                0x0000000083fabe9c       0x2c board/Realtek/rtl9300/librtl9300.o
                0x0000000083fabe9c                rtl9303_80G_txParam_s7
 .data.rtl9303_80G_txParam_s6
                0x0000000083fabec8       0x2c board/Realtek/rtl9300/librtl9300.o
                0x0000000083fabec8                rtl9303_80G_txParam_s6
 .data.rtl9303_80G_txParam_s5
                0x0000000083fabef4       0x2c board/Realtek/rtl9300/librtl9300.o
                0x0000000083fabef4                rtl9303_80G_txParam_s5
 .data.rtl9303_80G_txParam_s4
                0x0000000083fabf20       0x2c board/Realtek/rtl9300/librtl9300.o
                0x0000000083fabf20                rtl9303_80G_txParam_s4
 .data.rtl9303_80G_txParam_s3
                0x0000000083fabf4c       0x2c board/Realtek/rtl9300/librtl9300.o
                0x0000000083fabf4c                rtl9303_80G_txParam_s3
 .data.rtl9303_80G_txParam_s2
                0x0000000083fabf78       0x2c board/Realtek/rtl9300/librtl9300.o
                0x0000000083fabf78                rtl9303_80G_txParam_s2
 .data.rtl9301_24G_dac_cascade_master_txParam_s9
                0x0000000083fabfa4       0x2c board/Realtek/rtl9300/librtl9300.o
                0x0000000083fabfa4                rtl9301_24G_dac_cascade_master_txParam_s9
 .data.rtl9301_24G_dac_cascade_master_txParam_s8
                0x0000000083fabfd0       0x2c board/Realtek/rtl9300/librtl9300.o
                0x0000000083fabfd0                rtl9301_24G_dac_cascade_master_txParam_s8
 .data.rtl9301_24G_cascade_master_txParam_s9
                0x0000000083fabffc       0x2c board/Realtek/rtl9300/librtl9300.o
                0x0000000083fabffc                rtl9301_24G_cascade_master_txParam_s9
 .data.rtl9301_24G_cascade_master_txParam_s8
                0x0000000083fac028       0x2c board/Realtek/rtl9300/librtl9300.o
                0x0000000083fac028                rtl9301_24G_cascade_master_txParam_s8
 .data.rtl9301_24G_dac_txParam_s9
                0x0000000083fac054       0x2c board/Realtek/rtl9300/librtl9300.o
                0x0000000083fac054                rtl9301_24G_dac_txParam_s9
 .data.rtl9301_24G_dac_txParam_s8
                0x0000000083fac080       0x2c board/Realtek/rtl9300/librtl9300.o
                0x0000000083fac080                rtl9301_24G_dac_txParam_s8
 .data.rtl9301_24G_dac_txParam_s6
                0x0000000083fac0ac       0x2c board/Realtek/rtl9300/librtl9300.o
                0x0000000083fac0ac                rtl9301_24G_dac_txParam_s6
 .data.rtl9301_24G_dac_txParam_s4
                0x0000000083fac0d8       0x2c board/Realtek/rtl9300/librtl9300.o
                0x0000000083fac0d8                rtl9301_24G_dac_txParam_s4
 .data.rtl9301_24G_txParam_s9
                0x0000000083fac104       0x2c board/Realtek/rtl9300/librtl9300.o
                0x0000000083fac104                rtl9301_24G_txParam_s9
 .data.rtl9301_24G_txParam_s8
                0x0000000083fac130       0x2c board/Realtek/rtl9300/librtl9300.o
                0x0000000083fac130                rtl9301_24G_txParam_s8
 .data.rtl9301_24G_txParam_s6
                0x0000000083fac15c       0x2c board/Realtek/rtl9300/librtl9300.o
                0x0000000083fac15c                rtl9301_24G_txParam_s6
 .data.rtl9301_24G_txParam_s4
                0x0000000083fac188       0x2c board/Realtek/rtl9300/librtl9300.o
                0x0000000083fac188                rtl9301_24G_txParam_s4
 .data.rtl9300_rxCaliConf_phy_myParam
                0x0000000083fac1b4        0xc board/Realtek/rtl9300/librtl9300.o
                0x0000000083fac1b4                rtl9300_rxCaliConf_phy_myParam
 .data.rtl9300_rxCaliConf_serdes_myParam
                0x0000000083fac1c0        0xc board/Realtek/rtl9300/librtl9300.o
                0x0000000083fac1c0                rtl9300_rxCaliConf_serdes_myParam
 .data.regCpuQInfo
                0x0000000083fac1cc       0x30 board/Realtek/rtl9300/librtl9300.o
 .data.regQueueInfo
                0x0000000083fac1fc      0x1dc board/Realtek/rtl9300/librtl9300.o
 .data.regPortInfo
                0x0000000083fac3d8      0x508 board/Realtek/rtl9300/librtl9300.o
 .data.flowctrlGlobCfg
                0x0000000083fac8e0      0x258 board/Realtek/rtl9300/librtl9300.o
 .data.fcPerPortCfg
                0x0000000083facb38       0x18 board/Realtek/rtl9300/librtl9300.o
 .data.sds_usxgmii_cfg_rtk_default
                0x0000000083facb50       0x20 board/Realtek/rtl9300/librtl9300.o
 .data.sds_usxgmii_cfg_rtl8224qf
                0x0000000083facb70       0x20 board/Realtek/rtl9300/librtl9300.o
 .data.sds_usxgmii_cfg_rtl8224
                0x0000000083facb90       0x20 board/Realtek/rtl9300/librtl9300.o
 .data.sds_sub_mode_sel
                0x0000000083facbb0       0x60 board/Realtek/rtl9300/librtl9300.o
                0x0000000083facbb0                sds_sub_mode_sel
 .data.sds_mode_sel
                0x0000000083facc10       0x60 board/Realtek/rtl9300/librtl9300.o
                0x0000000083facc10                sds_mode_sel
 .data.serdes_patch_list_a
                0x0000000083facc70       0x18 board/Realtek/rtl9300/librtl9300.o
                0x0000000083facc70                serdes_patch_list_a
 .data.serdes_patch_list_dT
                0x0000000083facc88       0x18 board/Realtek/rtl9300/librtl9300.o
                0x0000000083facc88                serdes_patch_list_dT
 .data.serdes_patch_List_10g_even_a
                0x0000000083facca0      0x154 board/Realtek/rtl9300/librtl9300.o
                0x0000000083facca0                serdes_patch_List_10g_even_a
 .data.serdes_patch_List_10g_odd_a
                0x0000000083facdf4      0x154 board/Realtek/rtl9300/librtl9300.o
                0x0000000083facdf4                serdes_patch_List_10g_odd_a
 .data.serdes_patch_List_5g_a
                0x0000000083facf48       0x28 board/Realtek/rtl9300/librtl9300.o
                0x0000000083facf48                serdes_patch_List_5g_a
 .data.serdes_patch_List_10g_even_dT
                0x0000000083facf70       0xdc board/Realtek/rtl9300/librtl9300.o
                0x0000000083facf70                serdes_patch_List_10g_even_dT
 .data.serdes_patch_List_10g_odd_dT
                0x0000000083fad04c       0xdc board/Realtek/rtl9300/librtl9300.o
                0x0000000083fad04c                serdes_patch_List_10g_odd_dT
 .data.serdes_patch_List_5g_dT
                0x0000000083fad128       0x28 board/Realtek/rtl9300/librtl9300.o
                0x0000000083fad128                serdes_patch_List_5g_dT
 .data.serdes_patch_List_cT
                0x0000000083fad150       0x78 board/Realtek/rtl9300/librtl9300.o
                0x0000000083fad150                serdes_patch_List_cT
 .data.serdes_patch_List_bT
                0x0000000083fad1c8       0x64 board/Realtek/rtl9300/librtl9300.o
                0x0000000083fad1c8                serdes_patch_List_bT
 .data.rtl9300_a_sds_off_lane1
                0x0000000083fad22c       0x18 board/Realtek/rtl9300/librtl9300.o
                0x0000000083fad22c                rtl9300_a_sds_off_lane1
 .data.rtl9300_a_sds_off_lane0
                0x0000000083fad244       0x54 board/Realtek/rtl9300/librtl9300.o
                0x0000000083fad244                rtl9300_a_sds_off_lane0
 .data.rtl9300_a_sds_usxgmii_qx_lane1
                0x0000000083fad298      0x120 board/Realtek/rtl9300/librtl9300.o
                0x0000000083fad298                rtl9300_a_sds_usxgmii_qx_lane1
 .data.rtl9300_a_sds_usxgmii_qx_lane0
                0x0000000083fad3b8      0x144 board/Realtek/rtl9300/librtl9300.o
                0x0000000083fad3b8                rtl9300_a_sds_usxgmii_qx_lane0
 .data.rtl9300_a_sds_usxgmii_sx_lane1
                0x0000000083fad4fc      0x120 board/Realtek/rtl9300/librtl9300.o
                0x0000000083fad4fc                rtl9300_a_sds_usxgmii_sx_lane1
 .data.rtl9300_a_sds_usxgmii_sx_lane0
                0x0000000083fad61c      0x144 board/Realtek/rtl9300/librtl9300.o
                0x0000000083fad61c                rtl9300_a_sds_usxgmii_sx_lane0
 .data.rtl9300_a_sds_rxaui_lane1
                0x0000000083fad760       0xf0 board/Realtek/rtl9300/librtl9300.o
                0x0000000083fad760                rtl9300_a_sds_rxaui_lane1
 .data.rtl9300_a_sds_rxaui_lane0
                0x0000000083fad850      0x110 board/Realtek/rtl9300/librtl9300.o
                0x0000000083fad850                rtl9300_a_sds_rxaui_lane0
 .data.rtl9300_a_sds_10gr_lane1
                0x0000000083fad960      0x27c board/Realtek/rtl9300/librtl9300.o
                0x0000000083fad960                rtl9300_a_sds_10gr_lane1
 .data.rtl9300_a_sds_10gr_lane0
                0x0000000083fadbdc      0x2d0 board/Realtek/rtl9300/librtl9300.o
                0x0000000083fadbdc                rtl9300_a_sds_10gr_lane0
 .data.rtl9300_a_sds_10gr_lane1_95r
                0x0000000083fadeac      0x27c board/Realtek/rtl9300/librtl9300.o
                0x0000000083fadeac                rtl9300_a_sds_10gr_lane1_95r
 .data.rtl9300_a_sds_10gr_lane0_95r
                0x0000000083fae128      0x2d0 board/Realtek/rtl9300/librtl9300.o
                0x0000000083fae128                rtl9300_a_sds_10gr_lane0_95r
 .data.rtl9300_a_sds_xsgmii_lane1_18e
                0x0000000083fae3f8       0xf8 board/Realtek/rtl9300/librtl9300.o
                0x0000000083fae3f8                rtl9300_a_sds_xsgmii_lane1_18e
 .data.rtl9300_a_sds_xsgmii_lane1_18d
                0x0000000083fae4f0       0xf8 board/Realtek/rtl9300/librtl9300.o
                0x0000000083fae4f0                rtl9300_a_sds_xsgmii_lane1_18d
 .data.rtl9300_a_sds_xsgmii_lane1
                0x0000000083fae5e8       0xf8 board/Realtek/rtl9300/librtl9300.o
                0x0000000083fae5e8                rtl9300_a_sds_xsgmii_lane1
 .data.rtl9300_a_sds_xsgmii_lane0_18e
                0x0000000083fae6e0      0x114 board/Realtek/rtl9300/librtl9300.o
                0x0000000083fae6e0                rtl9300_a_sds_xsgmii_lane0_18e
 .data.rtl9300_a_sds_xsgmii_lane0_18d
                0x0000000083fae7f4      0x114 board/Realtek/rtl9300/librtl9300.o
                0x0000000083fae7f4                rtl9300_a_sds_xsgmii_lane0_18d
 .data.rtl9300_a_sds_xsgmii_lane0
                0x0000000083fae908      0x114 board/Realtek/rtl9300/librtl9300.o
                0x0000000083fae908                rtl9300_a_sds_xsgmii_lane0
 .data.rtl9300_a_sds_10g_rxaui_lite_lane1
                0x0000000083faea1c       0xf0 board/Realtek/rtl9300/librtl9300.o
                0x0000000083faea1c                rtl9300_a_sds_10g_rxaui_lite_lane1
 .data.rtl9300_a_sds_10g_rxaui_lite_lane0
                0x0000000083faeb0c      0x110 board/Realtek/rtl9300/librtl9300.o
                0x0000000083faeb0c                rtl9300_a_sds_10g_rxaui_lite_lane0
 .data.rtl9300_a_sds_10g_rsgmii_lane1
                0x0000000083faec1c       0xf8 board/Realtek/rtl9300/librtl9300.o
                0x0000000083faec1c                rtl9300_a_sds_10g_rsgmii_lane1
 .data.rtl9300_a_sds_10g_rsgmii_lane0
                0x0000000083faed14      0x114 board/Realtek/rtl9300/librtl9300.o
                0x0000000083faed14                rtl9300_a_sds_10g_rsgmii_lane0
 .data.rtl9300_a_sds_10g_2500Bx_lane1
                0x0000000083faee28      0x180 board/Realtek/rtl9300/librtl9300.o
                0x0000000083faee28                rtl9300_a_sds_10g_2500Bx_lane1
 .data.rtl9300_a_sds_10g_2500Bx_lane0
                0x0000000083faefa8      0x1b0 board/Realtek/rtl9300/librtl9300.o
                0x0000000083faefa8                rtl9300_a_sds_10g_2500Bx_lane0
 .data.rtl9300_a_sds_10g_hisgmii_lane1
                0x0000000083faf158      0x180 board/Realtek/rtl9300/librtl9300.o
                0x0000000083faf158                rtl9300_a_sds_10g_hisgmii_lane1
 .data.rtl9300_a_sds_10g_hisgmii_lane0
                0x0000000083faf2d8      0x1b0 board/Realtek/rtl9300/librtl9300.o
                0x0000000083faf2d8                rtl9300_a_sds_10g_hisgmii_lane0
 .data.rtl9300_a_sds_10g_1000Bx_lane1
                0x0000000083faf488       0xec board/Realtek/rtl9300/librtl9300.o
                0x0000000083faf488                rtl9300_a_sds_10g_1000Bx_lane1
 .data.rtl9300_a_sds_10g_1000Bx_lane0
                0x0000000083faf574      0x11c board/Realtek/rtl9300/librtl9300.o
                0x0000000083faf574                rtl9300_a_sds_10g_1000Bx_lane0
 .data.rtl9300_a_sds_10g_sgmii_lane1
                0x0000000083faf690       0xec board/Realtek/rtl9300/librtl9300.o
                0x0000000083faf690                rtl9300_a_sds_10g_sgmii_lane1
 .data.rtl9300_a_sds_10g_sgmii_lane0
                0x0000000083faf77c      0x11c board/Realtek/rtl9300/librtl9300.o
                0x0000000083faf77c                rtl9300_a_sds_10g_sgmii_lane0
 .data.rtl9300_a_sds_10g_qsgmii_lane1
                0x0000000083faf898       0xf8 board/Realtek/rtl9300/librtl9300.o
                0x0000000083faf898                rtl9300_a_sds_10g_qsgmii_lane1
 .data.rtl9300_a_sds_10g_qsgmii_lane0
                0x0000000083faf990      0x114 board/Realtek/rtl9300/librtl9300.o
                0x0000000083faf990                rtl9300_a_sds_10g_qsgmii_lane0
 .data.rtl9300_a_sds_5g_qsgmii_8218b
                0x0000000083fafaa4       0x20 board/Realtek/rtl9300/librtl9300.o
                0x0000000083fafaa4                rtl9300_a_sds_5g_qsgmii_8218b
 .data.rtl9300_a_sds_5g_qsgmii
                0x0000000083fafac4       0x2c board/Realtek/rtl9300/librtl9300.o
                0x0000000083fafac4                rtl9300_a_sds_5g_qsgmii
 .data.rtl9300_dT_sds_usxgmii_qx
                0x0000000083fafaf0       0xd4 board/Realtek/rtl9300/librtl9300.o
                0x0000000083fafaf0                rtl9300_dT_sds_usxgmii_qx
 .data.rtl9300_dT_sds_usxgmii_sx
                0x0000000083fafbc4       0xd4 board/Realtek/rtl9300/librtl9300.o
                0x0000000083fafbc4                rtl9300_dT_sds_usxgmii_sx
 .data.rtl9300_dT_sds_rxaui_lane1
                0x0000000083fafc98       0xf0 board/Realtek/rtl9300/librtl9300.o
                0x0000000083fafc98                rtl9300_dT_sds_rxaui_lane1
 .data.rtl9300_dT_sds_rxaui_lane0
                0x0000000083fafd88       0xe0 board/Realtek/rtl9300/librtl9300.o
                0x0000000083fafd88                rtl9300_dT_sds_rxaui_lane0
 .data.rtl9300_dT_sds_10gr_lane1
                0x0000000083fafe68      0x1a4 board/Realtek/rtl9300/librtl9300.o
                0x0000000083fafe68                rtl9300_dT_sds_10gr_lane1
 .data.rtl9300_dT_sds_10gr_lane0
                0x0000000083fb000c      0x180 board/Realtek/rtl9300/librtl9300.o
                0x0000000083fb000c                rtl9300_dT_sds_10gr_lane0
 .data.rtl9300_dT_sds_xsgmii
                0x0000000083fb018c       0xc8 board/Realtek/rtl9300/librtl9300.o
                0x0000000083fb018c                rtl9300_dT_sds_xsgmii
 .data.rtl9300_dT_sds_10g_rxaui_lite_lane1
                0x0000000083fb0254       0xec board/Realtek/rtl9300/librtl9300.o
                0x0000000083fb0254                rtl9300_dT_sds_10g_rxaui_lite_lane1
 .data.rtl9300_dT_sds_10g_rxaui_lite_lane0
                0x0000000083fb0340       0xcc board/Realtek/rtl9300/librtl9300.o
                0x0000000083fb0340                rtl9300_dT_sds_10g_rxaui_lite_lane0
 .data.rtl9300_dT_sds_10g_rsgmii_lane1
                0x0000000083fb040c       0xec board/Realtek/rtl9300/librtl9300.o
                0x0000000083fb040c                rtl9300_dT_sds_10g_rsgmii_lane1
 .data.rtl9300_dT_sds_10g_rsgmii_lane0
                0x0000000083fb04f8       0xc8 board/Realtek/rtl9300/librtl9300.o
                0x0000000083fb04f8                rtl9300_dT_sds_10g_rsgmii_lane0
 .data.rtl9300_dT_sds_10g_2500Bx_lane1
                0x0000000083fb05c0       0xec board/Realtek/rtl9300/librtl9300.o
                0x0000000083fb05c0                rtl9300_dT_sds_10g_2500Bx_lane1
 .data.rtl9300_dT_sds_10g_2500Bx_lane0
                0x0000000083fb06ac       0xcc board/Realtek/rtl9300/librtl9300.o
                0x0000000083fb06ac                rtl9300_dT_sds_10g_2500Bx_lane0
 .data.rtl9300_dT_sds_10g_1000Bx_lane1
                0x0000000083fb0778       0xe0 board/Realtek/rtl9300/librtl9300.o
                0x0000000083fb0778                rtl9300_dT_sds_10g_1000Bx_lane1
 .data.rtl9300_dT_sds_10g_1000Bx_lane0
                0x0000000083fb0858       0xbc board/Realtek/rtl9300/librtl9300.o
                0x0000000083fb0858                rtl9300_dT_sds_10g_1000Bx_lane0
 .data.rtl9300_dT_sds_10g_qsgmii_lane1
                0x0000000083fb0914       0xe0 board/Realtek/rtl9300/librtl9300.o
                0x0000000083fb0914                rtl9300_dT_sds_10g_qsgmii_lane1
 .data.rtl9300_dT_sds_10g_qsgmii_lane0
                0x0000000083fb09f4       0xbc board/Realtek/rtl9300/librtl9300.o
                0x0000000083fb09f4                rtl9300_dT_sds_10g_qsgmii_lane0
 .data.rtl9300_dT_sds_5g_qsgmii_8218b
                0x0000000083fb0ab0       0x20 board/Realtek/rtl9300/librtl9300.o
                0x0000000083fb0ab0                rtl9300_dT_sds_5g_qsgmii_8218b
 .data.rtl9300_dT_sds_5g_qsgmii
                0x0000000083fb0ad0       0x24 board/Realtek/rtl9300/librtl9300.o
                0x0000000083fb0ad0                rtl9300_dT_sds_5g_qsgmii
 .data.rtl9300_cT_sds_rxaui_lane1
                0x0000000083fb0af4       0xcc board/Realtek/rtl9300/librtl9300.o
                0x0000000083fb0af4                rtl9300_cT_sds_rxaui_lane1
 .data.rtl9300_cT_sds_rxaui_lane0
                0x0000000083fb0bc0       0xc8 board/Realtek/rtl9300/librtl9300.o
                0x0000000083fb0bc0                rtl9300_cT_sds_rxaui_lane0
 .data.rtl9300_cT_sds_qsgmii_8218b
                0x0000000083fb0c88       0x20 board/Realtek/rtl9300/librtl9300.o
                0x0000000083fb0c88                rtl9300_cT_sds_qsgmii_8218b
 .data.rtl9300_cT_sds_qsgmii
                0x0000000083fb0ca8       0x24 board/Realtek/rtl9300/librtl9300.o
                0x0000000083fb0ca8                rtl9300_cT_sds_qsgmii
 .data.rtl9300_cT_sds_10gr_1000Bx
                0x0000000083fb0ccc      0x12c board/Realtek/rtl9300/librtl9300.o
                0x0000000083fb0ccc                rtl9300_cT_sds_10gr_1000Bx
 .data.rtl9300_cT_sds_xsgmii
                0x0000000083fb0df8       0xa8 board/Realtek/rtl9300/librtl9300.o
                0x0000000083fb0df8                rtl9300_cT_sds_xsgmii
 .data.rtl9300_bT_sds_rxaui_lane1
                0x0000000083fb0ea0       0xa8 board/Realtek/rtl9300/librtl9300.o
                0x0000000083fb0ea0                rtl9300_bT_sds_rxaui_lane1
 .data.rtl9300_bT_sds_rxaui_lane0
                0x0000000083fb0f48       0xa4 board/Realtek/rtl9300/librtl9300.o
                0x0000000083fb0f48                rtl9300_bT_sds_rxaui_lane0
 .data.rtl9300_bT_sds_qsgmii
                0x0000000083fb0fec       0x20 board/Realtek/rtl9300/librtl9300.o
                0x0000000083fb0fec                rtl9300_bT_sds_qsgmii
 .data.rtl9300_bT_sds_10gr_1000Bx
                0x0000000083fb100c      0x128 board/Realtek/rtl9300/librtl9300.o
                0x0000000083fb100c                rtl9300_bT_sds_10gr_1000Bx
 .data.rtl9300_bT_sds_xsgmii
                0x0000000083fb1134       0x9c board/Realtek/rtl9300/librtl9300.o
                0x0000000083fb1134                rtl9300_bT_sds_xsgmii
                0x0000000083fb11d0                . = ALIGN (0x4)
 *(EXCLUDE_FILE(arch/otto40/cpu/mips34kc/libmips34kc.o) .sdata*)
                0x0000000083fb11d0                . = ALIGN (0x4)
 *(EXCLUDE_FILE(arch/otto40/cpu/mips34kc/libmips34kc.o) .rodata*)
 .rodata.str1.4
                0x0000000083fb11d0      0x590 arch/otto40/lib/libotto40.o
                                        0x594 (size before relaxing)
 .rodata.CSWTCH.1
                0x0000000083fb1760       0x70 arch/otto40/lib/libotto40.o
 .rodata        0x0000000083fb17d0       0x40 common/libcommon.o
 .rodata.str1.4
                0x0000000083fb1810     0x31be common/libcommon.o
                                       0x33ec (size before relaxing)
 *fill*         0x0000000083fb49ce        0x2 
 .rodata.boot_os
                0x0000000083fb49d0       0x4c common/libcommon.o
 .rodata.__func__.3495
                0x0000000083fb4a1c       0x10 common/libcommon.o
 .rodata.__func__.3529
                0x0000000083fb4a2c       0x10 common/libcommon.o
 .rodata.version_string
                0x0000000083fb4a3c       0x38 common/libcommon.o
                0x0000000083fb4a3c                version_string
 .rodata.CSWTCH.19
                0x0000000083fb4a74       0x18 common/libcommon.o
 .rodata.__func__.3080
                0x0000000083fb4a8c        0xc common/libcommon.o
 .rodata.__func__.3073
                0x0000000083fb4a98       0x14 common/libcommon.o
 .rodata.__func__.3066
                0x0000000083fb4aac       0x10 common/libcommon.o
 .rodata.default_environment2
                0x0000000083fb4abc       0x18 common/libcommon.o
                0x0000000083fb4abc                default_environment2
 .rodata.default_environment
                0x0000000083fb4ad4      0x220 common/libcommon.o
                0x0000000083fb4ad4                default_environment
 .rodata.__func__.3157
                0x0000000083fb4cf4        0xc common/libcommon.o
 .rodata.__func__.3144
                0x0000000083fb4d00        0x8 common/libcommon.o
 .rodata.uimage_type
                0x0000000083fb4d08       0xc0 common/libcommon.o
 .rodata.uimage_os
                0x0000000083fb4dc8       0x54 common/libcommon.o
 .rodata.uimage_arch
                0x0000000083fb4e1c       0xf0 common/libcommon.o
 .rodata.readline_into_buffer
                0x0000000083fb4f0c       0x20 common/libcommon.o
 .rodata.tab_seq
                0x0000000083fb4f2c        0xc common/libcommon.o
 .rodata.erase_seq
                0x0000000083fb4f38        0x4 common/libcommon.o
 .rodata.srec_decode
                0x0000000083fb4f3c       0x28 common/libcommon.o
 .rodata.CSWTCH.32
                0x0000000083fb4f64       0x20 common/libcommon.o
 .rodata.crc16_tab
                0x0000000083fb4f84      0x200 lib/libgeneric.o
 .rodata.crc_table
                0x0000000083fb5184      0x400 lib/libgeneric.o
 .rodata.str1.4
                0x0000000083fb5584      0x16a lib/libgeneric.o
                                        0x178 (size before relaxing)
 *fill*         0x0000000083fb56ee        0x2 
 .rodata.names.3132
                0x0000000083fb56f0        0x8 lib/libgeneric.o
 .rodata._ctype
                0x0000000083fb56f8      0x100 lib/libgeneric.o
                0x0000000083fb56f8                _ctype
 .rodata.digits.3014
                0x0000000083fb57f8       0x10 lib/libgeneric.o
 .rodata.hex_asc
                0x0000000083fb5808       0x14 lib/libgeneric.o
                0x0000000083fb5808                hex_asc
 .rodata.kLiteralNextStates
                0x0000000083fb581c       0x18 lib/lzma/liblzma.o
 .rodata.str1.4
                0x0000000083fb5834      0x23d lib/zlib/libz.o
                                        0x244 (size before relaxing)
 *fill*         0x0000000083fb5a71        0x3 
 .rodata.inflate
                0x0000000083fb5a74       0x74 lib/zlib/libz.o
 .rodata.order.3348
                0x0000000083fb5ae8       0x28 lib/zlib/libz.o
 .rodata.dext.3255
                0x0000000083fb5b10       0x40 lib/zlib/libz.o
 .rodata.dbase.3254
                0x0000000083fb5b50       0x40 lib/zlib/libz.o
 .rodata.lext.3253
                0x0000000083fb5b90       0x40 lib/zlib/libz.o
 .rodata.lbase.3252
                0x0000000083fb5bd0       0x40 lib/zlib/libz.o
 .rodata.distfix
                0x0000000083fb5c10       0x80 lib/zlib/libz.o
 .rodata.lenfix
                0x0000000083fb5c90      0x800 lib/zlib/libz.o
 .rodata        0x0000000083fb6490       0x20 net/libnet.o
 .rodata.str1.4
                0x0000000083fb64b0      0x644 net/libnet.o
                                        0x6c4 (size before relaxing)
 .rodata.NetLoop
                0x0000000083fb6af4       0x34 net/libnet.o
 .rodata.TftpSend
                0x0000000083fb6b28       0x1c net/libnet.o
 *fill*         0x0000000083fb6b44        0xc 
 .rodata        0x0000000083fb6b50      0x4a0 board/Realtek/rtl9300/librtl9300.o
 .rodata.str1.4
                0x0000000083fb6ff0     0x6cc0 board/Realtek/rtl9300/librtl9300.o
                                       0x74f8 (size before relaxing)
 .rodata.sdk_get_paritition_info
                0x0000000083fbdcb0       0x24 board/Realtek/rtl9300/librtl9300.o
 .rodata.partitions
                0x0000000083fbdcd4       0x80 board/Realtek/rtl9300/librtl9300.o
                0x0000000083fbdcd4                partitions
 .rodata.sds_reg_mmdAddr_offset
                0x0000000083fbdd54       0x24 board/Realtek/rtl9300/librtl9300.o
 .rodata.sds_reg_page_offset
                0x0000000083fbdd78       0x48 board/Realtek/rtl9300/librtl9300.o
 .rodata._dal_phy_debug_batch_entry_print
                0x0000000083fbddc0       0x2c board/Realtek/rtl9300/librtl9300.o
 .rodata._dal_phy_debug_batch_run_op
                0x0000000083fbddec       0x20 board/Realtek/rtl9300/librtl9300.o
 .rodata.dal_phy_debug_batch_op_set
                0x0000000083fbde0c       0x34 board/Realtek/rtl9300/librtl9300.o
 .rodata.__FUNCTION__.25401
                0x0000000083fbde40       0x20 board/Realtek/rtl9300/librtl9300.o
 .rodata.__FUNCTION__.25388
                0x0000000083fbde60       0x18 board/Realtek/rtl9300/librtl9300.o
 .rodata.__FUNCTION__.25373
                0x0000000083fbde78       0x1c board/Realtek/rtl9300/librtl9300.o
 .rodata.__FUNCTION__.25358
                0x0000000083fbde94       0x20 board/Realtek/rtl9300/librtl9300.o
 .rodata.__FUNCTION__.25345
                0x0000000083fbdeb4       0x20 board/Realtek/rtl9300/librtl9300.o
 .rodata.__FUNCTION__.25328
                0x0000000083fbded4       0x1c board/Realtek/rtl9300/librtl9300.o
 .rodata.__FUNCTION__.25311
                0x0000000083fbdef0       0x20 board/Realtek/rtl9300/librtl9300.o
 .rodata.__FUNCTION__.25281
                0x0000000083fbdf10       0x18 board/Realtek/rtl9300/librtl9300.o
 .rodata.__FUNCTION__.25274
                0x0000000083fbdf28       0x20 board/Realtek/rtl9300/librtl9300.o
 .rodata.__FUNCTION__.25266
                0x0000000083fbdf48       0x20 board/Realtek/rtl9300/librtl9300.o
 .rodata.__FUNCTION__.25252
                0x0000000083fbdf68       0x1c board/Realtek/rtl9300/librtl9300.o
 .rodata.phy_common_speedDuplexStatusResReg_get
                0x0000000083fbdf84       0x1c board/Realtek/rtl9300/librtl9300.o
 .rodata.phy_common_c45_speed_set
                0x0000000083fbdfa0       0x20 board/Realtek/rtl9300/librtl9300.o
 .rodata.phy_common_c45_speedDuplexStatusResReg_get
                0x0000000083fbdfc0       0x28 board/Realtek/rtl9300/librtl9300.o
 .rodata.phy_8224_macIntfSerdesMode_get
                0x0000000083fbdfe8       0x6c board/Realtek/rtl9300/librtl9300.o
 .rodata.phy_8224_intrEnable_set
                0x0000000083fbe054       0x28 board/Realtek/rtl9300/librtl9300.o
 .rodata.phy_8224_intrEnable_get
                0x0000000083fbe07c       0x28 board/Realtek/rtl9300/librtl9300.o
 .rodata.phy_8224_intrStatus_get
                0x0000000083fbe0a4       0x18 board/Realtek/rtl9300/librtl9300.o
 .rodata._phy_8224_led_config_blink_rate_set
                0x0000000083fbe0bc       0x18 board/Realtek/rtl9300/librtl9300.o
 .rodata._phy_8224_led_config_blink_rate_get
                0x0000000083fbe0d4       0x18 board/Realtek/rtl9300/librtl9300.o
 .rodata.__FUNCTION__.8431
                0x0000000083fbe0ec       0x20 board/Realtek/rtl9300/librtl9300.o
 .rodata.phy_8295_8214_fiberTxDis_set
                0x0000000083fbe10c       0x1c board/Realtek/rtl9300/librtl9300.o
 .rodata.phy_8295_8214_fiberTxDisPin_set
                0x0000000083fbe128       0x1c board/Realtek/rtl9300/librtl9300.o
 .rodata._phy_8295_serdesModeRegOffsetMask_get
                0x0000000083fbe144       0x20 board/Realtek/rtl9300/librtl9300.o
 .rodata.r9300_cpuTagToRaw_cnvt
                0x0000000083fbe164       0x24 board/Realtek/rtl9300/librtl9300.o
 .rodata.reasonTbl
                0x0000000083fbe188      0x200 board/Realtek/rtl9300/librtl9300.o
 .rodata.phy_9300_10gMedia_set
                0x0000000083fbe388       0x24 board/Realtek/rtl9300/librtl9300.o
 .rodata.phy_9300_speed_get
                0x0000000083fbe3ac       0x24 board/Realtek/rtl9300/librtl9300.o
 .rodata.phy_9300_speed_set
                0x0000000083fbe3d0       0x28 board/Realtek/rtl9300/librtl9300.o
 .rodata.phy_9300_serdesFiberRx_reset
                0x0000000083fbe3f8       0x24 board/Realtek/rtl9300/librtl9300.o
 .rodata.rtl9300_miim_portSmiMdxProto_set
                0x0000000083fbe41c       0x14 board/Realtek/rtl9300/librtl9300.o
 .rodata.rtl9300_miim_portSmiMdxProto_get
                0x0000000083fbe430       0x14 board/Realtek/rtl9300/librtl9300.o
 .rodata.rtl9300_table_read
                0x0000000083fbe444       0x8c board/Realtek/rtl9300/librtl9300.o
 .rodata.rtl9300_table_write
                0x0000000083fbe4d0       0x8c board/Realtek/rtl9300/librtl9300.o
 .rodata._rtl9300_smiMacType_init
                0x0000000083fbe55c       0x70 board/Realtek/rtl9300/librtl9300.o
 .rodata.dal_longan_port_speedDuplex_get
                0x0000000083fbe5cc       0x24 board/Realtek/rtl9300/librtl9300.o
 .rodata.dal_longan_port_smiMacType_set
                0x0000000083fbe5f0       0x70 board/Realtek/rtl9300/librtl9300.o
 .rodata.CSWTCH.102
                0x0000000083fbe660        0x8 board/Realtek/rtl9300/librtl9300.o
 .rodata.dal_longan_l2_learningFullAction_get
                0x0000000083fbe668       0x18 board/Realtek/rtl9300/librtl9300.o
 .rodata.dal_longan_l2_ucastAddr_flush
                0x0000000083fbe680       0x14 board/Realtek/rtl9300/librtl9300.o
 .rodata.dal_longan_l2_learningFullAction_set
                0x0000000083fbe694       0x18 board/Realtek/rtl9300/librtl9300.o
 .rodata.dal_longan_l2_limitLearningAction_get
                0x0000000083fbe6ac       0x18 board/Realtek/rtl9300/librtl9300.o
 .rodata.dal_longan_l2_portMoveAction_get
                0x0000000083fbe6c4       0x18 board/Realtek/rtl9300/librtl9300.o
 .rodata.dal_longan_l2_portUcastLookupMissAction_get
                0x0000000083fbe6dc       0x18 board/Realtek/rtl9300/librtl9300.o
 .rodata.dal_longan_l2_limitLearningAction_set
                0x0000000083fbe6f4       0x18 board/Realtek/rtl9300/librtl9300.o
 .rodata.dal_longan_l2_portMoveAction_set
                0x0000000083fbe70c       0x18 board/Realtek/rtl9300/librtl9300.o
 .rodata.dal_longan_l2_portUcastLookupMissAction_set
                0x0000000083fbe724       0x18 board/Realtek/rtl9300/librtl9300.o
 .rodata.dal_longan_l2_portNewMacOp_get
                0x0000000083fbe73c       0x18 board/Realtek/rtl9300/librtl9300.o
 .rodata.dal_longan_l2_portNewMacOp_set
                0x0000000083fbe754       0x18 board/Realtek/rtl9300/librtl9300.o
 .rodata._dal_longan_sds_rxCali_TAP_Manual.part.18
                0x0000000083fbe76c       0x14 board/Realtek/rtl9300/librtl9300.o
 .rodata._dal_longan_sds_mode_get
                0x0000000083fbe780       0x78 board/Realtek/rtl9300/librtl9300.o
 .rodata.dal_longan_sds_modeReg_set
                0x0000000083fbe7f8       0x98 board/Realtek/rtl9300/librtl9300.o
 .rodata._dal_longan_sds_rxCali_DCVS_Manual
                0x0000000083fbe890       0x30 board/Realtek/rtl9300/librtl9300.o
 .rodata._dal_longan_sds_rxCali_DCVS_Read
                0x0000000083fbe8c0       0x18 board/Realtek/rtl9300/librtl9300.o
 .rodata.dal_longan_construct_serdes_on
                0x0000000083fbe8d8       0x74 board/Realtek/rtl9300/librtl9300.o
                0x0000000083fbe94c                . = ALIGN (0x4)
 *(EXCLUDE_FILE(arch/otto40/cpu/mips34kc/libmips34kc.o) .reginfo)
                0x0000000083fbe94c                . = ALIGN (0x4)
                0x0000000083fbe94c                LS_sw_patch_start = .
 *(.soft_patch.0)
 *(.soft_patch.1)
 .soft_patch.1  0x0000000083fbe94c        0x4 arch/otto40/lib/libotto40.o
                0x0000000083fbe94c                __swp_swp_flash_init
 *(.soft_patch.2)
 .soft_patch.2  0x0000000083fbe950        0x4 board/Realtek/rtl9300/librtl9300.o
                0x0000000083fbe950                __swp_sw_set_spif_div
 *(.soft_patch.3)
 .soft_patch.3  0x0000000083fbe954        0x4 arch/otto40/lib/libotto40.o
                0x0000000083fbe954                __swp_swp_env
 *(.soft_patch.4)
 *(.soft_patch.5)
 .soft_patch.5  0x0000000083fbe958        0x4 arch/otto40/lib/libotto40.o
                0x0000000083fbe958                __swp_swp_uart
 *(.soft_patch.6)
 *(.soft_patch.7)
 .soft_patch.7  0x0000000083fbe95c        0x4 arch/otto40/lib/libotto40.o
                0x0000000083fbe95c                __swp_swp_pci
 *(.soft_patch.8)
 *(.soft_patch.9)
 .soft_patch.9  0x0000000083fbe960        0x4 arch/otto40/lib/libotto40.o
                0x0000000083fbe960                __swp_swp_studio
 *(.soft_patch.10)
 *(.soft_patch.11)
 .soft_patch.11
                0x0000000083fbe964        0x4 arch/otto40/lib/libotto40.o
                0x0000000083fbe964                __swp_swp_console_r
 *(.soft_patch.12)
 *(.soft_patch.13)
 .soft_patch.13
                0x0000000083fbe968        0x4 arch/otto40/lib/libotto40.o
                0x0000000083fbe968                __swp_swp_env_set
 *(.soft_patch.14)
 *(.soft_patch.15)
 .soft_patch.15
                0x0000000083fbe96c        0x4 arch/otto40/lib/libotto40.o
                0x0000000083fbe96c                __swp_swp_spi
 *(.soft_patch.16)
 *(.soft_patch.17)
 .soft_patch.17
                0x0000000083fbe970        0x4 arch/otto40/lib/libotto40.o
                0x0000000083fbe970                __swp_swp_misc
 *(.soft_patch.18)
 *(.soft_patch.19)
 .soft_patch.19
                0x0000000083fbe974        0x4 arch/otto40/lib/libotto40.o
                0x0000000083fbe974                __swp_swp_post
 *(.soft_patch.20)
 *(.soft_patch.21)
 .soft_patch.21
                0x0000000083fbe978        0x4 arch/otto40/lib/libotto40.o
                0x0000000083fbe978                __swp_swp_eth
 *(.soft_patch.22)
 *(.soft_patch.23)
                0x0000000083fbe97c                LS_bootm_stack = .
 *(.soft_patch.99)
                0x0000000083fbe97c                LS_sw_patch_end = .
                0x0000000083fbe97c                . = ALIGN (0x4)
                0x0000000083fbe97c                __u_boot_cmd_start = .
 *(.u_boot_cmd)
 .u_boot_cmd    0x0000000083fbe97c       0x18 arch/otto40/lib/libotto40.o
                0x0000000083fbe97c                __u_boot_cmd_sleep
 .u_boot_cmd    0x0000000083fbe994      0x360 common/libcommon.o
                0x0000000083fbe994                __u_boot_cmd_reset
                0x0000000083fbe9ac                __u_boot_cmd_go
                0x0000000083fbe9c4                __u_boot_cmd_bootf
                0x0000000083fbe9dc                __u_boot_cmd_iminfo
                0x0000000083fbe9f4                __u_boot_cmd_bootm
                0x0000000083fbea0c                __u_boot_cmd_protect
                0x0000000083fbea24                __u_boot_cmd_erase
                0x0000000083fbea3c                __u_boot_cmd_flinfo
                0x0000000083fbea54                __u_boot_cmd_question_mark
                0x0000000083fbea6c                __u_boot_cmd_help
                0x0000000083fbea84                __u_boot_cmd_loady
                0x0000000083fbea9c                __u_boot_cmd_loadb
                0x0000000083fbeab4                __u_boot_cmd_loads
                0x0000000083fbeacc                __u_boot_cmd_mtest
                0x0000000083fbeae4                __u_boot_cmd_loop
                0x0000000083fbeafc                __u_boot_cmd_base
                0x0000000083fbeb14                __u_boot_cmd_crc32
                0x0000000083fbeb2c                __u_boot_cmd_cmp
                0x0000000083fbeb44                __u_boot_cmd_cp
                0x0000000083fbeb5c                __u_boot_cmd_mw
                0x0000000083fbeb74                __u_boot_cmd_nm
                0x0000000083fbeb8c                __u_boot_cmd_mm
                0x0000000083fbeba4                __u_boot_cmd_md
                0x0000000083fbebbc                __u_boot_cmd_ping
                0x0000000083fbebd4                __u_boot_cmd_tftpboot
                0x0000000083fbebec                __u_boot_cmd_bootp
                0x0000000083fbec04                __u_boot_cmd_run
                0x0000000083fbec1c                __u_boot_cmd_setenv2
                0x0000000083fbec34                __u_boot_cmd_setenv
                0x0000000083fbec4c                __u_boot_cmd_printenv2
                0x0000000083fbec64                __u_boot_cmd_printenv
                0x0000000083fbec7c                __u_boot_cmd_env
                0x0000000083fbec94                __u_boot_cmd_saveenv2
                0x0000000083fbecac                __u_boot_cmd_saveenv
                0x0000000083fbecc4                __u_boot_cmd_sf
                0x0000000083fbecdc                __u_boot_cmd_version
 .u_boot_cmd    0x0000000083fbecf4       0xc0 board/Realtek/rtl9300/librtl9300.o
                0x0000000083fbecf4                __u_boot_cmd_reset_all
                0x0000000083fbed0c                __u_boot_cmd_savesys
                0x0000000083fbed24                __u_boot_cmd_setsys
                0x0000000083fbed3c                __u_boot_cmd_printsys
                0x0000000083fbed54                __u_boot_cmd_upgrade
                0x0000000083fbed6c                __u_boot_cmd_flshow
                0x0000000083fbed84                __u_boot_cmd_flerase
                0x0000000083fbed9c                __u_boot_cmd_rtk
                0x0000000083fbedb4                __u_boot_cmd_end = .
                0x0000000083fbedb4                . = ALIGN (0x4)
                0x0000000083fbedb4                LS_start_of_nor_spif_probe_func = .
 *(.nor_spif_probe_func)
 .nor_spif_probe_func
                0x0000000083fbedb4       0x14 arch/otto40/lib/libotto40.o
                0x0000000083fbedb4                __nspf_norsf_mxic_probe_
                0x0000000083fbedb8                __nspf_norsf_spansion_probe_
                0x0000000083fbedbc                __nspf_norsf_winbond_probe_
                0x0000000083fbedc0                __nspf_norsf_gd_probe_
                0x0000000083fbedc4                __nspf_norsf_micron_probe_
                0x0000000083fbedc8                LS_end_of_nor_spif_probe_func = .
                0x0000000083fbedc8                . = ALIGN (0x4)
                0x0000000083fbedc8                LS_start_of_spi_nand_probe_func = .
 *(.spi_nand_probe_func)
                0x0000000083fbedc8                LS_end_of_spi_nand_probe_func = .
                0x0000000083fbedc8                . = ALIGN (0x4)
 *(.rel.dyn)
 .rel.dyn       0x0000000083fbedc8       0x10 arch/otto40/cpu/mips34kc/libmips34kc.o
                0x0000000083f00000                uboot_vmabase = ADDR (.dram)
                0x000000009fc05030                uboot_start = LOADADDR (.dram)
                0x00000000000bedd8                uboot_size = SIZEOF (.dram)
                0x0000000083fbedd8                . = ALIGN (0x4)
                0x0000000083fbedd8                uboot_end_data = .

.sbss
 *(EXCLUDE_FILE(arch/otto40/cpu/mips34kc/libmips34kc.o) .sbss*)
                0x0000000083fbedd8                . = ALIGN (0x4)

.bss            0x0000000083fbedd8    0x41388 load address 0x0000000000200000
 *(EXCLUDE_FILE(arch/otto40/cpu/mips34kc/libmips34kc.o) .bss*)
 .bss.linux_env_idx
                0x0000000083fbedd8        0x4 arch/otto40/lib/libotto40.o
 .bss.linux_env_p
                0x0000000083fbeddc        0x4 arch/otto40/lib/libotto40.o
 .bss.linux_env
                0x0000000083fbede0        0x4 arch/otto40/lib/libotto40.o
 .bss.linux_argv
                0x0000000083fbede4        0x4 arch/otto40/lib/libotto40.o
 .bss.linux_argc
                0x0000000083fbede8        0x4 arch/otto40/lib/libotto40.o
 .bss._accumulate_time_ms
                0x0000000083fbedec        0x4 arch/otto40/lib/libotto40.o
 .bss.otto_sf   0x0000000083fbedf0       0x20 arch/otto40/lib/libotto40.o
 .bss.otto_slave
                0x0000000083fbee10        0x8 arch/otto40/lib/libotto40.o
 .bss.k_data_escape_saved
                0x0000000083fbee18        0x4 common/libcommon.o
 .bss.k_data_escape
                0x0000000083fbee1c        0x4 common/libcommon.o
 .bss.bin_start_address
                0x0000000083fbee20        0x4 common/libcommon.o
 .bss.os_data_addr_saved
                0x0000000083fbee24        0x4 common/libcommon.o
 .bss.os_data_addr
                0x0000000083fbee28        0x4 common/libcommon.o
 .bss.os_data_state_saved
                0x0000000083fbee2c        0x4 common/libcommon.o
 .bss.os_data_state
                0x0000000083fbee30        0x4 common/libcommon.o
 .bss.a_b       0x0000000083fbee34       0x18 common/libcommon.o
 .bss.base_address
                0x0000000083fbee4c        0x4 common/libcommon.o
 .bss.mm_last_size
                0x0000000083fbee50        0x4 common/libcommon.o
 .bss.mm_last_addr
                0x0000000083fbee54        0x4 common/libcommon.o
 .bss.dp_last_size
                0x0000000083fbee58        0x4 common/libcommon.o
 .bss.dp_last_addr
                0x0000000083fbee5c        0x4 common/libcommon.o
 .bss.flash     0x0000000083fbee60        0x4 common/libcommon.o
 .bss.ctrlc_was_pressed
                0x0000000083fbee64        0x4 common/libcommon.o
 .bss.ctrlc_disabled
                0x0000000083fbee68        0x4 common/libcommon.o
 .bss.g_env_id  0x0000000083fbee6c        0x4 common/libcommon.o
                0x0000000083fbee6c                g_env_id
 .bss.env_htab  0x0000000083fbee70       0x18 common/libcommon.o
                0x0000000083fbee70                env_htab
 .bss.env_flash
                0x0000000083fbee88        0x4 common/libcommon.o
 .bss.initted.3295
                0x0000000083fbee8c        0x4 common/libcommon.o
 .bss.lastcommand.3168
                0x0000000083fbee90      0x200 common/libcommon.o
 .bss.hist_num  0x0000000083fbf090        0x4 common/libcommon.o
                0x0000000083fbf090                hist_num
 .bss.hist_add_idx
                0x0000000083fbf094        0x4 common/libcommon.o
 .bss.hist_max  0x0000000083fbf098        0x4 common/libcommon.o
 .bss.prompt_str
                0x0000000083fbf09c       0x20 common/libcommon.o
 .bss.stdio_devices
                0x0000000083fbf0bc        0xc common/libcommon.o
                0x0000000083fbf0bc                stdio_devices
 .bss.devs      0x0000000083fbf0c8       0x3c common/libcommon.o
 .bss.xyz       0x0000000083fbf104      0x43c common/libcommon.o
 .bss.errno     0x0000000083fbf540        0x4 lib/libgeneric.o
                0x0000000083fbf540                errno
 .bss.local.3181
                0x0000000083fbf544       0x18 lib/libgeneric.o
 .bss.env_changed_id.3591
                0x0000000083fbf55c        0x4 net/libnet.o
 .bss.act.3590  0x0000000083fbf560        0x4 net/libnet.o
 .bss.first_failed.3585
                0x0000000083fbf564        0x4 net/libnet.o
 .bss.eth_current
                0x0000000083fbf568        0x4 net/libnet.o
 .bss.eth_devices
                0x0000000083fbf56c        0x4 net/libnet.o
 .bss.mac.3100  0x0000000083fbf570        0x8 net/libnet.o
 .bss.env_changed_id.3029
                0x0000000083fbf578        0x4 net/libnet.o
 .bss.PingSeqNo
                0x0000000083fbf57c        0x2 net/libnet.o
 *fill*         0x0000000083fbf57e        0x2 
 .bss.NetTryCount
                0x0000000083fbf580        0x4 net/libnet.o
 .bss.timeDelta
                0x0000000083fbf584        0x4 net/libnet.o
 .bss.timeStart
                0x0000000083fbf588        0x4 net/libnet.o
 .bss.timeHandler
                0x0000000083fbf58c        0x4 net/libnet.o
 .bss.packetHandler
                0x0000000083fbf590        0x4 net/libnet.o
 .bss.NetDevExists
                0x0000000083fbf594        0x4 net/libnet.o
 .bss.NetRestarted
                0x0000000083fbf598        0x4 net/libnet.o
 .bss.NetOurRootPath
                0x0000000083fbf59c       0x40 net/libnet.o
                0x0000000083fbf59c                NetOurRootPath
 .bss.NetOurHostName
                0x0000000083fbf5dc       0x20 net/libnet.o
                0x0000000083fbf5dc                NetOurHostName
 .bss.NetOurNISDomain
                0x0000000083fbf5fc       0x20 net/libnet.o
                0x0000000083fbf5fc                NetOurNISDomain
 .bss.tftp_filename
                0x0000000083fbf61c       0x80 net/libnet.o
 .bss.default_filename
                0x0000000083fbf69c       0x10 net/libnet.o
 .bss.TftpState
                0x0000000083fbf6ac        0x4 net/libnet.o
 .bss.TftpBlockWrapOffset
                0x0000000083fbf6b0        0x4 net/libnet.o
 .bss.TftpBlockWrap
                0x0000000083fbf6b4        0x4 net/libnet.o
 .bss.TftpLastBlock
                0x0000000083fbf6b8        0x4 net/libnet.o
 .bss.TftpBlock
                0x0000000083fbf6bc        0x4 net/libnet.o
 .bss.TftpTimeoutCount
                0x0000000083fbf6c0        0x4 net/libnet.o
 .bss.TftpOurPort
                0x0000000083fbf6c4        0x4 net/libnet.o
 .bss.TftpRemotePort
                0x0000000083fbf6c8        0x4 net/libnet.o
 .bss.TftpRemoteIP
                0x0000000083fbf6cc        0x4 net/libnet.o
 .bss.sdk_init_times
                0x0000000083fbf6d0        0x8 board/Realtek/rtl9300/librtl9300.o
                0x0000000083fbf6d0                sdk_init_times
 .bss.glb_sysinfo_addr
                0x0000000083fbf6d8        0x4 board/Realtek/rtl9300/librtl9300.o
                0x0000000083fbf6d8                glb_sysinfo_addr
 .bss.env_flash
                0x0000000083fbf6dc        0xc board/Realtek/rtl9300/librtl9300.o
 .bss.uboot_cmd_unit
                0x0000000083fbf6e8        0x4 board/Realtek/rtl9300/librtl9300.o
                0x0000000083fbf6e8                uboot_cmd_unit
 .bss.rtk_dev2unitID
                0x0000000083fbf6ec       0x40 board/Realtek/rtl9300/librtl9300.o
                0x0000000083fbf6ec                rtk_dev2unitID
 .bss.rtk_unit2devID
                0x0000000083fbf72c       0x40 board/Realtek/rtl9300/librtl9300.o
                0x0000000083fbf72c                rtk_unit2devID
 .bss.rtcore_init_status
                0x0000000083fbf76c        0x4 board/Realtek/rtl9300/librtl9300.o
                0x0000000083fbf76c                rtcore_init_status
 .bss.hwp_ExternalCpu
                0x0000000083fbf770        0x4 board/Realtek/rtl9300/librtl9300.o
                0x0000000083fbf770                hwp_ExternalCpu
 .bss.parsedInfo_cnt
                0x0000000083fbf774        0x4 board/Realtek/rtl9300/librtl9300.o
 .bss.hwp_myHwProfile
                0x0000000083fbf778        0x4 board/Realtek/rtl9300/librtl9300.o
                0x0000000083fbf778                hwp_myHwProfile
 .bss.hwp_init_sys_status
                0x0000000083fbf77c        0x4 board/Realtek/rtl9300/librtl9300.o
 .bss.hwp_init_status
                0x0000000083fbf780        0x4 board/Realtek/rtl9300/librtl9300.o
                0x0000000083fbf780                hwp_init_status
 .bss.hwp_useDefHwp
                0x0000000083fbf784        0x4 board/Realtek/rtl9300/librtl9300.o
                0x0000000083fbf784                hwp_useDefHwp
 .bss.hra_write_cb
                0x0000000083fbf788        0x4 board/Realtek/rtl9300/librtl9300.o
                0x0000000083fbf788                hra_write_cb
 .bss.hra_read_cb
                0x0000000083fbf78c        0x4 board/Realtek/rtl9300/librtl9300.o
                0x0000000083fbf78c                hra_read_cb
 .bss.rtk_chip_type
                0x0000000083fbf790       0x40 board/Realtek/rtl9300/librtl9300.o
                0x0000000083fbf790                rtk_chip_type
 .bss.ioal_mem32_write_cb
                0x0000000083fbf7d0        0x4 board/Realtek/rtl9300/librtl9300.o
 .bss.ioal_mem32_read_cb
                0x0000000083fbf7d4        0x4 board/Realtek/rtl9300/librtl9300.o
 .bss.drv_swcore_early_init
                0x0000000083fbf7d8        0x4 board/Realtek/rtl9300/librtl9300.o
                0x0000000083fbf7d8                drv_swcore_early_init
 .bss.gIsrRegistered
                0x0000000083fbf7dc        0x4 board/Realtek/rtl9300/librtl9300.o
 .bss.my_isr_param
                0x0000000083fbf7e0       0x80 board/Realtek/rtl9300/librtl9300.o
 .bss.gJumboSize
                0x0000000083fbf860        0x4 board/Realtek/rtl9300/librtl9300.o
 .bss.rxCRCInclude
                0x0000000083fbf864        0x4 board/Realtek/rtl9300/librtl9300.o
 .bss.cpuTagId  0x0000000083fbf868        0x4 board/Realtek/rtl9300/librtl9300.o
 .bss.nic_tx_ring_cntr
                0x0000000083fbf86c        0x4 board/Realtek/rtl9300/librtl9300.o
 .bss.nic_tx_isr_cntr
                0x0000000083fbf870        0x4 board/Realtek/rtl9300/librtl9300.o
 .bss.nic_rx_failed_cntr
                0x0000000083fbf874        0x4 board/Realtek/rtl9300/librtl9300.o
 .bss.nic_rx_success_cntr
                0x0000000083fbf878        0x4 board/Realtek/rtl9300/librtl9300.o
 .bss.nic_tx_failed_cntr
                0x0000000083fbf87c        0x4 board/Realtek/rtl9300/librtl9300.o
 .bss.nic_tx_success_cntr
                0x0000000083fbf880        0x4 board/Realtek/rtl9300/librtl9300.o
 .bss.nic_debug_flag
                0x0000000083fbf884        0x4 board/Realtek/rtl9300/librtl9300.o
 .bss.totalTxRingNum
                0x0000000083fbf888        0x4 board/Realtek/rtl9300/librtl9300.o
 .bss.totalRxRingNum
                0x0000000083fbf88c        0x4 board/Realtek/rtl9300/librtl9300.o
 .bss.txRingNum
                0x0000000083fbf890        0x4 board/Realtek/rtl9300/librtl9300.o
 .bss.rxRingNum
                0x0000000083fbf894        0x4 board/Realtek/rtl9300/librtl9300.o
 .bss.txRingIdSize
                0x0000000083fbf898        0x4 board/Realtek/rtl9300/librtl9300.o
 .bss.rxRingIdSize
                0x0000000083fbf89c        0x4 board/Realtek/rtl9300/librtl9300.o
 .bss.jumboFlag
                0x0000000083fbf8a0        0x4 board/Realtek/rtl9300/librtl9300.o
 .bss.pPacket   0x0000000083fbf8a4        0x4 board/Realtek/rtl9300/librtl9300.o
 .bss.pNic_txRDPIdx
                0x0000000083fbf8a8        0x4 board/Realtek/rtl9300/librtl9300.o
 .bss.pNic_rxRDPIdx
                0x0000000083fbf8ac        0x4 board/Realtek/rtl9300/librtl9300.o
 .bss.pNic_txCDPIdx
                0x0000000083fbf8b0        0x4 board/Realtek/rtl9300/librtl9300.o
 .bss.pNic_rxCDPIdx
                0x0000000083fbf8b4        0x4 board/Realtek/rtl9300/librtl9300.o
 .bss.pNic_txFDPBase
                0x0000000083fbf8b8        0x4 board/Realtek/rtl9300/librtl9300.o
 .bss.pNic_rxFDPBase
                0x0000000083fbf8bc        0x4 board/Realtek/rtl9300/librtl9300.o
 .bss._nic_init_conf
                0x0000000083fbf8c0       0x14 board/Realtek/rtl9300/librtl9300.o
 .bss._nic_rx_cb_tbl
                0x0000000083fbf8d4       0x40 board/Realtek/rtl9300/librtl9300.o
 .bss.nic_init  0x0000000083fbf914       0x50 board/Realtek/rtl9300/librtl9300.o
 .bss.memUsage  0x0000000083fbf964        0x4 board/Realtek/rtl9300/librtl9300.o
 .bss.gUnit     0x0000000083fbf968        0x4 board/Realtek/rtl9300/librtl9300.o
 .bss.extGpiodata
                0x0000000083fbf96c     0x1280 board/Realtek/rtl9300/librtl9300.o
 .bss.extGpioConfEntry
                0x0000000083fc0bec     0x4800 board/Realtek/rtl9300/librtl9300.o
 .bss.data      0x0000000083fc53ec      0x200 board/Realtek/rtl9300/librtl9300.o
 .bss.gpio_sem  0x0000000083fc55ec       0x40 board/Realtek/rtl9300/librtl9300.o
 .bss.i2c_sem   0x0000000083fc562c       0x40 board/Realtek/rtl9300/librtl9300.o
 .bss.general_software_i2c_SDA
                0x0000000083fc566c       0x78 board/Realtek/rtl9300/librtl9300.o
 .bss.general_software_i2c_SCK
                0x0000000083fc56e4       0x78 board/Realtek/rtl9300/librtl9300.o
 .bss.software_i2c_INIT_FLAG
                0x0000000083fc575c       0x3c board/Realtek/rtl9300/librtl9300.o
 .bss.software_i2c_DELAY
                0x0000000083fc5798       0x3c board/Realtek/rtl9300/librtl9300.o
 .bss.software_i2c_CHIPID
                0x0000000083fc57d4       0x3c board/Realtek/rtl9300/librtl9300.o
 .bss.software_i2c_data_width
                0x0000000083fc5810       0x3c board/Realtek/rtl9300/librtl9300.o
 .bss.software_i2c_addr_width
                0x0000000083fc584c       0x3c board/Realtek/rtl9300/librtl9300.o
 .bss.hal_init_sys_status
                0x0000000083fc5888        0x4 board/Realtek/rtl9300/librtl9300.o
 .bss.p_rtl8214qf_cust_conf
                0x0000000083fc588c        0x4 board/Realtek/rtl9300/librtl9300.o
                0x0000000083fc588c                p_rtl8214qf_cust_conf
 .bss.rtl8214qf_cust_conf_init
                0x0000000083fc5890        0x4 board/Realtek/rtl9300/librtl9300.o
                0x0000000083fc5890                rtl8214qf_cust_conf_init
 .bss.conf_rtl8214qf_cust_board_list
                0x0000000083fc5894        0x4 board/Realtek/rtl9300/librtl9300.o
                0x0000000083fc5894                conf_rtl8214qf_cust_board_list
 .bss.phyctrlLnkList
                0x0000000083fc5898       0xb0 board/Realtek/rtl9300/librtl9300.o
                0x0000000083fc5898                phyctrlLnkList
 .bss.phyctrlLnkList_init
                0x0000000083fc5948        0x4 board/Realtek/rtl9300/librtl9300.o
                0x0000000083fc5948                phyctrlLnkList_init
 .bss.constructEntry_931x
                0x0000000083fc594c       0x44 board/Realtek/rtl9300/librtl9300.o
                0x0000000083fc594c                constructEntry_931x
 .bss.constructEntry_839x
                0x0000000083fc5990       0x44 board/Realtek/rtl9300/librtl9300.o
                0x0000000083fc5990                constructEntry_839x
 .bss.constructEntry_838x
                0x0000000083fc59d4       0x44 board/Realtek/rtl9300/librtl9300.o
                0x0000000083fc59d4                constructEntry_838x
 .bss.mgmt_dal_mapper
                0x0000000083fc5a18       0x18 board/Realtek/rtl9300/librtl9300.o
                0x0000000083fc5a18                mgmt_dal_mapper
 .bss.mgmt_sem  0x0000000083fc5a30        0x4 board/Realtek/rtl9300/librtl9300.o
 .bss.mgmt_unit_sem
                0x0000000083fc5a34        0x4 board/Realtek/rtl9300/librtl9300.o
                0x0000000083fc5a34                mgmt_unit_sem
 .bss.mgmt_init
                0x0000000083fc5a38        0x4 board/Realtek/rtl9300/librtl9300.o
 .bss.batch_err_cnt
                0x0000000083fc5a3c        0x4 board/Realtek/rtl9300/librtl9300.o
 .bss.batch_output
                0x0000000083fc5a40        0x4 board/Realtek/rtl9300/librtl9300.o
 .bss.batch_portmask
                0x0000000083fc5a44        0x8 board/Realtek/rtl9300/librtl9300.o
 .bss.batch_port_state
                0x0000000083fc5a4c        0x4 board/Realtek/rtl9300/librtl9300.o
 .bss.batch_next_index
                0x0000000083fc5a50        0x4 board/Realtek/rtl9300/librtl9300.o
 .bss.batch_profile_state
                0x0000000083fc5a54        0x4 board/Realtek/rtl9300/librtl9300.o
 .bss.batch_profile
                0x0000000083fc5a58        0x4 board/Realtek/rtl9300/librtl9300.o
 .bss.pPhy_info
                0x0000000083fc5a5c       0x80 board/Realtek/rtl9300/librtl9300.o
 .bss.phy_sem   0x0000000083fc5adc       0x40 board/Realtek/rtl9300/librtl9300.o
 .bss.phy_init  0x0000000083fc5b1c       0x40 board/Realtek/rtl9300/librtl9300.o
 .bss.rtk_init_status
                0x0000000083fc5b5c        0x4 board/Realtek/rtl9300/librtl9300.o
                0x0000000083fc5b5c                rtk_init_status
 .bss.phyInfo_alloc
                0x0000000083fc5b60       0x40 board/Realtek/rtl9300/librtl9300.o
 .bss.rtl8224_a_patch_top_conf
                0x0000000083fc5ba0        0x0 board/Realtek/rtl9300/librtl9300.o
                0x0000000083fc5ba0                rtl8224_a_patch_top_conf
 .bss.rtl8224_b_patch_top_conf
                0x0000000083fc5ba0        0x0 board/Realtek/rtl9300/librtl9300.o
                0x0000000083fc5ba0                rtl8224_b_patch_top_conf
 .bss.rtl8224_patch_top_conf
                0x0000000083fc5ba0        0x0 board/Realtek/rtl9300/librtl9300.o
                0x0000000083fc5ba0                rtl8224_patch_top_conf
 .bss.g8295rInfo
                0x0000000083fc5ba0       0x40 board/Realtek/rtl9300/librtl9300.o
                0x0000000083fc5ba0                g8295rInfo
 .bss.rtl8295EyeMonRegChk
                0x0000000083fc5be0        0x4 board/Realtek/rtl9300/librtl9300.o
                0x0000000083fc5be0                rtl8295EyeMonRegChk
 .bss.patchDbgEnable
                0x0000000083fc5be4        0x8 board/Realtek/rtl9300/librtl9300.o
 .bss.phy82x4qfPatch_init
                0x0000000083fc5bec       0x40 board/Realtek/rtl9300/librtl9300.o
                0x0000000083fc5bec                phy82x4qfPatch_init
 .bss.rtl8231_sem
                0x0000000083fc5c2c       0x40 board/Realtek/rtl9300/librtl9300.o
 .bss.rtl8231_init
                0x0000000083fc5c6c       0x40 board/Realtek/rtl9300/librtl9300.o
 .bss.i2c_init  0x0000000083fc5cac       0x10 board/Realtek/rtl9300/librtl9300.o
 .bss.remoteFaultHandled
                0x0000000083fc5cbc     0x1000 board/Realtek/rtl9300/librtl9300.o
 .bss.portFiberRxEnable
                0x0000000083fc6cbc     0x1000 board/Realtek/rtl9300/librtl9300.o
 .bss.sds_mode_g
                0x0000000083fc7cbc      0x600 board/Realtek/rtl9300/librtl9300.o
 .bss.port_ready
                0x0000000083fc82bc       0x80 board/Realtek/rtl9300/librtl9300.o
 .bss.portAdminEnable
                0x0000000083fc833c     0x1000 board/Realtek/rtl9300/librtl9300.o
 .bss.port10gMedia
                0x0000000083fc933c     0x1000 board/Realtek/rtl9300/librtl9300.o
 .bss.gpio_init
                0x0000000083fca33c        0x1 board/Realtek/rtl9300/librtl9300.o
 *fill*         0x0000000083fca33d        0x3 
 .bss.rtl9300_portmask_list
                0x0000000083fca340        0x8 board/Realtek/rtl9300/librtl9300.o
 .bss.unidir_en_portmask
                0x0000000083fca348        0x8 board/Realtek/rtl9300/librtl9300.o
                0x0000000083fca348                unidir_en_portmask
 .bss.link_change_callback_f
                0x0000000083fca350       0x40 board/Realtek/rtl9300/librtl9300.o
 .bss.pMac_info
                0x0000000083fca390       0x40 board/Realtek/rtl9300/librtl9300.o
 .bss.mac_force_sem
                0x0000000083fca3d0       0x40 board/Realtek/rtl9300/librtl9300.o
 .bss.port_sem  0x0000000083fca410       0x40 board/Realtek/rtl9300/librtl9300.o
 .bss.port_init
                0x0000000083fca450       0x40 board/Realtek/rtl9300/librtl9300.o
 .bss.mcast_fwdTable_shadow
                0x0000000083fca490        0x4 board/Realtek/rtl9300/librtl9300.o
 .bss.mcast_idx_pool
                0x0000000083fca494       0xc0 board/Realtek/rtl9300/librtl9300.o
 .bss.gAging_time
                0x0000000083fca554       0x10 board/Realtek/rtl9300/librtl9300.o
 .bss.l2_lrn    0x0000000083fca564      0x400 board/Realtek/rtl9300/librtl9300.o
 .bss.nh_used_cnt
                0x0000000083fca964       0x40 board/Realtek/rtl9300/librtl9300.o
 .bss.blk1AlgoType
                0x0000000083fca9a4       0x40 board/Realtek/rtl9300/librtl9300.o
 .bss.blk0AlgoType
                0x0000000083fca9e4       0x40 board/Realtek/rtl9300/librtl9300.o
 .bss.mcast_tableSize
                0x0000000083fcaa24       0x40 board/Realtek/rtl9300/librtl9300.o
 .bss.cam_size  0x0000000083fcaa64       0x40 board/Realtek/rtl9300/librtl9300.o
 .bss.hashTable_size
                0x0000000083fcaaa4       0x40 board/Realtek/rtl9300/librtl9300.o
 .bss.l2_sem_2  0x0000000083fcaae4       0x40 board/Realtek/rtl9300/librtl9300.o
 .bss.l2_pmsk_tbl_sem
                0x0000000083fcab24       0x40 board/Realtek/rtl9300/librtl9300.o
 .bss.l2_sem    0x0000000083fcab64       0x40 board/Realtek/rtl9300/librtl9300.o
 .bss.l2_init   0x0000000083fcaba4       0x40 board/Realtek/rtl9300/librtl9300.o
 .bss.flowctrl_sem
                0x0000000083fcabe4       0x40 board/Realtek/rtl9300/librtl9300.o
 .bss.flowctrl_init
                0x0000000083fcac24       0x40 board/Realtek/rtl9300/librtl9300.o
 .bss.ori_type  0x0000000083fcac64      0x100 board/Realtek/rtl9300/librtl9300.o
 .bss.stack_sem
                0x0000000083fcad64       0x40 board/Realtek/rtl9300/librtl9300.o
 .bss.stack_init
                0x0000000083fcada4       0x40 board/Realtek/rtl9300/librtl9300.o
 .bss.pTrunkMon_cb
                0x0000000083fcade4        0x4 board/Realtek/rtl9300/librtl9300.o
 .bss.trunkMode
                0x0000000083fcade8        0x4 board/Realtek/rtl9300/librtl9300.o
 .bss.localTrunkID
                0x0000000083fcadec        0x4 board/Realtek/rtl9300/librtl9300.o
 .bss.trunk2localIdx
                0x0000000083fcadf0        0x4 board/Realtek/rtl9300/librtl9300.o
 .bss.pTrunkMemberSet
                0x0000000083fcadf4       0x40 board/Realtek/rtl9300/librtl9300.o
 .bss.trunk_sem
                0x0000000083fcae34       0x40 board/Realtek/rtl9300/librtl9300.o
 .bss.trunk_init
                0x0000000083fcae74       0x40 board/Realtek/rtl9300/librtl9300.o
 .bss.eee_init  0x0000000083fcaeb4       0x40 board/Realtek/rtl9300/librtl9300.o
 .bss.dac500cm_tx_param
                0x0000000083fcaef4     0x4200 board/Realtek/rtl9300/librtl9300.o
 .bss.dac300cm_tx_param
                0x0000000083fcf0f4     0x4200 board/Realtek/rtl9300/librtl9300.o
 .bss.dac100cm_tx_param
                0x0000000083fd32f4     0x4200 board/Realtek/rtl9300/librtl9300.o
 .bss.dac50cm_tx_param
                0x0000000083fd74f4     0x4200 board/Realtek/rtl9300/librtl9300.o
 .bss.fiber10g_8431_param
                0x0000000083fdb6f4     0x4200 board/Realtek/rtl9300/librtl9300.o
 .bss.fiber100m_info
                0x0000000083fdf8f4      0x600 board/Realtek/rtl9300/librtl9300.o
 .bss.sdsInfo   0x0000000083fdfef4     0x1e00 board/Realtek/rtl9300/librtl9300.o
 .bss.rxCaliConf
                0x0000000083fe1cf4     0x1200 board/Realtek/rtl9300/librtl9300.o
 .bss.sds_sem   0x0000000083fe2ef4       0x40 board/Realtek/rtl9300/librtl9300.o
 .bss.sds_init  0x0000000083fe2f34       0x40 board/Realtek/rtl9300/librtl9300.o
 .bss.conf_rtl9300_cust_board_list
                0x0000000083fe2f74        0x4 board/Realtek/rtl9300/librtl9300.o
                0x0000000083fe2f74                conf_rtl9300_cust_board_list
 COMMON         0x0000000083fe2f78       0x14 arch/otto40/lib/libotto40.o
                0x0000000083fe2f78                monitor_flash_len
                0x0000000083fe2f7c                gcameoboardinfo
 COMMON         0x0000000083fe2f8c     0x2b25 common/libcommon.o
                0x0000000083fe2f8c                console_buffer
                0x0000000083fe318d                his_pad_char
                0x0000000083fe3190                send_ptr
                0x0000000083fe3194                send_parms
                0x0000000083fe31a8                save_addr
                0x0000000083fe31ac                save_size
                0x0000000083fe31b0                his_eol
                0x0000000083fe31b4                os_data_char
                0x0000000083fe31b8                his_pad_count
                0x0000000083fe31bc                hist_lines
                0x0000000083fe59d0                os_data_init
                0x0000000083fe59d4                hist_list
                0x0000000083fe5a24                images
                0x0000000083fe5ab0                his_quote
 *fill*         0x0000000083fe5ab1        0x3 
 COMMON         0x0000000083fe5ab4     0x2544 net/libnet.o
                0x0000000083fe5ab4                NetOurEther
                0x0000000083fe5abc                NetState
                0x0000000083fe5ac0                NetServerEther
                0x0000000083fe5ac8                NetRxPacketLen
                0x0000000083fe5acc                NetArpWaitReplyIP
                0x0000000083fe5ad0                NetRxPacket
                0x0000000083fe5ad4                NetIPID
                0x0000000083fe5ad8                NetArpWaitPacketIP
                0x0000000083fe5adc                BootpTry
                0x0000000083fe5ae0                NetRxPackets
                0x0000000083fe5af0                NetBootFileSize
                0x0000000083fe5af4                NetArpWaitTxPacketSize
                0x0000000083fe5af8                NetArpWaitTry
                0x0000000083fe5afc                NetOurGatewayIP
                0x0000000083fe5b00                NetArpWaitTimerStart
                0x0000000083fe5b04                NetRestartWrap
                0x0000000083fe5b08                PktBuf
                0x0000000083fe7928                BootFile
                0x0000000083fe79a8                NetOurSubnetMask
                0x0000000083fe79ac                NetArpWaitTxPacket
                0x0000000083fe79b0                NetTxPacket
                0x0000000083fe79b4                NetPingIP
                0x0000000083fe79b8                NetOurIP
                0x0000000083fe79bc                NetArpWaitPacketMAC
                0x0000000083fe79c0                NetArpWaitPacketBuf
                0x0000000083fe7fe0                NetOurDNSIP
                0x0000000083fe7fe4                NetServerIP
                0x0000000083fe7fe8                NetEtherNullAddr
                0x0000000083fe7ff0                NetBootFileXferSize
                0x0000000083fe7ff4                BootpID
 COMMON         0x0000000083fe7ff8    0x18168 board/Realtek/rtl9300/librtl9300.o
                0x0000000083fe7ff8                gMiim_phyRevId
                0x0000000083fe87f8                patch_afe_conf_size
                0x0000000083fe87fc                gPhy8295rPI
                0x0000000083ff37fc                rtk_hal_stack_ports
                0x0000000083ff387c                patch_fwpr_conf_size
                0x0000000083ff3880                rtkDev
                0x0000000083ff3894                hal_ctrl
                0x0000000083ff4bd4                pTxPktHdr
                0x0000000083ff4bd8                pRxPktHdr
                0x0000000083ff4bdc                hwp_unit_sem
                0x0000000083ff4be0                swDescpEmpty
                0x0000000083ff5248                g_gpioDevConfig
                0x0000000083ff525c                ioal_db
                0x0000000083ff559c                g_extGPIODev_init
                0x0000000083ff55a0                testLen
                0x0000000083ff55a4                pkt
                0x0000000083ff5ba0                pkt_recv
                0x0000000083ff619c                isFail
                0x0000000083ff61a0                hwpEmpty
                0x0000000083ff61f8                patch_sds_conf_size
                0x0000000083ff61fc                pMgmt_node
                0x0000000083ff623c                patch_top_conf_size
                0x0000000083ff6240                scDescpEmpty
                0x0000000083ff6248                patch_sds_conf
                0x0000000083ff624c                unitInfoEmpty
                0x0000000083ff6a7c                serdesDescpEmpty
                0x0000000083ff6a80                patch_fwpr_conf
                0x0000000083ff6a84                port_tapbin_field
                0x0000000083ff7a84                rcvLen
                0x0000000083ff7a88                parsedInfoEmpty
                0x0000000083ffabbc                patch_afe_conf
                0x0000000083ffabc0                unitMapStruct
                0x0000000083ffac40                force_link_up
                0x0000000083ffad40                gI2C_dev
                0x0000000083ffe140                portDescpEmpty
                0x0000000083ffe154                patch_top_conf
                0x0000000083ffe158                patch_fwlm_conf_size
                0x0000000083ffe15c                patch_fwlm_conf
                0x0000000083ffe160                gPhy82x4qfPI
                0x0000000083fff160                port_tapbin_reg
                0x0000000084000160                uboot_end = .
Address of section .text set to 0x83f00000
START GROUP
LOAD api/libapi.o
LOAD arch/otto40/cpu/mips34kc/libmips34kc.o
LOAD arch/otto40/lib/libotto40.o
LOAD common/libcommon.o
LOAD disk/libdisk.o
LOAD drivers/bios_emulator/libatibiosemu.o
LOAD drivers/block/libblock.o
LOAD drivers/dma/libdma.o
LOAD drivers/fpga/libfpga.o
LOAD drivers/gpio/libgpio.o
LOAD drivers/hwmon/libhwmon.o
LOAD drivers/i2c/libi2c.o
LOAD drivers/input/libinput.o
LOAD drivers/misc/libmisc.o
LOAD drivers/mmc/libmmc.o
LOAD drivers/mtd/libmtd.o
LOAD drivers/mtd/nand/libnand.o
LOAD drivers/mtd/onenand/libonenand.o
LOAD drivers/mtd/spi/libspi_flash.o
LOAD drivers/mtd/ubi/libubi.o
LOAD drivers/net/libnet.o
LOAD drivers/net/phy/libphy.o
LOAD drivers/pci/libpci.o
LOAD drivers/pcmcia/libpcmcia.o
LOAD drivers/power/libpower.o
LOAD drivers/rtc/librtc.o
LOAD drivers/serial/libserial.o
LOAD drivers/spi/libspi.o
LOAD drivers/twserial/libtws.o
LOAD drivers/usb/eth/libusb_eth.o
LOAD drivers/usb/gadget/libusb_gadget.o
LOAD drivers/usb/host/libusb_host.o
LOAD drivers/usb/musb/libusb_musb.o
LOAD drivers/usb/phy/libusb_phy.o
LOAD drivers/usb/ulpi/libusb_ulpi.o
LOAD drivers/video/libvideo.o
LOAD drivers/watchdog/libwatchdog.o
LOAD fs/cramfs/libcramfs.o
LOAD fs/ext2/libext2fs.o
LOAD fs/fat/libfat.o
LOAD fs/fdos/libfdos.o
LOAD fs/jffs2/libjffs2.o
LOAD fs/reiserfs/libreiserfs.o
LOAD fs/ubifs/libubifs.o
LOAD fs/yaffs2/libyaffs2.o
LOAD lib/libfdt/libfdt.o
LOAD lib/libgeneric.o
LOAD lib/lzma/liblzma.o
LOAD lib/lzo/liblzo.o
LOAD lib/zlib/libz.o
LOAD net/libnet.o
LOAD post/libpost.o
LOAD board/Realtek/rtl9300/librtl9300.o
END GROUP
OUTPUT(u-boot elf32-tradbigmips)

.text           0x0000000083f00000        0x0

.comment        0x0000000000000000      0x68a
 .comment       0x0000000000000000       0x43 arch/otto40/cpu/mips34kc/libmips34kc.o
                                        0x3b8 (size before relaxing)
 .comment       0x0000000000000000      0x4c8 arch/otto40/lib/libotto40.o
 .comment       0x0000000000000043      0x647 common/libcommon.o
 .comment       0x0000000000000000      0x440 lib/libgeneric.o
 .comment       0x0000000000000000       0x88 lib/lzma/liblzma.o
 .comment       0x0000000000000000       0x44 lib/zlib/libz.o
 .comment       0x0000000000000000      0x110 net/libnet.o
 .comment       0x0000000000000000     0x1a08 board/Realtek/rtl9300/librtl9300.o

.gnu.attributes
                0x0000000000000000       0x10
 .gnu.attributes
                0x0000000000000000       0x10 arch/otto40/cpu/mips34kc/libmips34kc.o
 .gnu.attributes
                0x0000000000000010       0x10 arch/otto40/lib/libotto40.o
 .gnu.attributes
                0x0000000000000020       0x10 common/libcommon.o
 .gnu.attributes
                0x0000000000000030       0x10 lib/libgeneric.o
 .gnu.attributes
                0x0000000000000040       0x10 lib/lzma/liblzma.o
 .gnu.attributes
                0x0000000000000050       0x10 lib/zlib/libz.o
 .gnu.attributes
                0x0000000000000060       0x10 net/libnet.o
 .gnu.attributes
                0x0000000000000070       0x10 board/Realtek/rtl9300/librtl9300.o

.mdebug.abi32   0x0000000000000000        0x0
 .mdebug.abi32  0x0000000000000000        0x0 arch/otto40/cpu/mips34kc/libmips34kc.o
 .mdebug.abi32  0x0000000000000000        0x0 arch/otto40/lib/libotto40.o
 .mdebug.abi32  0x0000000000000000        0x0 common/libcommon.o
 .mdebug.abi32  0x0000000000000000        0x0 lib/libgeneric.o
 .mdebug.abi32  0x0000000000000000        0x0 lib/lzma/liblzma.o
 .mdebug.abi32  0x0000000000000000        0x0 lib/zlib/libz.o
 .mdebug.abi32  0x0000000000000000        0x0 net/libnet.o
 .mdebug.abi32  0x0000000000000000        0x0 board/Realtek/rtl9300/librtl9300.o

.debug_aranges  0x0000000000000000     0x67d0
 .debug_aranges
                0x0000000000000000      0x258 arch/otto40/cpu/mips34kc/libmips34kc.o
 .debug_aranges
                0x0000000000000258      0x470 arch/otto40/lib/libotto40.o
 .debug_aranges
                0x00000000000006c8      0x840 common/libcommon.o
 .debug_aranges
                0x0000000000000f08      0x398 lib/libgeneric.o
 .debug_aranges
                0x00000000000012a0       0xb8 lib/lzma/liblzma.o
 .debug_aranges
                0x0000000000001358       0x68 lib/zlib/libz.o
 .debug_aranges
                0x00000000000013c0      0x220 net/libnet.o
 .debug_aranges
                0x00000000000015e0     0x51f0 board/Realtek/rtl9300/librtl9300.o

.debug_info     0x0000000000000000   0x32fa0f
 .debug_info    0x0000000000000000     0x7559 arch/otto40/cpu/mips34kc/libmips34kc.o
 .debug_info    0x0000000000007559     0x7d07 arch/otto40/lib/libotto40.o
 .debug_info    0x000000000000f260    0x11dc4 common/libcommon.o
 .debug_info    0x0000000000021024     0x3ef9 lib/libgeneric.o
 .debug_info    0x0000000000024f1d     0x1a33 lib/lzma/liblzma.o
 .debug_info    0x0000000000026950     0x1377 lib/zlib/libz.o
 .debug_info    0x0000000000027cc7     0x5353 net/libnet.o
 .debug_info    0x000000000002d01a   0x3029f5 board/Realtek/rtl9300/librtl9300.o

.debug_abbrev   0x0000000000000000    0x1bed2
 .debug_abbrev  0x0000000000000000     0x1bd2 arch/otto40/cpu/mips34kc/libmips34kc.o
 .debug_abbrev  0x0000000000001bd2     0x2267 arch/otto40/lib/libotto40.o
 .debug_abbrev  0x0000000000003e39     0x3d76 common/libcommon.o
 .debug_abbrev  0x0000000000007baf     0x15bd lib/libgeneric.o
 .debug_abbrev  0x000000000000916c      0x546 lib/lzma/liblzma.o
 .debug_abbrev  0x00000000000096b2      0x3ec lib/zlib/libz.o
 .debug_abbrev  0x0000000000009a9e     0x1063 net/libnet.o
 .debug_abbrev  0x000000000000ab01    0x113d1 board/Realtek/rtl9300/librtl9300.o

.debug_line     0x0000000000000000    0x53b6c
 .debug_line    0x0000000000000000     0x15f2 arch/otto40/cpu/mips34kc/libmips34kc.o
 .debug_line    0x00000000000015f2     0x2b24 arch/otto40/lib/libotto40.o
 .debug_line    0x0000000000004116     0x5892 common/libcommon.o
 .debug_line    0x00000000000099a8     0x26e2 lib/libgeneric.o
 .debug_line    0x000000000000c08a      0xa6f lib/lzma/liblzma.o
 .debug_line    0x000000000000caf9      0xbf0 lib/zlib/libz.o
 .debug_line    0x000000000000d6e9     0x145c net/libnet.o
 .debug_line    0x000000000000eb45    0x45027 board/Realtek/rtl9300/librtl9300.o

.debug_frame    0x0000000000000000    0x17aa4
 .debug_frame   0x0000000000000000      0x988 arch/otto40/cpu/mips34kc/libmips34kc.o
 .debug_frame   0x0000000000000988      0xa1c arch/otto40/lib/libotto40.o
 .debug_frame   0x00000000000013a4     0x1908 common/libcommon.o
 .debug_frame   0x0000000000002cac      0x85c lib/libgeneric.o
 .debug_frame   0x0000000000003508      0x244 lib/lzma/liblzma.o
 .debug_frame   0x000000000000374c      0x184 lib/zlib/libz.o
 .debug_frame   0x00000000000038d0      0x754 net/libnet.o
 .debug_frame   0x0000000000004024    0x13a80 board/Realtek/rtl9300/librtl9300.o

.debug_str      0x0000000000000000    0x6f088
 .debug_str     0x0000000000000000     0x20a7 arch/otto40/cpu/mips34kc/libmips34kc.o
                                       0x5050 (size before relaxing)
 .debug_str     0x00000000000020a7     0x18c3 arch/otto40/lib/libotto40.o
                                       0x5aed (size before relaxing)
 .debug_str     0x000000000000396a     0x2145 common/libcommon.o
                                       0x7a80 (size before relaxing)
 .debug_str     0x0000000000005aaf      0x4bc lib/libgeneric.o
                                       0x2903 (size before relaxing)
 .debug_str     0x0000000000005f6b      0x543 lib/lzma/liblzma.o
                                        0xb3d (size before relaxing)
 .debug_str     0x00000000000064ae      0x2d3 lib/zlib/libz.o
                                        0x706 (size before relaxing)
 .debug_str     0x0000000000006781      0xb99 net/libnet.o
                                       0x1e66 (size before relaxing)
 .debug_str     0x000000000000731a    0x67d6e board/Realtek/rtl9300/librtl9300.o
                                     0x42e4f9 (size before relaxing)

.debug_loc      0x0000000000000000    0xa9348
 .debug_loc     0x0000000000000000     0x2c03 arch/otto40/cpu/mips34kc/libmips34kc.o
 .debug_loc     0x0000000000002c03     0x2c42 arch/otto40/lib/libotto40.o
 .debug_loc     0x0000000000005845     0x9834 common/libcommon.o
 .debug_loc     0x000000000000f079     0x4525 lib/libgeneric.o
 .debug_loc     0x000000000001359e     0x32f7 lib/lzma/liblzma.o
 .debug_loc     0x0000000000016895     0x2c75 lib/zlib/libz.o
 .debug_loc     0x000000000001950a     0x279d net/libnet.o
 .debug_loc     0x000000000001bca7    0x8d6a1 board/Realtek/rtl9300/librtl9300.o

.debug_ranges   0x0000000000000000     0xc4a0
 .debug_ranges  0x0000000000000000      0x370 arch/otto40/cpu/mips34kc/libmips34kc.o
 .debug_ranges  0x0000000000000370      0x418 arch/otto40/lib/libotto40.o
 .debug_ranges  0x0000000000000788     0x1040 common/libcommon.o
 .debug_ranges  0x00000000000017c8      0x4c0 lib/libgeneric.o
 .debug_ranges  0x0000000000001c88      0x738 lib/lzma/liblzma.o
 .debug_ranges  0x00000000000023c0       0xb8 lib/zlib/libz.o
 .debug_ranges  0x0000000000002478      0x558 net/libnet.o
 .debug_ranges  0x00000000000029d0     0x9ad0 board/Realtek/rtl9300/librtl9300.o

.debug_pubnames
                0x0000000000000000       0xf6
 .debug_pubnames
                0x0000000000000000       0xf6 common/libcommon.o
